
/opt/tinyos-2.0.2/apps/AttestationBase/build/mica2/main.bin:     file format binary

Sections:
Idx Name          Size      VMA               LMA               File off  Algn
  0 .data         00007096  0000000000000000  0000000000000000  00000000  2**0
                  CONTENTS, ALLOC, LOAD, DATA
Disassembly of section .data:

0000000000000000 <.data>:
       0:	0c 94 88 01 	jmp	0x310	; 0x0x310
       4:	0c 94 a7 01 	jmp	0x34e	; 0x0x34e
       8:	0c 94 a7 01 	jmp	0x34e	; 0x0x34e
       c:	0c 94 a7 01 	jmp	0x34e	; 0x0x34e
      10:	0c 94 a7 01 	jmp	0x34e	; 0x0x34e
      14:	0c 94 a7 01 	jmp	0x34e	; 0x0x34e
      18:	0c 94 a7 01 	jmp	0x34e	; 0x0x34e
      1c:	0c 94 a7 01 	jmp	0x34e	; 0x0x34e
      20:	0c 94 a7 01 	jmp	0x34e	; 0x0x34e
      24:	0c 94 a7 01 	jmp	0x34e	; 0x0x34e
      28:	0c 94 a7 01 	jmp	0x34e	; 0x0x34e
      2c:	0c 94 a7 01 	jmp	0x34e	; 0x0x34e
      30:	0c 94 a7 01 	jmp	0x34e	; 0x0x34e
      34:	0c 94 a7 01 	jmp	0x34e	; 0x0x34e
      38:	0c 94 a7 01 	jmp	0x34e	; 0x0x34e
      3c:	0c 94 7e 04 	jmp	0x8fc	; 0x0x8fc
      40:	0c 94 e1 01 	jmp	0x3c2	; 0x0x3c2
      44:	0c 94 58 2a 	jmp	0x54b0	; 0x0x54b0
      48:	0c 94 a7 01 	jmp	0x34e	; 0x0x34e
      4c:	0c 94 a7 01 	jmp	0x34e	; 0x0x34e
      50:	0c 94 a7 01 	jmp	0x34e	; 0x0x34e
      54:	0c 94 fe 30 	jmp	0x61fc	; 0x0x61fc
      58:	0c 94 a7 01 	jmp	0x34e	; 0x0x34e
      5c:	0c 94 a7 01 	jmp	0x34e	; 0x0x34e
      60:	0c 94 a7 01 	jmp	0x34e	; 0x0x34e
      64:	0c 94 a7 01 	jmp	0x34e	; 0x0x34e
      68:	0c 94 a7 01 	jmp	0x34e	; 0x0x34e
      6c:	0c 94 a7 01 	jmp	0x34e	; 0x0x34e
      70:	0c 94 a7 01 	jmp	0x34e	; 0x0x34e
      74:	0c 94 a7 01 	jmp	0x34e	; 0x0x34e
      78:	0c 94 a7 01 	jmp	0x34e	; 0x0x34e
      7c:	0c 94 a7 01 	jmp	0x34e	; 0x0x34e
      80:	0c 94 a7 01 	jmp	0x34e	; 0x0x34e
      84:	0c 94 a7 01 	jmp	0x34e	; 0x0x34e
      88:	0c 94 a7 01 	jmp	0x34e	; 0x0x34e
      8c:	00 00       	nop
      8e:	21 10       	cpse	r2, r1
      90:	42 20       	and	r4, r2
      92:	63 30       	cpi	r22, 0x03	; 3
      94:	84 40       	sbci	r24, 0x04	; 4
      96:	a5 50       	subi	r26, 0x05	; 5
      98:	c6 60       	ori	r28, 0x06	; 6
      9a:	e7 70       	andi	r30, 0x07	; 7
      9c:	08 81       	ld	r16, Y
      9e:	29 91       	ld	r18, Y+
      a0:	4a a1       	ldd	r20, Y+34	; 0x22
      a2:	6b b1       	in	r22, 0x0b	; 11
      a4:	8c c1       	rjmp	.+792    	; 0x0x3be
      a6:	ad d1       	rcall	.+858    	; 0x0x402
      a8:	ce e1       	ldi	r28, 0x1E	; 30
      aa:	ef f1       	brie	.+122    	; 0x0x126
      ac:	31 12       	cpse	r3, r17
      ae:	10 02       	muls	r17, r16
      b0:	73 32       	cpi	r23, 0x23	; 35
      b2:	52 22       	and	r5, r18
      b4:	b5 52       	subi	r27, 0x25	; 37
      b6:	94 42       	sbci	r25, 0x24	; 36
      b8:	f7 72       	andi	r31, 0x27	; 39
      ba:	d6 62       	ori	r29, 0x26	; 38
      bc:	39 93       	st	Y+, r19
      be:	18 83       	st	Y, r17
      c0:	7b b3       	in	r23, 0x1b	; 27
      c2:	5a a3       	std	Y+34, r21	; 0x22
      c4:	bd d3       	rcall	.+1914   	; 0x0x840
      c6:	9c c3       	rjmp	.+1848   	; 0x0x800
      c8:	ff f3       	brie	.-2      	; 0x0xc8
      ca:	de e3       	ldi	r29, 0x3E	; 62
      cc:	62 24       	eor	r6, r2
      ce:	43 34       	cpi	r20, 0x43	; 67
      d0:	20 04       	cpc	r2, r0
      d2:	01 14       	cp	r0, r1
      d4:	e6 64       	ori	r30, 0x46	; 70
      d6:	c7 74       	andi	r28, 0x47	; 71
      d8:	a4 44       	sbci	r26, 0x44	; 68
      da:	85 54       	subi	r24, 0x45	; 69
      dc:	6a a5       	ldd	r22, Y+42	; 0x2a
      de:	4b b5       	in	r20, 0x2b	; 43
      e0:	28 85       	ldd	r18, Y+8	; 0x08
      e2:	09 95       	icall
      e4:	ee e5       	ldi	r30, 0x5E	; 94
      e6:	cf f5       	brid	.+114    	; 0x0x15a
      e8:	ac c5       	rjmp	.+2904   	; 0x0xc42
      ea:	8d d5       	rcall	.+2842   	; 0x0xc06
      ec:	53 36       	cpi	r21, 0x63	; 99
      ee:	72 26       	eor	r7, r18
      f0:	11 16       	cp	r1, r17
      f2:	30 06       	cpc	r3, r16
      f4:	d7 76       	andi	r29, 0x67	; 103
      f6:	f6 66       	ori	r31, 0x66	; 102
      f8:	95 56       	subi	r25, 0x65	; 101
      fa:	b4 46       	sbci	r27, 0x64	; 100
      fc:	5b b7       	in	r21, 0x3b	; 59
      fe:	7a a7       	std	Y+42, r23	; 0x2a
     100:	19 97       	sbiw	r26, 0x09	; 9
     102:	38 87       	std	Y+8, r19	; 0x08
     104:	df f7       	brid	.-10     	; 0x0xfc
     106:	fe e7       	ldi	r31, 0x7E	; 126
     108:	9d d7       	rcall	.+3898   	; 0x0x1044
     10a:	bc c7       	rjmp	.+3960   	; 0x0x1084
     10c:	c4 48       	sbci	r28, 0x84	; 132
     10e:	e5 58       	subi	r30, 0x85	; 133
     110:	86 68       	ori	r24, 0x86	; 134
     112:	a7 78       	andi	r26, 0x87	; 135
     114:	40 08       	sbc	r4, r0
     116:	61 18       	sub	r6, r1
     118:	02 28       	or	r0, r2
     11a:	23 38       	cpi	r18, 0x83	; 131
     11c:	cc c9       	rjmp	.-3176   	; 0x0xfffff4b6
     11e:	ed d9       	rcall	.-3110   	; 0x0xfffff4fa
     120:	8e e9       	ldi	r24, 0x9E	; 158
     122:	af f9       	.word	0xf9af	; ????
     124:	48 89       	ldd	r20, Y+16	; 0x10
     126:	69 99       	sbic	0x0d, 1	; 13
     128:	0a a9       	ldd	r16, Y+50	; 0x32
     12a:	2b b9       	out	0x0b, r18	; 11
     12c:	f5 5a       	subi	r31, 0xA5	; 165
     12e:	d4 4a       	sbci	r29, 0xA4	; 164
     130:	b7 7a       	andi	r27, 0xA7	; 167
     132:	96 6a       	ori	r25, 0xA6	; 166
     134:	71 1a       	sub	r7, r17
     136:	50 0a       	sbc	r5, r16
     138:	33 3a       	cpi	r19, 0xA3	; 163
     13a:	12 2a       	or	r1, r18
     13c:	fd db       	rcall	.-2054   	; 0x0xfffff938
     13e:	dc cb       	rjmp	.-2120   	; 0x0xfffff8f8
     140:	bf fb       	.word	0xfbbf	; ????
     142:	9e eb       	ldi	r25, 0xBE	; 190
     144:	79 9b       	sbis	0x0f, 1	; 15
     146:	58 8b       	std	Y+16, r21	; 0x10
     148:	3b bb       	out	0x1b, r19	; 27
     14a:	1a ab       	std	Y+50, r17	; 0x32
     14c:	a6 6c       	ori	r26, 0xC6	; 198
     14e:	87 7c       	andi	r24, 0xC7	; 199
     150:	e4 4c       	sbci	r30, 0xC4	; 196
     152:	c5 5c       	subi	r28, 0xC5	; 197
     154:	22 2c       	mov	r2, r2
     156:	03 3c       	cpi	r16, 0xC3	; 195
     158:	60 0c       	add	r6, r0
     15a:	41 1c       	adc	r4, r1
     15c:	ae ed       	ldi	r26, 0xDE	; 222
     15e:	8f fd       	.word	0xfd8f	; ????
     160:	ec cd       	rjmp	.-1064   	; 0x0xfffffd3a
     162:	cd dd       	rcall	.-1126   	; 0x0xfffffcfe
     164:	2a ad       	ldd	r18, Y+58	; 0x3a
     166:	0b bd       	out	0x2b, r16	; 43
     168:	68 8d       	ldd	r22, Y+24	; 0x18
     16a:	49 9d       	mul	r20, r9
     16c:	97 7e       	andi	r25, 0xE7	; 231
     16e:	b6 6e       	ori	r27, 0xE6	; 230
     170:	d5 5e       	subi	r29, 0xE5	; 229
     172:	f4 4e       	sbci	r31, 0xE4	; 228
     174:	13 3e       	cpi	r17, 0xE3	; 227
     176:	32 2e       	mov	r3, r18
     178:	51 1e       	adc	r5, r17
     17a:	70 0e       	add	r7, r16
     17c:	9f ff       	.word	0xff9f	; ????
     17e:	be ef       	ldi	r27, 0xFE	; 254
     180:	dd df       	rcall	.-70     	; 0x0x13c
     182:	fc cf       	rjmp	.-8      	; 0x0x17c
     184:	1b bf       	out	0x3b, r17	; 59
     186:	3a af       	std	Y+58, r19	; 0x3a
     188:	59 9f       	mul	r21, r25
     18a:	78 8f       	std	Y+24, r23	; 0x18
     18c:	88 91       	.word	0x9188	; ????
     18e:	a9 81       	ldd	r26, Y+1	; 0x01
     190:	ca b1       	in	r28, 0x0a	; 10
     192:	eb a1       	ldd	r30, Y+35	; 0x23
     194:	0c d1       	rcall	.+536    	; 0x0x3ae
     196:	2d c1       	rjmp	.+602    	; 0x0x3f2
     198:	4e f1       	brts	.+82     	; 0x0x1ec
     19a:	6f e1       	ldi	r22, 0x1F	; 31
     19c:	80 10       	cpse	r8, r0
     19e:	a1 00       	.word	0x00a1	; ????
     1a0:	c2 30       	cpi	r28, 0x02	; 2
     1a2:	e3 20       	and	r14, r3
     1a4:	04 50       	subi	r16, 0x04	; 4
     1a6:	25 40       	sbci	r18, 0x05	; 5
     1a8:	46 70       	andi	r20, 0x06	; 6
     1aa:	67 60       	ori	r22, 0x07	; 7
     1ac:	b9 83       	std	Y+1, r27	; 0x01
     1ae:	98 93       	.word	0x9398	; ????
     1b0:	fb a3       	std	Y+35, r31	; 0x23
     1b2:	da b3       	in	r29, 0x1a	; 26
     1b4:	3d c3       	rjmp	.+1658   	; 0x0x830
     1b6:	1c d3       	rcall	.+1592   	; 0x0x7f0
     1b8:	7f e3       	ldi	r23, 0x3F	; 63
     1ba:	5e f3       	brts	.-42     	; 0x0x192
     1bc:	b1 02       	muls	r27, r17
     1be:	90 12       	cpse	r9, r16
     1c0:	f3 22       	and	r15, r19
     1c2:	d2 32       	cpi	r29, 0x22	; 34
     1c4:	35 42       	sbci	r19, 0x25	; 37
     1c6:	14 52       	subi	r17, 0x24	; 36
     1c8:	77 62       	ori	r23, 0x27	; 39
     1ca:	56 72       	andi	r21, 0x26	; 38
     1cc:	ea b5       	in	r30, 0x2a	; 42
     1ce:	cb a5       	ldd	r28, Y+43	; 0x2b
     1d0:	a8 95       	wdr
     1d2:	89 85       	ldd	r24, Y+9	; 0x09
     1d4:	6e f5       	brtc	.+90     	; 0x0x230
     1d6:	4f e5       	ldi	r20, 0x5F	; 95
     1d8:	2c d5       	rcall	.+2648   	; 0x0xc32
     1da:	0d c5       	rjmp	.+2586   	; 0x0xbf6
     1dc:	e2 34       	cpi	r30, 0x42	; 66
     1de:	c3 24       	eor	r12, r3
     1e0:	a0 14       	cp	r10, r0
     1e2:	81 04       	cpc	r8, r1
     1e4:	66 74       	andi	r22, 0x46	; 70
     1e6:	47 64       	ori	r20, 0x47	; 71
     1e8:	24 54       	subi	r18, 0x44	; 68
     1ea:	05 44       	sbci	r16, 0x45	; 69
     1ec:	db a7       	std	Y+43, r29	; 0x2b
     1ee:	fa b7       	in	r31, 0x3a	; 58
     1f0:	99 87       	std	Y+9, r25	; 0x09
     1f2:	b8 97       	sbiw	r30, 0x28	; 40
     1f4:	5f e7       	ldi	r21, 0x7F	; 127
     1f6:	7e f7       	brtc	.-34     	; 0x0x1d6
     1f8:	1d c7       	rjmp	.+3642   	; 0x0x1034
     1fa:	3c d7       	rcall	.+3704   	; 0x0x1074
     1fc:	d3 26       	eor	r13, r19
     1fe:	f2 36       	cpi	r31, 0x62	; 98
     200:	91 06       	cpc	r9, r17
     202:	b0 16       	cp	r11, r16
     204:	57 66       	ori	r21, 0x67	; 103
     206:	76 76       	andi	r23, 0x66	; 102
     208:	15 46       	sbci	r17, 0x65	; 101
     20a:	34 56       	subi	r19, 0x64	; 100
     20c:	4c d9       	rcall	.-3432   	; 0x0xfffff4a6
     20e:	6d c9       	rjmp	.-3366   	; 0x0xfffff4ea
     210:	0e f9       	.word	0xf90e	; ????
     212:	2f e9       	ldi	r18, 0x9F	; 159
     214:	c8 99       	sbic	0x19, 0	; 25
     216:	e9 89       	ldd	r30, Y+17	; 0x11
     218:	8a b9       	out	0x0a, r24	; 10
     21a:	ab a9       	ldd	r26, Y+51	; 0x33
     21c:	44 58       	subi	r20, 0x84	; 132
     21e:	65 48       	sbci	r22, 0x85	; 133
     220:	06 78       	andi	r16, 0x86	; 134
     222:	27 68       	ori	r18, 0x87	; 135
     224:	c0 18       	sub	r12, r0
     226:	e1 08       	sbc	r14, r1
     228:	82 38       	cpi	r24, 0x82	; 130
     22a:	a3 28       	or	r10, r3
     22c:	7d cb       	rjmp	.-2310   	; 0x0xfffff928
     22e:	5c db       	rcall	.-2376   	; 0x0xfffff8e8
     230:	3f eb       	ldi	r19, 0xBF	; 191
     232:	1e fb       	.word	0xfb1e	; ????
     234:	f9 8b       	std	Y+17, r31	; 0x11
     236:	d8 9b       	sbis	0x1b, 0	; 27
     238:	bb ab       	std	Y+51, r27	; 0x33
     23a:	9a bb       	out	0x1a, r25	; 26
     23c:	75 4a       	sbci	r23, 0xA5	; 165
     23e:	54 5a       	subi	r21, 0xA4	; 164
     240:	37 6a       	ori	r19, 0xA7	; 167
     242:	16 7a       	andi	r17, 0xA6	; 166
     244:	f1 0a       	sbc	r15, r17
     246:	d0 1a       	sub	r13, r16
     248:	b3 2a       	or	r11, r19
     24a:	92 3a       	cpi	r25, 0xA2	; 162
     24c:	2e fd       	.word	0xfd2e	; ????
     24e:	0f ed       	ldi	r16, 0xDF	; 223
     250:	6c dd       	rcall	.-1320   	; 0x0xfffffd2a
     252:	4d cd       	rjmp	.-1382   	; 0x0xfffffcee
     254:	aa bd       	out	0x2a, r26	; 42
     256:	8b ad       	ldd	r24, Y+59	; 0x3b
     258:	e8 9d       	mul	r30, r8
     25a:	c9 8d       	ldd	r28, Y+25	; 0x19
     25c:	26 7c       	andi	r18, 0xC6	; 198
     25e:	07 6c       	ori	r16, 0xC7	; 199
     260:	64 5c       	subi	r22, 0xC4	; 196
     262:	45 4c       	sbci	r20, 0xC5	; 197
     264:	a2 3c       	cpi	r26, 0xC2	; 194
     266:	83 2c       	mov	r8, r3
     268:	e0 1c       	adc	r14, r0
     26a:	c1 0c       	add	r12, r1
     26c:	1f ef       	ldi	r17, 0xFF	; 255
     26e:	3e ff       	.word	0xff3e	; ????
     270:	5d cf       	rjmp	.-326    	; 0x0x12c
     272:	7c df       	rcall	.-264    	; 0x0x16c
     274:	9b af       	std	Y+59, r25	; 0x3b
     276:	ba bf       	out	0x3a, r27	; 58
     278:	d9 8f       	std	Y+25, r29	; 0x19
     27a:	f8 9f       	mul	r31, r24
     27c:	17 6e       	ori	r17, 0xE7	; 231
     27e:	36 7e       	andi	r19, 0xE6	; 230
     280:	55 4e       	sbci	r21, 0xE5	; 229
     282:	74 5e       	subi	r23, 0xE4	; 228
     284:	93 2e       	mov	r9, r19
     286:	b2 3e       	cpi	r27, 0xE2	; 226
     288:	d1 0e       	add	r13, r17
     28a:	f0 1e       	adc	r15, r16
     28c:	00 08       	sbc	r0, r0
     28e:	1c 18       	sub	r1, r12
     290:	14 10       	cpse	r1, r4
     292:	ab ba       	out	0x1b, r10	; 27
     294:	83 aa       	std	Z+51, r8	; 0x33
     296:	aa 31       	cpi	r26, 0x1A	; 26
     298:	58 00       	.word	0x0058	; ????
     29a:	00 57       	subi	r16, 0x70	; 112
     29c:	f6 85       	ldd	r31, Z+14	; 0x0e
     29e:	03 55       	subi	r16, 0x53	; 83
     2a0:	44 02       	muls	r20, r20
     2a2:	0f 60       	ori	r16, 0x0F	; 15
     2a4:	e0 26       	eor	r14, r16
     2a6:	1c 6b       	ori	r17, 0xBC	; 188
     2a8:	55 70       	andi	r21, 0x05	; 5
     2aa:	81 31       	cpi	r24, 0x11	; 17
     2ac:	7c 00       	.word	0x007c	; ????
     2ae:	00 7b       	andi	r16, 0xB0	; 176
     2b0:	f9 ae       	std	Y+57, r15	; 0x39
     2b2:	02 38       	cpi	r16, 0x82	; 130
     2b4:	8c 32       	cpi	r24, 0x2C	; 44
     2b6:	80 40       	sbci	r24, 0x00	; 0
     2b8:	10 26       	eor	r1, r16
     2ba:	a1 6b       	ori	r26, 0xB1	; 177
     2bc:	55 10       	cpse	r5, r5
     2be:	f3 31       	cpi	r31, 0x13	; 19
     2c0:	51 00       	.word	0x0051	; ????
     2c2:	00 50       	subi	r16, 0x00	; 0
     2c4:	f7 4f       	sbci	r31, 0xF7	; 247
     2c6:	03 0e       	add	r0, r19
     2c8:	44 02       	muls	r20, r20
     2ca:	0f 58       	subi	r16, 0x8F	; 143
     2cc:	e0 26       	eor	r14, r16
     2ce:	a1 6b       	ori	r26, 0xB1	; 177
     2d0:	55 70       	andi	r21, 0x05	; 5
     2d2:	81 31       	cpi	r24, 0x11	; 17
     2d4:	5c e0       	ldi	r21, 0x0C	; 12
     2d6:	00 5c       	subi	r16, 0xC0	; 192
     2d8:	db 42       	sbci	r29, 0x2B	; 43
     2da:	01 aa       	std	Z+49, r0	; 0x31
     2dc:	8c 32       	cpi	r24, 0x2C	; 44
     2de:	80 30       	cpi	r24, 0x00	; 0
     2e0:	10 26       	eor	r1, r16
     2e2:	a1 6b       	ori	r26, 0xB1	; 177
     2e4:	55 10       	cpse	r5, r5
     2e6:	f3 31       	cpi	r31, 0x13	; 19
     2e8:	45 60       	ori	r20, 0x05	; 5
     2ea:	00 45       	sbci	r16, 0x50	; 80
     2ec:	55 bb       	out	0x15, r21	; 21
     2ee:	03 9c       	mul	r0, r3
     2f0:	80 02       	muls	r24, r16
     2f2:	0f 68       	ori	r16, 0x8F	; 143
     2f4:	e0 26       	eor	r14, r16
     2f6:	a1 6b       	ori	r26, 0xB1	; 177
     2f8:	54 70       	andi	r21, 0x04	; 4
     2fa:	81 31       	cpi	r24, 0x11	; 17
     2fc:	58 00       	.word	0x0058	; ????
     2fe:	00 57       	subi	r16, 0x70	; 112
     300:	f6 85       	ldd	r31, Z+14	; 0x0e
     302:	03 55       	subi	r16, 0x53	; 83
     304:	90 02       	muls	r25, r16
     306:	0f 60       	ori	r16, 0x0F	; 15
     308:	e0 26       	eor	r14, r16
     30a:	a1 6b       	ori	r26, 0xB1	; 177
     30c:	55 70       	andi	r21, 0x05	; 5
     30e:	81 00       	.word	0x0081	; ????
     310:	11 24       	eor	r1, r1
     312:	1f be       	out	0x3f, r1	; 63
     314:	cf ef       	ldi	r28, 0xFF	; 255
     316:	d0 e1       	ldi	r29, 0x10	; 16
     318:	de bf       	out	0x3e, r29	; 62
     31a:	cd bf       	out	0x3d, r28	; 61
     31c:	11 e0       	ldi	r17, 0x01	; 1
     31e:	a0 e0       	ldi	r26, 0x00	; 0
     320:	b1 e0       	ldi	r27, 0x01	; 1
     322:	ea e8       	ldi	r30, 0x8A	; 138
     324:	f0 e7       	ldi	r31, 0x70	; 112
     326:	00 e0       	ldi	r16, 0x00	; 0
     328:	0b bf       	out	0x3b, r16	; 59
     32a:	02 c0       	rjmp	.+4      	; 0x0x330
     32c:	07 90       	elpm	r0, Z+
     32e:	0d 92       	st	X+, r0
     330:	ac 30       	cpi	r26, 0x0C	; 12
     332:	b1 07       	cpc	r27, r17
     334:	d9 f7       	brne	.-10     	; 0x0x32c
     336:	11 e0       	ldi	r17, 0x01	; 1
     338:	ac e0       	ldi	r26, 0x0C	; 12
     33a:	b1 e0       	ldi	r27, 0x01	; 1
     33c:	01 c0       	rjmp	.+2      	; 0x0x340
     33e:	1d 92       	st	X+, r1
     340:	ae 3d       	cpi	r26, 0xDE	; 222
     342:	b1 07       	cpc	r27, r17
     344:	e1 f7       	brne	.-8      	; 0x0x33e
     346:	0e 94 73 16 	call	0x2ce6	; 0x0x2ce6
     34a:	0c 94 44 38 	jmp	0x7088	; 0x0x7088
     34e:	0c 94 00 00 	jmp	0	; 0x0x0
     352:	8f b7       	in	r24, 0x3f	; 63
     354:	f8 94       	cli
     356:	99 27       	eor	r25, r25
     358:	08 95       	ret
     35a:	8f bf       	out	0x3f, r24	; 63
     35c:	08 95       	ret
     35e:	ec e8       	ldi	r30, 0x8C	; 140
     360:	f0 e0       	ldi	r31, 0x00	; 0
     362:	69 27       	eor	r22, r25
     364:	66 0f       	add	r22, r22
     366:	f1 1d       	adc	r31, r1
     368:	e6 0f       	add	r30, r22
     36a:	f1 1d       	adc	r31, r1
     36c:	c8 95       	lpm
     36e:	98 2f       	mov	r25, r24
     370:	80 2d       	mov	r24, r0
     372:	31 96       	adiw	r30, 0x01	; 1
     374:	c8 95       	lpm
     376:	90 25       	eor	r25, r0
     378:	08 95       	ret
     37a:	88 0f       	add	r24, r24
     37c:	94 98       	cbi	0x12, 4	; 18
     37e:	90 e0       	ldi	r25, 0x00	; 0
     380:	87 ff       	sbrs	r24, 7
     382:	02 c0       	rjmp	.+4      	; 0x0x388
     384:	97 9a       	sbi	0x12, 7	; 18
     386:	01 c0       	rjmp	.+2      	; 0x0x38a
     388:	97 98       	cbi	0x12, 7	; 18
     38a:	96 98       	cbi	0x12, 6	; 18
     38c:	96 9a       	sbi	0x12, 6	; 18
     38e:	9f 5f       	subi	r25, 0xFF	; 255
     390:	97 30       	cpi	r25, 0x07	; 7
     392:	11 f0       	breq	.+4      	; 0x0x398
     394:	88 0f       	add	r24, r24
     396:	f4 cf       	rjmp	.-24     	; 0x0x380
     398:	97 9a       	sbi	0x12, 7	; 18
     39a:	96 98       	cbi	0x12, 6	; 18
     39c:	96 9a       	sbi	0x12, 6	; 18
     39e:	94 9a       	sbi	0x12, 4	; 18
     3a0:	80 e0       	ldi	r24, 0x00	; 0
     3a2:	67 ff       	sbrs	r22, 7
     3a4:	02 c0       	rjmp	.+4      	; 0x0x3aa
     3a6:	97 9a       	sbi	0x12, 7	; 18
     3a8:	01 c0       	rjmp	.+2      	; 0x0x3ac
     3aa:	97 98       	cbi	0x12, 7	; 18
     3ac:	96 98       	cbi	0x12, 6	; 18
     3ae:	96 9a       	sbi	0x12, 6	; 18
     3b0:	8f 5f       	subi	r24, 0xFF	; 255
     3b2:	88 30       	cpi	r24, 0x08	; 8
     3b4:	11 f0       	breq	.+4      	; 0x0x3ba
     3b6:	66 0f       	add	r22, r22
     3b8:	f4 cf       	rjmp	.-24     	; 0x0x3a2
     3ba:	94 9a       	sbi	0x12, 4	; 18
     3bc:	97 9a       	sbi	0x12, 7	; 18
     3be:	96 9a       	sbi	0x12, 6	; 18
     3c0:	08 95       	ret
     3c2:	1f 92       	push	r1
     3c4:	0f 92       	push	r0
     3c6:	0f b6       	in	r0, 0x3f	; 63
     3c8:	0f 92       	push	r0
     3ca:	11 24       	eor	r1, r1
     3cc:	8f 93       	push	r24
     3ce:	83 b7       	in	r24, 0x33	; 51
     3d0:	83 bf       	out	0x33, r24	; 51
     3d2:	00 b6       	in	r0, 0x30	; 48
     3d4:	00 fc       	sbrc	r0, 0
     3d6:	fd cf       	rjmp	.-6      	; 0x0x3d2
     3d8:	8f 91       	pop	r24
     3da:	0f 90       	pop	r0
     3dc:	0f be       	out	0x3f, r0	; 63
     3de:	0f 90       	pop	r0
     3e0:	1f 90       	pop	r1
     3e2:	18 95       	reti
     3e4:	ef 92       	push	r14
     3e6:	ff 92       	push	r15
     3e8:	0f 93       	push	r16
     3ea:	1f 93       	push	r17
     3ec:	8f b7       	in	r24, 0x3f	; 63
     3ee:	f8 94       	cli
     3f0:	28 2f       	mov	r18, r24
     3f2:	33 27       	eor	r19, r19
     3f4:	e2 2f       	mov	r30, r18
     3f6:	91 b7       	in	r25, 0x31	; 49
     3f8:	82 b7       	in	r24, 0x32	; 50
     3fa:	46 b7       	in	r20, 0x36	; 54
     3fc:	98 17       	cp	r25, r24
     3fe:	11 f0       	breq	.+4      	; 0x0x404
     400:	41 ff       	sbrs	r20, 1
     402:	02 c0       	rjmp	.+4      	; 0x0x408
     404:	2f bf       	out	0x3f, r18	; 63
     406:	ab c0       	rjmp	.+342    	; 0x0x55e
     408:	80 91 bb 01 	lds	r24, 0x01BB
     40c:	88 23       	and	r24, r24
     40e:	09 f4       	brne	.+2      	; 0x0x412
     410:	60 c0       	rjmp	.+192    	; 0x0x4d2
     412:	6f b7       	in	r22, 0x3f	; 63
     414:	f8 94       	cli
     416:	82 b7       	in	r24, 0x32	; 50
     418:	20 91 b4 01 	lds	r18, 0x01B4
     41c:	30 91 b5 01 	lds	r19, 0x01B5
     420:	40 91 b6 01 	lds	r20, 0x01B6
     424:	50 91 b7 01 	lds	r21, 0x01B7
     428:	06 b6       	in	r0, 0x36	; 54
     42a:	01 fe       	sbrs	r0, 1
     42c:	0f c0       	rjmp	.+30     	; 0x0x44c
     42e:	81 b7       	in	r24, 0x31	; 49
     430:	92 b7       	in	r25, 0x32	; 50
     432:	28 0f       	add	r18, r24
     434:	31 1d       	adc	r19, r1
     436:	41 1d       	adc	r20, r1
     438:	51 1d       	adc	r21, r1
     43a:	2f 5f       	subi	r18, 0xFF	; 255
     43c:	3f 4f       	sbci	r19, 0xFF	; 255
     43e:	4f 4f       	sbci	r20, 0xFF	; 255
     440:	5f 4f       	sbci	r21, 0xFF	; 255
     442:	29 0f       	add	r18, r25
     444:	31 1d       	adc	r19, r1
     446:	41 1d       	adc	r20, r1
     448:	51 1d       	adc	r21, r1
     44a:	04 c0       	rjmp	.+8      	; 0x0x454
     44c:	28 0f       	add	r18, r24
     44e:	31 1d       	adc	r19, r1
     450:	41 1d       	adc	r20, r1
     452:	51 1d       	adc	r21, r1
     454:	86 2f       	mov	r24, r22
     456:	99 27       	eor	r25, r25
     458:	8f bf       	out	0x3f, r24	; 63
     45a:	e0 90 99 01 	lds	r14, 0x0199
     45e:	f0 90 9a 01 	lds	r15, 0x019A
     462:	00 91 9b 01 	lds	r16, 0x019B
     466:	10 91 9c 01 	lds	r17, 0x019C
     46a:	80 91 bc 01 	lds	r24, 0x01BC
     46e:	90 91 bd 01 	lds	r25, 0x01BD
     472:	a0 91 be 01 	lds	r26, 0x01BE
     476:	b0 91 bf 01 	lds	r27, 0x01BF
     47a:	2e 19       	sub	r18, r14
     47c:	3f 09       	sbc	r19, r15
     47e:	40 0b       	sbc	r20, r16
     480:	51 0b       	sbc	r21, r17
     482:	28 17       	cp	r18, r24
     484:	39 07       	cpc	r19, r25
     486:	4a 07       	cpc	r20, r26
     488:	5b 07       	cpc	r21, r27
     48a:	20 f0       	brcs	.+8      	; 0x0x494
     48c:	10 92 bb 01 	sts	0x01BB, r1
     490:	71 e0       	ldi	r23, 0x01	; 1
     492:	20 c0       	rjmp	.+64     	; 0x0x4d4
     494:	a8 01       	movw	r20, r16
     496:	97 01       	movw	r18, r14
     498:	28 0f       	add	r18, r24
     49a:	39 1f       	adc	r19, r25
     49c:	4a 1f       	adc	r20, r26
     49e:	5b 1f       	adc	r21, r27
     4a0:	80 91 b4 01 	lds	r24, 0x01B4
     4a4:	90 91 b5 01 	lds	r25, 0x01B5
     4a8:	a0 91 b6 01 	lds	r26, 0x01B6
     4ac:	b0 91 b7 01 	lds	r27, 0x01B7
     4b0:	28 1b       	sub	r18, r24
     4b2:	39 0b       	sbc	r19, r25
     4b4:	4a 0b       	sbc	r20, r26
     4b6:	5b 0b       	sbc	r21, r27
     4b8:	27 3e       	cpi	r18, 0xE7	; 231
     4ba:	31 05       	cpc	r19, r1
     4bc:	41 05       	cpc	r20, r1
     4be:	51 05       	cpc	r21, r1
     4c0:	40 f4       	brcc	.+16     	; 0x0x4d2
     4c2:	82 2f       	mov	r24, r18
     4c4:	22 30       	cpi	r18, 0x02	; 2
     4c6:	10 f0       	brcs	.+4      	; 0x0x4cc
     4c8:	70 e0       	ldi	r23, 0x00	; 0
     4ca:	05 c0       	rjmp	.+10     	; 0x0x4d6
     4cc:	70 e0       	ldi	r23, 0x00	; 0
     4ce:	82 e0       	ldi	r24, 0x02	; 2
     4d0:	02 c0       	rjmp	.+4      	; 0x0x4d6
     4d2:	70 e0       	ldi	r23, 0x00	; 0
     4d4:	86 ee       	ldi	r24, 0xE6	; 230
     4d6:	68 2f       	mov	r22, r24
     4d8:	61 50       	subi	r22, 0x01	; 1
     4da:	00 b6       	in	r0, 0x30	; 48
     4dc:	01 fc       	sbrc	r0, 1
     4de:	fd cf       	rjmp	.-6      	; 0x0x4da
     4e0:	82 b7       	in	r24, 0x32	; 50
     4e2:	68 17       	cp	r22, r24
     4e4:	09 f4       	brne	.+2      	; 0x0x4e8
     4e6:	6f 5f       	subi	r22, 0xFF	; 255
     4e8:	20 91 b4 01 	lds	r18, 0x01B4
     4ec:	30 91 b5 01 	lds	r19, 0x01B5
     4f0:	40 91 b6 01 	lds	r20, 0x01B6
     4f4:	50 91 b7 01 	lds	r21, 0x01B7
     4f8:	da 01       	movw	r26, r20
     4fa:	c9 01       	movw	r24, r18
     4fc:	01 96       	adiw	r24, 0x01	; 1
     4fe:	a1 1d       	adc	r26, r1
     500:	b1 1d       	adc	r27, r1
     502:	86 0f       	add	r24, r22
     504:	91 1d       	adc	r25, r1
     506:	a1 1d       	adc	r26, r1
     508:	b1 1d       	adc	r27, r1
     50a:	82 17       	cp	r24, r18
     50c:	93 07       	cpc	r25, r19
     50e:	a4 07       	cpc	r26, r20
     510:	b5 07       	cpc	r27, r21
     512:	10 f4       	brcc	.+4      	; 0x0x518
     514:	62 2f       	mov	r22, r18
     516:	60 95       	com	r22
     518:	61 bf       	out	0x31, r22	; 49
     51a:	ef bf       	out	0x3f, r30	; 63
     51c:	77 23       	and	r23, r23
     51e:	f9 f0       	breq	.+62     	; 0x0x55e
     520:	9f b7       	in	r25, 0x3f	; 63
     522:	f8 94       	cli
     524:	80 91 cb 01 	lds	r24, 0x01CB
     528:	8f 3f       	cpi	r24, 0xFF	; 255
     52a:	81 f4       	brne	.+32     	; 0x0x54c
     52c:	80 91 d9 01 	lds	r24, 0x01D9
     530:	88 23       	and	r24, r24
     532:	61 f0       	breq	.+24     	; 0x0x54c
     534:	0f c0       	rjmp	.+30     	; 0x0x554
     536:	10 92 ca 01 	sts	0x01CA, r1
     53a:	06 c0       	rjmp	.+12     	; 0x0x548
     53c:	e0 91 d9 01 	lds	r30, 0x01D9
     540:	ff 27       	eor	r31, r31
     542:	e5 53       	subi	r30, 0x35	; 53
     544:	fe 4f       	sbci	r31, 0xFE	; 254
     546:	10 82       	st	Z, r1
     548:	10 92 d9 01 	sts	0x01D9, r1
     54c:	89 2f       	mov	r24, r25
     54e:	99 27       	eor	r25, r25
     550:	8f bf       	out	0x3f, r24	; 63
     552:	05 c0       	rjmp	.+10     	; 0x0x55e
     554:	80 91 ca 01 	lds	r24, 0x01CA
     558:	8f 3f       	cpi	r24, 0xFF	; 255
     55a:	81 f7       	brne	.-32     	; 0x0x53c
     55c:	ec cf       	rjmp	.-40     	; 0x0x536
     55e:	1f 91       	pop	r17
     560:	0f 91       	pop	r16
     562:	ff 90       	pop	r15
     564:	ef 90       	pop	r14
     566:	08 95       	ret
     568:	80 91 0d 01 	lds	r24, 0x010D
     56c:	84 30       	cpi	r24, 0x04	; 4
     56e:	09 f4       	brne	.+2      	; 0x0x572
     570:	dd c0       	rjmp	.+442    	; 0x0x72c
     572:	85 30       	cpi	r24, 0x05	; 5
     574:	09 f4       	brne	.+2      	; 0x0x578
     576:	a9 c0       	rjmp	.+338    	; 0x0x6ca
     578:	81 30       	cpi	r24, 0x01	; 1
     57a:	09 f0       	breq	.+2      	; 0x0x57e
     57c:	38 c1       	rjmp	.+624    	; 0x0x7ee
     57e:	80 91 4d 01 	lds	r24, 0x014D
     582:	81 fd       	sbrc	r24, 1
     584:	34 c1       	rjmp	.+616    	; 0x0x7ee
     586:	90 e0       	ldi	r25, 0x00	; 0
     588:	80 91 8d 01 	lds	r24, 0x018D
     58c:	8f 31       	cpi	r24, 0x1F	; 31
     58e:	08 f0       	brcs	.+2      	; 0x0x592
     590:	91 e0       	ldi	r25, 0x01	; 1
     592:	99 23       	and	r25, r25
     594:	09 f4       	brne	.+2      	; 0x0x598
     596:	68 c0       	rjmp	.+208    	; 0x0x668
     598:	80 91 53 01 	lds	r24, 0x0153
     59c:	90 91 54 01 	lds	r25, 0x0154
     5a0:	89 2b       	or	r24, r25
     5a2:	89 f5       	brne	.+98     	; 0x0x606
     5a4:	6f b7       	in	r22, 0x3f	; 63
     5a6:	f8 94       	cli
     5a8:	82 b7       	in	r24, 0x32	; 50
     5aa:	20 91 b4 01 	lds	r18, 0x01B4
     5ae:	30 91 b5 01 	lds	r19, 0x01B5
     5b2:	40 91 b6 01 	lds	r20, 0x01B6
     5b6:	50 91 b7 01 	lds	r21, 0x01B7
     5ba:	06 b6       	in	r0, 0x36	; 54
     5bc:	01 fe       	sbrs	r0, 1
     5be:	0f c0       	rjmp	.+30     	; 0x0x5de
     5c0:	81 b7       	in	r24, 0x31	; 49
     5c2:	92 b7       	in	r25, 0x32	; 50
     5c4:	28 0f       	add	r18, r24
     5c6:	31 1d       	adc	r19, r1
     5c8:	41 1d       	adc	r20, r1
     5ca:	51 1d       	adc	r21, r1
     5cc:	2f 5f       	subi	r18, 0xFF	; 255
     5ce:	3f 4f       	sbci	r19, 0xFF	; 255
     5d0:	4f 4f       	sbci	r20, 0xFF	; 255
     5d2:	5f 4f       	sbci	r21, 0xFF	; 255
     5d4:	29 0f       	add	r18, r25
     5d6:	31 1d       	adc	r19, r1
     5d8:	41 1d       	adc	r20, r1
     5da:	51 1d       	adc	r21, r1
     5dc:	04 c0       	rjmp	.+8      	; 0x0x5e6
     5de:	28 0f       	add	r18, r24
     5e0:	31 1d       	adc	r19, r1
     5e2:	41 1d       	adc	r20, r1
     5e4:	51 1d       	adc	r21, r1
     5e6:	86 2f       	mov	r24, r22
     5e8:	99 27       	eor	r25, r25
     5ea:	8f bf       	out	0x3f, r24	; 63
     5ec:	20 93 45 01 	sts	0x0145, r18
     5f0:	30 93 46 01 	sts	0x0146, r19
     5f4:	40 93 47 01 	sts	0x0147, r20
     5f8:	50 93 48 01 	sts	0x0148, r21
     5fc:	80 e0       	ldi	r24, 0x00	; 0
     5fe:	9a e0       	ldi	r25, 0x0A	; 10
     600:	a0 e0       	ldi	r26, 0x00	; 0
     602:	b0 e0       	ldi	r27, 0x00	; 0
     604:	c6 c0       	rjmp	.+396    	; 0x0x792
     606:	6f b7       	in	r22, 0x3f	; 63
     608:	f8 94       	cli
     60a:	82 b7       	in	r24, 0x32	; 50
     60c:	20 91 b4 01 	lds	r18, 0x01B4
     610:	30 91 b5 01 	lds	r19, 0x01B5
     614:	40 91 b6 01 	lds	r20, 0x01B6
     618:	50 91 b7 01 	lds	r21, 0x01B7
     61c:	06 b6       	in	r0, 0x36	; 54
     61e:	01 fe       	sbrs	r0, 1
     620:	0f c0       	rjmp	.+30     	; 0x0x640
     622:	81 b7       	in	r24, 0x31	; 49
     624:	92 b7       	in	r25, 0x32	; 50
     626:	28 0f       	add	r18, r24
     628:	31 1d       	adc	r19, r1
     62a:	41 1d       	adc	r20, r1
     62c:	51 1d       	adc	r21, r1
     62e:	2f 5f       	subi	r18, 0xFF	; 255
     630:	3f 4f       	sbci	r19, 0xFF	; 255
     632:	4f 4f       	sbci	r20, 0xFF	; 255
     634:	5f 4f       	sbci	r21, 0xFF	; 255
     636:	29 0f       	add	r18, r25
     638:	31 1d       	adc	r19, r1
     63a:	41 1d       	adc	r20, r1
     63c:	51 1d       	adc	r21, r1
     63e:	04 c0       	rjmp	.+8      	; 0x0x648
     640:	28 0f       	add	r18, r24
     642:	31 1d       	adc	r19, r1
     644:	41 1d       	adc	r20, r1
     646:	51 1d       	adc	r21, r1
     648:	86 2f       	mov	r24, r22
     64a:	99 27       	eor	r25, r25
     64c:	8f bf       	out	0x3f, r24	; 63
     64e:	20 93 45 01 	sts	0x0145, r18
     652:	30 93 46 01 	sts	0x0146, r19
     656:	40 93 47 01 	sts	0x0147, r20
     65a:	50 93 48 01 	sts	0x0148, r21
     65e:	8e e1       	ldi	r24, 0x1E	; 30
     660:	90 e0       	ldi	r25, 0x00	; 0
     662:	a0 e0       	ldi	r26, 0x00	; 0
     664:	b0 e0       	ldi	r27, 0x00	; 0
     666:	95 c0       	rjmp	.+298    	; 0x0x792
     668:	6f b7       	in	r22, 0x3f	; 63
     66a:	f8 94       	cli
     66c:	82 b7       	in	r24, 0x32	; 50
     66e:	20 91 b4 01 	lds	r18, 0x01B4
     672:	30 91 b5 01 	lds	r19, 0x01B5
     676:	40 91 b6 01 	lds	r20, 0x01B6
     67a:	50 91 b7 01 	lds	r21, 0x01B7
     67e:	06 b6       	in	r0, 0x36	; 54
     680:	01 fe       	sbrs	r0, 1
     682:	0f c0       	rjmp	.+30     	; 0x0x6a2
     684:	81 b7       	in	r24, 0x31	; 49
     686:	92 b7       	in	r25, 0x32	; 50
     688:	28 0f       	add	r18, r24
     68a:	31 1d       	adc	r19, r1
     68c:	41 1d       	adc	r20, r1
     68e:	51 1d       	adc	r21, r1
     690:	2f 5f       	subi	r18, 0xFF	; 255
     692:	3f 4f       	sbci	r19, 0xFF	; 255
     694:	4f 4f       	sbci	r20, 0xFF	; 255
     696:	5f 4f       	sbci	r21, 0xFF	; 255
     698:	29 0f       	add	r18, r25
     69a:	31 1d       	adc	r19, r1
     69c:	41 1d       	adc	r20, r1
     69e:	51 1d       	adc	r21, r1
     6a0:	04 c0       	rjmp	.+8      	; 0x0x6aa
     6a2:	28 0f       	add	r18, r24
     6a4:	31 1d       	adc	r19, r1
     6a6:	41 1d       	adc	r20, r1
     6a8:	51 1d       	adc	r21, r1
     6aa:	86 2f       	mov	r24, r22
     6ac:	99 27       	eor	r25, r25
     6ae:	8f bf       	out	0x3f, r24	; 63
     6b0:	20 93 45 01 	sts	0x0145, r18
     6b4:	30 93 46 01 	sts	0x0146, r19
     6b8:	40 93 47 01 	sts	0x0147, r20
     6bc:	50 93 48 01 	sts	0x0148, r21
     6c0:	80 e0       	ldi	r24, 0x00	; 0
     6c2:	98 e0       	ldi	r25, 0x08	; 8
     6c4:	a0 e0       	ldi	r26, 0x00	; 0
     6c6:	b0 e0       	ldi	r27, 0x00	; 0
     6c8:	64 c0       	rjmp	.+200    	; 0x0x792
     6ca:	6f b7       	in	r22, 0x3f	; 63
     6cc:	f8 94       	cli
     6ce:	82 b7       	in	r24, 0x32	; 50
     6d0:	20 91 b4 01 	lds	r18, 0x01B4
     6d4:	30 91 b5 01 	lds	r19, 0x01B5
     6d8:	40 91 b6 01 	lds	r20, 0x01B6
     6dc:	50 91 b7 01 	lds	r21, 0x01B7
     6e0:	06 b6       	in	r0, 0x36	; 54
     6e2:	01 fe       	sbrs	r0, 1
     6e4:	0f c0       	rjmp	.+30     	; 0x0x704
     6e6:	81 b7       	in	r24, 0x31	; 49
     6e8:	92 b7       	in	r25, 0x32	; 50
     6ea:	28 0f       	add	r18, r24
     6ec:	31 1d       	adc	r19, r1
     6ee:	41 1d       	adc	r20, r1
     6f0:	51 1d       	adc	r21, r1
     6f2:	2f 5f       	subi	r18, 0xFF	; 255
     6f4:	3f 4f       	sbci	r19, 0xFF	; 255
     6f6:	4f 4f       	sbci	r20, 0xFF	; 255
     6f8:	5f 4f       	sbci	r21, 0xFF	; 255
     6fa:	29 0f       	add	r18, r25
     6fc:	31 1d       	adc	r19, r1
     6fe:	41 1d       	adc	r20, r1
     700:	51 1d       	adc	r21, r1
     702:	04 c0       	rjmp	.+8      	; 0x0x70c
     704:	28 0f       	add	r18, r24
     706:	31 1d       	adc	r19, r1
     708:	41 1d       	adc	r20, r1
     70a:	51 1d       	adc	r21, r1
     70c:	86 2f       	mov	r24, r22
     70e:	99 27       	eor	r25, r25
     710:	8f bf       	out	0x3f, r24	; 63
     712:	20 93 45 01 	sts	0x0145, r18
     716:	30 93 46 01 	sts	0x0146, r19
     71a:	40 93 47 01 	sts	0x0147, r20
     71e:	50 93 48 01 	sts	0x0148, r21
     722:	81 e0       	ldi	r24, 0x01	; 1
     724:	90 e0       	ldi	r25, 0x00	; 0
     726:	a0 e0       	ldi	r26, 0x00	; 0
     728:	b0 e0       	ldi	r27, 0x00	; 0
     72a:	33 c0       	rjmp	.+102    	; 0x0x792
     72c:	60 91 53 01 	lds	r22, 0x0153
     730:	70 91 54 01 	lds	r23, 0x0154
     734:	ef b7       	in	r30, 0x3f	; 63
     736:	f8 94       	cli
     738:	82 b7       	in	r24, 0x32	; 50
     73a:	20 91 b4 01 	lds	r18, 0x01B4
     73e:	30 91 b5 01 	lds	r19, 0x01B5
     742:	40 91 b6 01 	lds	r20, 0x01B6
     746:	50 91 b7 01 	lds	r21, 0x01B7
     74a:	06 b6       	in	r0, 0x36	; 54
     74c:	01 fe       	sbrs	r0, 1
     74e:	0f c0       	rjmp	.+30     	; 0x0x76e
     750:	81 b7       	in	r24, 0x31	; 49
     752:	92 b7       	in	r25, 0x32	; 50
     754:	28 0f       	add	r18, r24
     756:	31 1d       	adc	r19, r1
     758:	41 1d       	adc	r20, r1
     75a:	51 1d       	adc	r21, r1
     75c:	2f 5f       	subi	r18, 0xFF	; 255
     75e:	3f 4f       	sbci	r19, 0xFF	; 255
     760:	4f 4f       	sbci	r20, 0xFF	; 255
     762:	5f 4f       	sbci	r21, 0xFF	; 255
     764:	29 0f       	add	r18, r25
     766:	31 1d       	adc	r19, r1
     768:	41 1d       	adc	r20, r1
     76a:	51 1d       	adc	r21, r1
     76c:	04 c0       	rjmp	.+8      	; 0x0x776
     76e:	28 0f       	add	r18, r24
     770:	31 1d       	adc	r19, r1
     772:	41 1d       	adc	r20, r1
     774:	51 1d       	adc	r21, r1
     776:	8e 2f       	mov	r24, r30
     778:	99 27       	eor	r25, r25
     77a:	8f bf       	out	0x3f, r24	; 63
     77c:	20 93 45 01 	sts	0x0145, r18
     780:	30 93 46 01 	sts	0x0146, r19
     784:	40 93 47 01 	sts	0x0147, r20
     788:	50 93 48 01 	sts	0x0148, r21
     78c:	cb 01       	movw	r24, r22
     78e:	aa 27       	eor	r26, r26
     790:	bb 27       	eor	r27, r27
     792:	80 93 49 01 	sts	0x0149, r24
     796:	90 93 4a 01 	sts	0x014A, r25
     79a:	a0 93 4b 01 	sts	0x014B, r26
     79e:	b0 93 4c 01 	sts	0x014C, r27
     7a2:	80 91 4d 01 	lds	r24, 0x014D
     7a6:	83 60       	ori	r24, 0x03	; 3
     7a8:	80 93 4d 01 	sts	0x014D, r24
     7ac:	9f b7       	in	r25, 0x3f	; 63
     7ae:	f8 94       	cli
     7b0:	80 91 cc 01 	lds	r24, 0x01CC
     7b4:	8f 3f       	cpi	r24, 0xFF	; 255
     7b6:	91 f4       	brne	.+36     	; 0x0x7dc
     7b8:	80 91 d9 01 	lds	r24, 0x01D9
     7bc:	81 30       	cpi	r24, 0x01	; 1
     7be:	91 f4       	brne	.+36     	; 0x0x7e4
     7c0:	0d c0       	rjmp	.+26     	; 0x0x7dc
     7c2:	81 e0       	ldi	r24, 0x01	; 1
     7c4:	80 93 ca 01 	sts	0x01CA, r24
     7c8:	07 c0       	rjmp	.+14     	; 0x0x7d8
     7ca:	e0 91 d9 01 	lds	r30, 0x01D9
     7ce:	ff 27       	eor	r31, r31
     7d0:	e5 53       	subi	r30, 0x35	; 53
     7d2:	fe 4f       	sbci	r31, 0xFE	; 254
     7d4:	81 e0       	ldi	r24, 0x01	; 1
     7d6:	80 83       	st	Z, r24
     7d8:	80 93 d9 01 	sts	0x01D9, r24
     7dc:	89 2f       	mov	r24, r25
     7de:	99 27       	eor	r25, r25
     7e0:	8f bf       	out	0x3f, r24	; 63
     7e2:	08 95       	ret
     7e4:	80 91 ca 01 	lds	r24, 0x01CA
     7e8:	8f 3f       	cpi	r24, 0xFF	; 255
     7ea:	79 f7       	brne	.-34     	; 0x0x7ca
     7ec:	ea cf       	rjmp	.-44     	; 0x0x7c2
     7ee:	08 95       	ret
     7f0:	98 2f       	mov	r25, r24
     7f2:	80 91 04 01 	lds	r24, 0x0104
     7f6:	84 30       	cpi	r24, 0x04	; 4
     7f8:	09 f0       	breq	.+2      	; 0x0x7fc
     7fa:	76 c0       	rjmp	.+236    	; 0x0x8e8
     7fc:	90 93 04 01 	sts	0x0104, r25
     800:	90 91 07 01 	lds	r25, 0x0107
     804:	80 91 0f 01 	lds	r24, 0x010F
     808:	88 23       	and	r24, r24
     80a:	09 f0       	breq	.+2      	; 0x0x80e
     80c:	70 c0       	rjmp	.+224    	; 0x0x8ee
     80e:	82 e0       	ldi	r24, 0x02	; 2
     810:	80 93 0f 01 	sts	0x010F, r24
     814:	10 92 8e 01 	sts	0x018E, r1
     818:	37 9a       	sbi	0x06, 7	; 6
     81a:	91 30       	cpi	r25, 0x01	; 1
     81c:	31 f4       	brne	.+12     	; 0x0x82a
     81e:	10 92 07 01 	sts	0x0107, r1
     822:	83 e0       	ldi	r24, 0x03	; 3
     824:	80 93 0f 01 	sts	0x010F, r24
     828:	09 c0       	rjmp	.+18     	; 0x0x83c
     82a:	99 23       	and	r25, r25
     82c:	39 f0       	breq	.+14     	; 0x0x83c
     82e:	81 e0       	ldi	r24, 0x01	; 1
     830:	80 93 0f 01 	sts	0x010F, r24
     834:	10 92 8e 01 	sts	0x018E, r1
     838:	37 9a       	sbi	0x06, 7	; 6
     83a:	5d c0       	rjmp	.+186    	; 0x0x8f6
     83c:	82 e0       	ldi	r24, 0x02	; 2
     83e:	80 93 b3 01 	sts	0x01B3, r24
     842:	10 92 ba 01 	sts	0x01BA, r1
     846:	3f b7       	in	r19, 0x3f	; 63
     848:	f8 94       	cli
     84a:	90 91 d7 01 	lds	r25, 0x01D7
     84e:	89 2f       	mov	r24, r25
     850:	8e 7f       	andi	r24, 0xFE	; 254
     852:	80 93 d7 01 	sts	0x01D7, r24
     856:	87 b1       	in	r24, 0x07	; 7
     858:	20 e0       	ldi	r18, 0x00	; 0
     85a:	82 95       	swap	r24
     85c:	86 95       	lsr	r24
     85e:	86 95       	lsr	r24
     860:	83 70       	andi	r24, 0x03	; 3
     862:	09 f0       	breq	.+2      	; 0x0x866
     864:	21 e0       	ldi	r18, 0x01	; 1
     866:	81 e0       	ldi	r24, 0x01	; 1
     868:	28 27       	eor	r18, r24
     86a:	22 0f       	add	r18, r18
     86c:	90 78       	andi	r25, 0x80	; 128
     86e:	92 2b       	or	r25, r18
     870:	90 93 d7 01 	sts	0x01D7, r25
     874:	17 b8       	out	0x07, r1	; 7
     876:	80 91 97 01 	lds	r24, 0x0197
     87a:	90 91 98 01 	lds	r25, 0x0198
     87e:	21 e0       	ldi	r18, 0x01	; 1
     880:	86 38       	cpi	r24, 0x86	; 134
     882:	92 07       	cpc	r25, r18
     884:	18 f0       	brcs	.+6      	; 0x0x88c
     886:	87 e0       	ldi	r24, 0x07	; 7
     888:	90 e0       	ldi	r25, 0x00	; 0
     88a:	1f c0       	rjmp	.+62     	; 0x0x8ca
     88c:	83 3c       	cpi	r24, 0xC3	; 195
     88e:	91 05       	cpc	r25, r1
     890:	18 f0       	brcs	.+6      	; 0x0x898
     892:	86 e0       	ldi	r24, 0x06	; 6
     894:	90 e0       	ldi	r25, 0x00	; 0
     896:	19 c0       	rjmp	.+50     	; 0x0x8ca
     898:	81 36       	cpi	r24, 0x61	; 97
     89a:	91 05       	cpc	r25, r1
     89c:	18 f0       	brcs	.+6      	; 0x0x8a4
     89e:	85 e0       	ldi	r24, 0x05	; 5
     8a0:	90 e0       	ldi	r25, 0x00	; 0
     8a2:	13 c0       	rjmp	.+38     	; 0x0x8ca
     8a4:	80 33       	cpi	r24, 0x30	; 48
     8a6:	91 05       	cpc	r25, r1
     8a8:	18 f0       	brcs	.+6      	; 0x0x8b0
     8aa:	84 e0       	ldi	r24, 0x04	; 4
     8ac:	90 e0       	ldi	r25, 0x00	; 0
     8ae:	0d c0       	rjmp	.+26     	; 0x0x8ca
     8b0:	88 31       	cpi	r24, 0x18	; 24
     8b2:	91 05       	cpc	r25, r1
     8b4:	18 f0       	brcs	.+6      	; 0x0x8bc
     8b6:	83 e0       	ldi	r24, 0x03	; 3
     8b8:	90 e0       	ldi	r25, 0x00	; 0
     8ba:	07 c0       	rjmp	.+14     	; 0x0x8ca
     8bc:	0c 97       	sbiw	r24, 0x0c	; 12
     8be:	18 f0       	brcs	.+6      	; 0x0x8c6
     8c0:	82 e0       	ldi	r24, 0x02	; 2
     8c2:	90 e0       	ldi	r25, 0x00	; 0
     8c4:	02 c0       	rjmp	.+4      	; 0x0x8ca
     8c6:	80 e0       	ldi	r24, 0x00	; 0
     8c8:	90 e0       	ldi	r25, 0x00	; 0
     8ca:	87 70       	andi	r24, 0x07	; 7
     8cc:	98 7d       	andi	r25, 0xD8	; 216
     8ce:	98 2b       	or	r25, r24
     8d0:	98 6d       	ori	r25, 0xD8	; 216
     8d2:	89 2f       	mov	r24, r25
     8d4:	99 27       	eor	r25, r25
     8d6:	86 b9       	out	0x06, r24	; 6
     8d8:	83 2f       	mov	r24, r19
     8da:	99 27       	eor	r25, r25
     8dc:	8f bf       	out	0x3f, r24	; 63
     8de:	0b c0       	rjmp	.+22     	; 0x0x8f6
     8e0:	81 60       	ori	r24, 0x01	; 1
     8e2:	80 93 57 01 	sts	0x0157, r24
     8e6:	07 c0       	rjmp	.+14     	; 0x0x8f6
     8e8:	90 93 52 01 	sts	0x0152, r25
     8ec:	04 c0       	rjmp	.+8      	; 0x0x8f6
     8ee:	80 91 57 01 	lds	r24, 0x0157
     8f2:	80 ff       	sbrs	r24, 0
     8f4:	f5 cf       	rjmp	.-22     	; 0x0x8e0
     8f6:	80 e0       	ldi	r24, 0x00	; 0
     8f8:	90 e0       	ldi	r25, 0x00	; 0
     8fa:	08 95       	ret
     8fc:	1f 92       	push	r1
     8fe:	0f 92       	push	r0
     900:	0f b6       	in	r0, 0x3f	; 63
     902:	0f 92       	push	r0
     904:	11 24       	eor	r1, r1
     906:	ef 92       	push	r14
     908:	ff 92       	push	r15
     90a:	0f 93       	push	r16
     90c:	1f 93       	push	r17
     90e:	2f 93       	push	r18
     910:	3f 93       	push	r19
     912:	4f 93       	push	r20
     914:	5f 93       	push	r21
     916:	6f 93       	push	r22
     918:	7f 93       	push	r23
     91a:	8f 93       	push	r24
     91c:	9f 93       	push	r25
     91e:	af 93       	push	r26
     920:	bf 93       	push	r27
     922:	ef 93       	push	r30
     924:	ff 93       	push	r31
     926:	83 b7       	in	r24, 0x33	; 51
     928:	83 bf       	out	0x33, r24	; 51
     92a:	00 b6       	in	r0, 0x30	; 48
     92c:	00 fc       	sbrc	r0, 0
     92e:	fd cf       	rjmp	.-6      	; 0x0x92a
     930:	81 b7       	in	r24, 0x31	; 49
     932:	99 27       	eor	r25, r25
     934:	01 96       	adiw	r24, 0x01	; 1
     936:	aa 27       	eor	r26, r26
     938:	bb 27       	eor	r27, r27
     93a:	20 91 b4 01 	lds	r18, 0x01B4
     93e:	30 91 b5 01 	lds	r19, 0x01B5
     942:	40 91 b6 01 	lds	r20, 0x01B6
     946:	50 91 b7 01 	lds	r21, 0x01B7
     94a:	28 0f       	add	r18, r24
     94c:	39 1f       	adc	r19, r25
     94e:	4a 1f       	adc	r20, r26
     950:	5b 1f       	adc	r21, r27
     952:	20 93 b4 01 	sts	0x01B4, r18
     956:	30 93 b5 01 	sts	0x01B5, r19
     95a:	40 93 b6 01 	sts	0x01B6, r20
     95e:	50 93 b7 01 	sts	0x01B7, r21
     962:	78 94       	sei
     964:	8f b7       	in	r24, 0x3f	; 63
     966:	f8 94       	cli
     968:	28 2f       	mov	r18, r24
     96a:	33 27       	eor	r19, r19
     96c:	e2 2f       	mov	r30, r18
     96e:	91 b7       	in	r25, 0x31	; 49
     970:	82 b7       	in	r24, 0x32	; 50
     972:	46 b7       	in	r20, 0x36	; 54
     974:	98 17       	cp	r25, r24
     976:	11 f0       	breq	.+4      	; 0x0x97c
     978:	41 ff       	sbrs	r20, 1
     97a:	02 c0       	rjmp	.+4      	; 0x0x980
     97c:	2f bf       	out	0x3f, r18	; 63
     97e:	ab c0       	rjmp	.+342    	; 0x0xad6
     980:	80 91 bb 01 	lds	r24, 0x01BB
     984:	88 23       	and	r24, r24
     986:	09 f4       	brne	.+2      	; 0x0x98a
     988:	60 c0       	rjmp	.+192    	; 0x0xa4a
     98a:	6f b7       	in	r22, 0x3f	; 63
     98c:	f8 94       	cli
     98e:	82 b7       	in	r24, 0x32	; 50
     990:	20 91 b4 01 	lds	r18, 0x01B4
     994:	30 91 b5 01 	lds	r19, 0x01B5
     998:	40 91 b6 01 	lds	r20, 0x01B6
     99c:	50 91 b7 01 	lds	r21, 0x01B7
     9a0:	06 b6       	in	r0, 0x36	; 54
     9a2:	01 fe       	sbrs	r0, 1
     9a4:	0f c0       	rjmp	.+30     	; 0x0x9c4
     9a6:	81 b7       	in	r24, 0x31	; 49
     9a8:	92 b7       	in	r25, 0x32	; 50
     9aa:	28 0f       	add	r18, r24
     9ac:	31 1d       	adc	r19, r1
     9ae:	41 1d       	adc	r20, r1
     9b0:	51 1d       	adc	r21, r1
     9b2:	2f 5f       	subi	r18, 0xFF	; 255
     9b4:	3f 4f       	sbci	r19, 0xFF	; 255
     9b6:	4f 4f       	sbci	r20, 0xFF	; 255
     9b8:	5f 4f       	sbci	r21, 0xFF	; 255
     9ba:	29 0f       	add	r18, r25
     9bc:	31 1d       	adc	r19, r1
     9be:	41 1d       	adc	r20, r1
     9c0:	51 1d       	adc	r21, r1
     9c2:	04 c0       	rjmp	.+8      	; 0x0x9cc
     9c4:	28 0f       	add	r18, r24
     9c6:	31 1d       	adc	r19, r1
     9c8:	41 1d       	adc	r20, r1
     9ca:	51 1d       	adc	r21, r1
     9cc:	86 2f       	mov	r24, r22
     9ce:	99 27       	eor	r25, r25
     9d0:	8f bf       	out	0x3f, r24	; 63
     9d2:	e0 90 99 01 	lds	r14, 0x0199
     9d6:	f0 90 9a 01 	lds	r15, 0x019A
     9da:	00 91 9b 01 	lds	r16, 0x019B
     9de:	10 91 9c 01 	lds	r17, 0x019C
     9e2:	80 91 bc 01 	lds	r24, 0x01BC
     9e6:	90 91 bd 01 	lds	r25, 0x01BD
     9ea:	a0 91 be 01 	lds	r26, 0x01BE
     9ee:	b0 91 bf 01 	lds	r27, 0x01BF
     9f2:	2e 19       	sub	r18, r14
     9f4:	3f 09       	sbc	r19, r15
     9f6:	40 0b       	sbc	r20, r16
     9f8:	51 0b       	sbc	r21, r17
     9fa:	28 17       	cp	r18, r24
     9fc:	39 07       	cpc	r19, r25
     9fe:	4a 07       	cpc	r20, r26
     a00:	5b 07       	cpc	r21, r27
     a02:	20 f0       	brcs	.+8      	; 0x0xa0c
     a04:	10 92 bb 01 	sts	0x01BB, r1
     a08:	71 e0       	ldi	r23, 0x01	; 1
     a0a:	20 c0       	rjmp	.+64     	; 0x0xa4c
     a0c:	a8 01       	movw	r20, r16
     a0e:	97 01       	movw	r18, r14
     a10:	28 0f       	add	r18, r24
     a12:	39 1f       	adc	r19, r25
     a14:	4a 1f       	adc	r20, r26
     a16:	5b 1f       	adc	r21, r27
     a18:	80 91 b4 01 	lds	r24, 0x01B4
     a1c:	90 91 b5 01 	lds	r25, 0x01B5
     a20:	a0 91 b6 01 	lds	r26, 0x01B6
     a24:	b0 91 b7 01 	lds	r27, 0x01B7
     a28:	28 1b       	sub	r18, r24
     a2a:	39 0b       	sbc	r19, r25
     a2c:	4a 0b       	sbc	r20, r26
     a2e:	5b 0b       	sbc	r21, r27
     a30:	27 3e       	cpi	r18, 0xE7	; 231
     a32:	31 05       	cpc	r19, r1
     a34:	41 05       	cpc	r20, r1
     a36:	51 05       	cpc	r21, r1
     a38:	40 f4       	brcc	.+16     	; 0x0xa4a
     a3a:	82 2f       	mov	r24, r18
     a3c:	22 30       	cpi	r18, 0x02	; 2
     a3e:	10 f0       	brcs	.+4      	; 0x0xa44
     a40:	70 e0       	ldi	r23, 0x00	; 0
     a42:	05 c0       	rjmp	.+10     	; 0x0xa4e
     a44:	70 e0       	ldi	r23, 0x00	; 0
     a46:	82 e0       	ldi	r24, 0x02	; 2
     a48:	02 c0       	rjmp	.+4      	; 0x0xa4e
     a4a:	70 e0       	ldi	r23, 0x00	; 0
     a4c:	86 ee       	ldi	r24, 0xE6	; 230
     a4e:	68 2f       	mov	r22, r24
     a50:	61 50       	subi	r22, 0x01	; 1
     a52:	00 b6       	in	r0, 0x30	; 48
     a54:	01 fc       	sbrc	r0, 1
     a56:	fd cf       	rjmp	.-6      	; 0x0xa52
     a58:	82 b7       	in	r24, 0x32	; 50
     a5a:	68 17       	cp	r22, r24
     a5c:	09 f4       	brne	.+2      	; 0x0xa60
     a5e:	6f 5f       	subi	r22, 0xFF	; 255
     a60:	20 91 b4 01 	lds	r18, 0x01B4
     a64:	30 91 b5 01 	lds	r19, 0x01B5
     a68:	40 91 b6 01 	lds	r20, 0x01B6
     a6c:	50 91 b7 01 	lds	r21, 0x01B7
     a70:	da 01       	movw	r26, r20
     a72:	c9 01       	movw	r24, r18
     a74:	01 96       	adiw	r24, 0x01	; 1
     a76:	a1 1d       	adc	r26, r1
     a78:	b1 1d       	adc	r27, r1
     a7a:	86 0f       	add	r24, r22
     a7c:	91 1d       	adc	r25, r1
     a7e:	a1 1d       	adc	r26, r1
     a80:	b1 1d       	adc	r27, r1
     a82:	82 17       	cp	r24, r18
     a84:	93 07       	cpc	r25, r19
     a86:	a4 07       	cpc	r26, r20
     a88:	b5 07       	cpc	r27, r21
     a8a:	10 f4       	brcc	.+4      	; 0x0xa90
     a8c:	62 2f       	mov	r22, r18
     a8e:	60 95       	com	r22
     a90:	61 bf       	out	0x31, r22	; 49
     a92:	ef bf       	out	0x3f, r30	; 63
     a94:	77 23       	and	r23, r23
     a96:	f9 f0       	breq	.+62     	; 0x0xad6
     a98:	9f b7       	in	r25, 0x3f	; 63
     a9a:	f8 94       	cli
     a9c:	80 91 cb 01 	lds	r24, 0x01CB
     aa0:	8f 3f       	cpi	r24, 0xFF	; 255
     aa2:	81 f4       	brne	.+32     	; 0x0xac4
     aa4:	80 91 d9 01 	lds	r24, 0x01D9
     aa8:	88 23       	and	r24, r24
     aaa:	61 f0       	breq	.+24     	; 0x0xac4
     aac:	0f c0       	rjmp	.+30     	; 0x0xacc
     aae:	10 92 ca 01 	sts	0x01CA, r1
     ab2:	06 c0       	rjmp	.+12     	; 0x0xac0
     ab4:	e0 91 d9 01 	lds	r30, 0x01D9
     ab8:	ff 27       	eor	r31, r31
     aba:	e5 53       	subi	r30, 0x35	; 53
     abc:	fe 4f       	sbci	r31, 0xFE	; 254
     abe:	10 82       	st	Z, r1
     ac0:	10 92 d9 01 	sts	0x01D9, r1
     ac4:	89 2f       	mov	r24, r25
     ac6:	99 27       	eor	r25, r25
     ac8:	8f bf       	out	0x3f, r24	; 63
     aca:	05 c0       	rjmp	.+10     	; 0x0xad6
     acc:	80 91 ca 01 	lds	r24, 0x01CA
     ad0:	8f 3f       	cpi	r24, 0xFF	; 255
     ad2:	81 f7       	brne	.-32     	; 0x0xab4
     ad4:	ec cf       	rjmp	.-40     	; 0x0xaae
     ad6:	ff 91       	pop	r31
     ad8:	ef 91       	pop	r30
     ada:	bf 91       	pop	r27
     adc:	af 91       	pop	r26
     ade:	9f 91       	pop	r25
     ae0:	8f 91       	pop	r24
     ae2:	7f 91       	pop	r23
     ae4:	6f 91       	pop	r22
     ae6:	5f 91       	pop	r21
     ae8:	4f 91       	pop	r20
     aea:	3f 91       	pop	r19
     aec:	2f 91       	pop	r18
     aee:	1f 91       	pop	r17
     af0:	0f 91       	pop	r16
     af2:	ff 90       	pop	r15
     af4:	ef 90       	pop	r14
     af6:	0f 90       	pop	r0
     af8:	0f be       	out	0x3f, r0	; 63
     afa:	0f 90       	pop	r0
     afc:	1f 90       	pop	r1
     afe:	18 95       	reti
     b00:	20 91 96 01 	lds	r18, 0x0196
     b04:	94 98       	cbi	0x12, 4	; 18
     b06:	92 e1       	ldi	r25, 0x12	; 18
     b08:	80 e0       	ldi	r24, 0x00	; 0
     b0a:	97 ff       	sbrs	r25, 7
     b0c:	02 c0       	rjmp	.+4      	; 0x0xb12
     b0e:	97 9a       	sbi	0x12, 7	; 18
     b10:	01 c0       	rjmp	.+2      	; 0x0xb14
     b12:	97 98       	cbi	0x12, 7	; 18
     b14:	96 98       	cbi	0x12, 6	; 18
     b16:	96 9a       	sbi	0x12, 6	; 18
     b18:	8f 5f       	subi	r24, 0xFF	; 255
     b1a:	87 30       	cpi	r24, 0x07	; 7
     b1c:	11 f0       	breq	.+4      	; 0x0xb22
     b1e:	99 0f       	add	r25, r25
     b20:	f4 cf       	rjmp	.-24     	; 0x0xb0a
     b22:	97 9a       	sbi	0x12, 7	; 18
     b24:	96 98       	cbi	0x12, 6	; 18
     b26:	96 9a       	sbi	0x12, 6	; 18
     b28:	94 9a       	sbi	0x12, 4	; 18
     b2a:	80 e0       	ldi	r24, 0x00	; 0
     b2c:	27 ff       	sbrs	r18, 7
     b2e:	02 c0       	rjmp	.+4      	; 0x0xb34
     b30:	97 9a       	sbi	0x12, 7	; 18
     b32:	01 c0       	rjmp	.+2      	; 0x0xb36
     b34:	97 98       	cbi	0x12, 7	; 18
     b36:	96 98       	cbi	0x12, 6	; 18
     b38:	96 9a       	sbi	0x12, 6	; 18
     b3a:	8f 5f       	subi	r24, 0xFF	; 255
     b3c:	88 30       	cpi	r24, 0x08	; 8
     b3e:	11 f0       	breq	.+4      	; 0x0xb44
     b40:	22 0f       	add	r18, r18
     b42:	f4 cf       	rjmp	.-24     	; 0x0xb2c
     b44:	94 9a       	sbi	0x12, 4	; 18
     b46:	97 9a       	sbi	0x12, 7	; 18
     b48:	96 9a       	sbi	0x12, 6	; 18
     b4a:	94 98       	cbi	0x12, 4	; 18
     b4c:	96 e1       	ldi	r25, 0x16	; 22
     b4e:	80 e0       	ldi	r24, 0x00	; 0
     b50:	97 ff       	sbrs	r25, 7
     b52:	02 c0       	rjmp	.+4      	; 0x0xb58
     b54:	97 9a       	sbi	0x12, 7	; 18
     b56:	01 c0       	rjmp	.+2      	; 0x0xb5a
     b58:	97 98       	cbi	0x12, 7	; 18
     b5a:	96 98       	cbi	0x12, 6	; 18
     b5c:	96 9a       	sbi	0x12, 6	; 18
     b5e:	8f 5f       	subi	r24, 0xFF	; 255
     b60:	87 30       	cpi	r24, 0x07	; 7
     b62:	11 f0       	breq	.+4      	; 0x0xb68
     b64:	99 0f       	add	r25, r25
     b66:	f4 cf       	rjmp	.-24     	; 0x0xb50
     b68:	97 9a       	sbi	0x12, 7	; 18
     b6a:	96 98       	cbi	0x12, 6	; 18
     b6c:	96 9a       	sbi	0x12, 6	; 18
     b6e:	94 9a       	sbi	0x12, 4	; 18
     b70:	80 e0       	ldi	r24, 0x00	; 0
     b72:	97 98       	cbi	0x12, 7	; 18
     b74:	96 98       	cbi	0x12, 6	; 18
     b76:	96 9a       	sbi	0x12, 6	; 18
     b78:	8f 5f       	subi	r24, 0xFF	; 255
     b7a:	88 30       	cpi	r24, 0x08	; 8
     b7c:	d1 f7       	brne	.-12     	; 0x0xb72
     b7e:	94 9a       	sbi	0x12, 4	; 18
     b80:	97 9a       	sbi	0x12, 7	; 18
     b82:	96 9a       	sbi	0x12, 6	; 18
     b84:	94 98       	cbi	0x12, 4	; 18
     b86:	80 e0       	ldi	r24, 0x00	; 0
     b88:	97 98       	cbi	0x12, 7	; 18
     b8a:	96 98       	cbi	0x12, 6	; 18
     b8c:	96 9a       	sbi	0x12, 6	; 18
     b8e:	8f 5f       	subi	r24, 0xFF	; 255
     b90:	87 30       	cpi	r24, 0x07	; 7
     b92:	d1 f7       	brne	.-12     	; 0x0xb88
     b94:	97 9a       	sbi	0x12, 7	; 18
     b96:	96 98       	cbi	0x12, 6	; 18
     b98:	96 9a       	sbi	0x12, 6	; 18
     b9a:	94 9a       	sbi	0x12, 4	; 18
     b9c:	91 e1       	ldi	r25, 0x11	; 17
     b9e:	80 e0       	ldi	r24, 0x00	; 0
     ba0:	97 ff       	sbrs	r25, 7
     ba2:	02 c0       	rjmp	.+4      	; 0x0xba8
     ba4:	97 9a       	sbi	0x12, 7	; 18
     ba6:	01 c0       	rjmp	.+2      	; 0x0xbaa
     ba8:	97 98       	cbi	0x12, 7	; 18
     baa:	96 98       	cbi	0x12, 6	; 18
     bac:	96 9a       	sbi	0x12, 6	; 18
     bae:	8f 5f       	subi	r24, 0xFF	; 255
     bb0:	88 30       	cpi	r24, 0x08	; 8
     bb2:	11 f0       	breq	.+4      	; 0x0xbb8
     bb4:	99 0f       	add	r25, r25
     bb6:	f4 cf       	rjmp	.-24     	; 0x0xba0
     bb8:	94 9a       	sbi	0x12, 4	; 18
     bba:	97 9a       	sbi	0x12, 7	; 18
     bbc:	96 9a       	sbi	0x12, 6	; 18
     bbe:	8d e7       	ldi	r24, 0x7D	; 125
     bc0:	90 e0       	ldi	r25, 0x00	; 0
     bc2:	01 97       	sbiw	r24, 0x01	; 1
     bc4:	01 96       	adiw	r24, 0x01	; 1
     bc6:	01 97       	sbiw	r24, 0x01	; 1
     bc8:	e1 f7       	brne	.-8      	; 0x0xbc2
     bca:	08 95       	ret
     bcc:	2f 92       	push	r2
     bce:	3f 92       	push	r3
     bd0:	4f 92       	push	r4
     bd2:	5f 92       	push	r5
     bd4:	6f 92       	push	r6
     bd6:	7f 92       	push	r7
     bd8:	8f 92       	push	r8
     bda:	9f 92       	push	r9
     bdc:	af 92       	push	r10
     bde:	bf 92       	push	r11
     be0:	cf 92       	push	r12
     be2:	df 92       	push	r13
     be4:	ef 92       	push	r14
     be6:	ff 92       	push	r15
     be8:	0f 93       	push	r16
     bea:	1f 93       	push	r17
     bec:	cf 93       	push	r28
     bee:	df 93       	push	r29
     bf0:	cd b7       	in	r28, 0x3d	; 61
     bf2:	de b7       	in	r29, 0x3e	; 62
     bf4:	ce 56       	subi	r28, 0x6E	; 110
     bf6:	d0 40       	sbci	r29, 0x00	; 0
     bf8:	0f b6       	in	r0, 0x3f	; 63
     bfa:	f8 94       	cli
     bfc:	de bf       	out	0x3e, r29	; 62
     bfe:	0f be       	out	0x3f, r0	; 63
     c00:	cd bf       	out	0x3d, r28	; 61
     c02:	18 2f       	mov	r17, r24
     c04:	85 30       	cpi	r24, 0x05	; 5
     c06:	11 f4       	brne	.+4      	; 0x0xc0c
     c08:	0c 94 89 10 	jmp	0x2112	; 0x0x2112
     c0c:	86 30       	cpi	r24, 0x06	; 6
     c0e:	b8 f4       	brcc	.+46     	; 0x0xc3e
     c10:	82 30       	cpi	r24, 0x02	; 2
     c12:	11 f4       	brne	.+4      	; 0x0xc18
     c14:	0c 94 fd 0d 	jmp	0x1bfa	; 0x0x1bfa
     c18:	83 30       	cpi	r24, 0x03	; 3
     c1a:	38 f4       	brcc	.+14     	; 0x0xc2a
     c1c:	88 23       	and	r24, r24
     c1e:	99 f1       	breq	.+102    	; 0x0xc86
     c20:	81 30       	cpi	r24, 0x01	; 1
     c22:	11 f0       	breq	.+4      	; 0x0xc28
     c24:	0c 94 59 16 	jmp	0x2cb2	; 0x0x2cb2
     c28:	66 c2       	rjmp	.+1228   	; 0x0x10f6
     c2a:	83 30       	cpi	r24, 0x03	; 3
     c2c:	11 f4       	brne	.+4      	; 0x0xc32
     c2e:	0c 94 40 0f 	jmp	0x1e80	; 0x0x1e80
     c32:	84 30       	cpi	r24, 0x04	; 4
     c34:	11 f0       	breq	.+4      	; 0x0xc3a
     c36:	0c 94 59 16 	jmp	0x2cb2	; 0x0x2cb2
     c3a:	0c 94 9d 0f 	jmp	0x1f3a	; 0x0x1f3a
     c3e:	88 30       	cpi	r24, 0x08	; 8
     c40:	11 f4       	brne	.+4      	; 0x0xc46
     c42:	0c 94 de 13 	jmp	0x27bc	; 0x0x27bc
     c46:	89 30       	cpi	r24, 0x09	; 9
     c48:	50 f4       	brcc	.+20     	; 0x0xc5e
     c4a:	86 30       	cpi	r24, 0x06	; 6
     c4c:	11 f4       	brne	.+4      	; 0x0xc52
     c4e:	0c 94 05 11 	jmp	0x220a	; 0x0x220a
     c52:	87 30       	cpi	r24, 0x07	; 7
     c54:	11 f0       	breq	.+4      	; 0x0xc5a
     c56:	0c 94 59 16 	jmp	0x2cb2	; 0x0x2cb2
     c5a:	0c 94 2b 11 	jmp	0x2256	; 0x0x2256
     c5e:	8a 30       	cpi	r24, 0x0A	; 10
     c60:	51 f0       	breq	.+20     	; 0x0xc76
     c62:	8a 30       	cpi	r24, 0x0A	; 10
     c64:	10 f4       	brcc	.+4      	; 0x0xc6a
     c66:	0c 94 40 14 	jmp	0x2880	; 0x0x2880
     c6a:	8b 30       	cpi	r24, 0x0B	; 11
     c6c:	11 f0       	breq	.+4      	; 0x0xc72
     c6e:	0c 94 59 16 	jmp	0x2cb2	; 0x0x2cb2
     c72:	0c 94 5a 14 	jmp	0x28b4	; 0x0x28b4
     c76:	80 91 c9 01 	lds	r24, 0x01C9
     c7a:	88 23       	and	r24, r24
     c7c:	11 f0       	breq	.+4      	; 0x0xc82
     c7e:	0c 94 43 14 	jmp	0x2886	; 0x0x2886
     c82:	0c 94 59 16 	jmp	0x2cb2	; 0x0x2cb2
     c86:	80 91 4e 01 	lds	r24, 0x014E
     c8a:	88 23       	and	r24, r24
     c8c:	09 f0       	breq	.+2      	; 0x0xc90
     c8e:	43 c0       	rjmp	.+134    	; 0x0xd16
     c90:	e0 90 c4 01 	lds	r14, 0x01C4
     c94:	f0 90 c5 01 	lds	r15, 0x01C5
     c98:	00 91 c6 01 	lds	r16, 0x01C6
     c9c:	10 91 c7 01 	lds	r17, 0x01C7
     ca0:	6f b7       	in	r22, 0x3f	; 63
     ca2:	f8 94       	cli
     ca4:	77 27       	eor	r23, r23
     ca6:	20 91 99 01 	lds	r18, 0x0199
     caa:	30 91 9a 01 	lds	r19, 0x019A
     cae:	40 91 9b 01 	lds	r20, 0x019B
     cb2:	50 91 9c 01 	lds	r21, 0x019C
     cb6:	80 91 bc 01 	lds	r24, 0x01BC
     cba:	90 91 bd 01 	lds	r25, 0x01BD
     cbe:	a0 91 be 01 	lds	r26, 0x01BE
     cc2:	b0 91 bf 01 	lds	r27, 0x01BF
     cc6:	28 0f       	add	r18, r24
     cc8:	39 1f       	adc	r19, r25
     cca:	4a 1f       	adc	r20, r26
     ccc:	5b 1f       	adc	r21, r27
     cce:	6f bf       	out	0x3f, r22	; 63
     cd0:	e0 92 c4 01 	sts	0x01C4, r14
     cd4:	f0 92 c5 01 	sts	0x01C5, r15
     cd8:	00 93 c6 01 	sts	0x01C6, r16
     cdc:	10 93 c7 01 	sts	0x01C7, r17
     ce0:	10 92 4e 01 	sts	0x014E, r1
     ce4:	6f b7       	in	r22, 0x3f	; 63
     ce6:	f8 94       	cli
     ce8:	77 27       	eor	r23, r23
     cea:	81 e0       	ldi	r24, 0x01	; 1
     cec:	80 93 bb 01 	sts	0x01BB, r24
     cf0:	20 93 99 01 	sts	0x0199, r18
     cf4:	30 93 9a 01 	sts	0x019A, r19
     cf8:	40 93 9b 01 	sts	0x019B, r20
     cfc:	50 93 9c 01 	sts	0x019C, r21
     d00:	e0 92 bc 01 	sts	0x01BC, r14
     d04:	f0 92 bd 01 	sts	0x01BD, r15
     d08:	00 93 be 01 	sts	0x01BE, r16
     d0c:	10 93 bf 01 	sts	0x01BF, r17
     d10:	6f bf       	out	0x3f, r22	; 63
     d12:	0e 94 f2 01 	call	0x3e4	; 0x0x3e4
     d16:	6f b7       	in	r22, 0x3f	; 63
     d18:	f8 94       	cli
     d1a:	82 b7       	in	r24, 0x32	; 50
     d1c:	20 91 b4 01 	lds	r18, 0x01B4
     d20:	30 91 b5 01 	lds	r19, 0x01B5
     d24:	40 91 b6 01 	lds	r20, 0x01B6
     d28:	50 91 b7 01 	lds	r21, 0x01B7
     d2c:	06 b6       	in	r0, 0x36	; 54
     d2e:	01 fe       	sbrs	r0, 1
     d30:	0f c0       	rjmp	.+30     	; 0x0xd50
     d32:	81 b7       	in	r24, 0x31	; 49
     d34:	92 b7       	in	r25, 0x32	; 50
     d36:	28 0f       	add	r18, r24
     d38:	31 1d       	adc	r19, r1
     d3a:	41 1d       	adc	r20, r1
     d3c:	51 1d       	adc	r21, r1
     d3e:	2f 5f       	subi	r18, 0xFF	; 255
     d40:	3f 4f       	sbci	r19, 0xFF	; 255
     d42:	4f 4f       	sbci	r20, 0xFF	; 255
     d44:	5f 4f       	sbci	r21, 0xFF	; 255
     d46:	29 0f       	add	r18, r25
     d48:	31 1d       	adc	r19, r1
     d4a:	41 1d       	adc	r20, r1
     d4c:	51 1d       	adc	r21, r1
     d4e:	04 c0       	rjmp	.+8      	; 0x0xd58
     d50:	28 0f       	add	r18, r24
     d52:	31 1d       	adc	r19, r1
     d54:	41 1d       	adc	r20, r1
     d56:	51 1d       	adc	r21, r1
     d58:	2b a3       	std	Y+35, r18	; 0x23
     d5a:	3c a3       	std	Y+36, r19	; 0x24
     d5c:	4d a3       	std	Y+37, r20	; 0x25
     d5e:	5e a3       	std	Y+38, r21	; 0x26
     d60:	86 2f       	mov	r24, r22
     d62:	99 27       	eor	r25, r25
     d64:	8f bf       	out	0x3f, r24	; 63
     d66:	70 e0       	ldi	r23, 0x00	; 0
     d68:	89 e0       	ldi	r24, 0x09	; 9
     d6a:	78 9f       	mul	r23, r24
     d6c:	f0 01       	movw	r30, r0
     d6e:	11 24       	eor	r1, r1
     d70:	e4 5c       	subi	r30, 0xC4	; 196
     d72:	fe 4f       	sbci	r31, 0xFE	; 254
     d74:	60 85       	ldd	r22, Z+8	; 0x08
     d76:	61 ff       	sbrs	r22, 1
     d78:	b9 c1       	rjmp	.+882    	; 0x0x10ec
     d7a:	20 81       	ld	r18, Z
     d7c:	31 81       	ldd	r19, Z+1	; 0x01
     d7e:	42 81       	ldd	r20, Z+2	; 0x02
     d80:	53 81       	ldd	r21, Z+3	; 0x03
     d82:	e4 80       	ldd	r14, Z+4	; 0x04
     d84:	f5 80       	ldd	r15, Z+5	; 0x05
     d86:	06 81       	ldd	r16, Z+6	; 0x06
     d88:	17 81       	ldd	r17, Z+7	; 0x07
     d8a:	8b a1       	ldd	r24, Y+35	; 0x23
     d8c:	9c a1       	ldd	r25, Y+36	; 0x24
     d8e:	ad a1       	ldd	r26, Y+37	; 0x25
     d90:	be a1       	ldd	r27, Y+38	; 0x26
     d92:	82 1b       	sub	r24, r18
     d94:	93 0b       	sbc	r25, r19
     d96:	a4 0b       	sbc	r26, r20
     d98:	b5 0b       	sbc	r27, r21
     d9a:	8e 15       	cp	r24, r14
     d9c:	9f 05       	cpc	r25, r15
     d9e:	a0 07       	cpc	r26, r16
     da0:	b1 07       	cpc	r27, r17
     da2:	08 f4       	brcc	.+2      	; 0x0xda6
     da4:	a3 c1       	rjmp	.+838    	; 0x0x10ec
     da6:	60 ff       	sbrs	r22, 0
     da8:	03 c0       	rjmp	.+6      	; 0x0xdb0
     daa:	6d 7f       	andi	r22, 0xFD	; 253
     dac:	60 87       	std	Z+8, r22	; 0x08
     dae:	08 c0       	rjmp	.+16     	; 0x0xdc0
     db0:	2e 0d       	add	r18, r14
     db2:	3f 1d       	adc	r19, r15
     db4:	40 1f       	adc	r20, r16
     db6:	51 1f       	adc	r21, r17
     db8:	20 83       	st	Z, r18
     dba:	31 83       	std	Z+1, r19	; 0x01
     dbc:	42 83       	std	Z+2, r20	; 0x02
     dbe:	53 83       	std	Z+3, r21	; 0x03
     dc0:	77 23       	and	r23, r23
     dc2:	21 f0       	breq	.+8      	; 0x0xdcc
     dc4:	71 30       	cpi	r23, 0x01	; 1
     dc6:	09 f0       	breq	.+2      	; 0x0xdca
     dc8:	91 c1       	rjmp	.+802    	; 0x0x10ec
     dca:	5c c1       	rjmp	.+696    	; 0x0x1084
     dcc:	80 91 0c 01 	lds	r24, 0x010C
     dd0:	88 23       	and	r24, r24
     dd2:	11 f0       	breq	.+4      	; 0x0xdd8
     dd4:	0c 94 52 16 	jmp	0x2ca4	; 0x0x2ca4
     dd8:	40 e1       	ldi	r20, 0x10	; 16
     dda:	51 e0       	ldi	r21, 0x01	; 1
     ddc:	80 91 14 01 	lds	r24, 0x0114
     de0:	80 93 04 00 	sts	0x0004, r24
     de4:	84 ec       	ldi	r24, 0xC4	; 196
     de6:	80 93 1a 01 	sts	0x011A, r24
     dea:	87 e0       	ldi	r24, 0x07	; 7
     dec:	80 93 19 01 	sts	0x0119, r24
     df0:	81 ea       	ldi	r24, 0xA1	; 161
     df2:	80 93 18 01 	sts	0x0118, r24
     df6:	83 ef       	ldi	r24, 0xF3	; 243
     df8:	80 93 17 01 	sts	0x0117, r24
     dfc:	8f ef       	ldi	r24, 0xFF	; 255
     dfe:	80 93 11 01 	sts	0x0111, r24
     e02:	80 93 10 01 	sts	0x0110, r24
     e06:	23 e9       	ldi	r18, 0x93	; 147
     e08:	20 93 16 01 	sts	0x0116, r18
     e0c:	80 91 50 01 	lds	r24, 0x0150
     e10:	90 91 51 01 	lds	r25, 0x0151
     e14:	89 2b       	or	r24, r25
     e16:	11 f0       	breq	.+4      	; 0x0xe1c
     e18:	0c 94 52 16 	jmp	0x2ca4	; 0x0x2ca4
     e1c:	50 93 51 01 	sts	0x0151, r21
     e20:	40 93 50 01 	sts	0x0150, r20
     e24:	64 e0       	ldi	r22, 0x04	; 4
     e26:	60 93 14 01 	sts	0x0114, r22
     e2a:	80 91 0a 01 	lds	r24, 0x010A
     e2e:	88 23       	and	r24, r24
     e30:	09 f4       	brne	.+2      	; 0x0xe34
     e32:	f7 c0       	rjmp	.+494    	; 0x0x1022
     e34:	10 92 0a 01 	sts	0x010A, r1
     e38:	8f ef       	ldi	r24, 0xFF	; 255
     e3a:	9f ef       	ldi	r25, 0xFF	; 255
     e3c:	80 93 11 01 	sts	0x0111, r24
     e40:	8f ef       	ldi	r24, 0xFF	; 255
     e42:	90 e0       	ldi	r25, 0x00	; 0
     e44:	80 93 10 01 	sts	0x0110, r24
     e48:	2f b7       	in	r18, 0x3f	; 63
     e4a:	f8 94       	cli
     e4c:	33 27       	eor	r19, r19
     e4e:	80 91 08 01 	lds	r24, 0x0108
     e52:	90 91 09 01 	lds	r25, 0x0109
     e56:	2f bf       	out	0x3f, r18	; 63
     e58:	80 93 13 01 	sts	0x0113, r24
     e5c:	89 2f       	mov	r24, r25
     e5e:	99 27       	eor	r25, r25
     e60:	80 93 12 01 	sts	0x0112, r24
     e64:	82 e2       	ldi	r24, 0x22	; 34
     e66:	80 93 15 01 	sts	0x0115, r24
     e6a:	8f b7       	in	r24, 0x3f	; 63
     e6c:	f8 94       	cli
     e6e:	28 2f       	mov	r18, r24
     e70:	33 27       	eor	r19, r19
     e72:	90 91 dd 01 	lds	r25, 0x01DD
     e76:	91 fd       	sbrc	r25, 1
     e78:	04 c0       	rjmp	.+8      	; 0x0xe82
     e7a:	80 91 91 01 	lds	r24, 0x0191
     e7e:	88 23       	and	r24, r24
     e80:	51 f4       	brne	.+20     	; 0x0xe96
     e82:	2f bf       	out	0x3f, r18	; 63
     e84:	81 e0       	ldi	r24, 0x01	; 1
     e86:	80 93 0a 01 	sts	0x010A, r24
     e8a:	10 92 51 01 	sts	0x0151, r1
     e8e:	10 92 50 01 	sts	0x0150, r1
     e92:	0c 94 52 16 	jmp	0x2ca4	; 0x0x2ca4
     e96:	92 60       	ori	r25, 0x02	; 2
     e98:	90 93 dd 01 	sts	0x01DD, r25
     e9c:	60 93 14 01 	sts	0x0114, r22
     ea0:	50 93 5a 01 	sts	0x015A, r21
     ea4:	40 93 59 01 	sts	0x0159, r20
     ea8:	2f bf       	out	0x3f, r18	; 63
     eaa:	2f b7       	in	r18, 0x3f	; 63
     eac:	2a a3       	std	Y+34, r18	; 0x22
     eae:	f8 94       	cli
     eb0:	80 91 94 01 	lds	r24, 0x0194
     eb4:	82 60       	ori	r24, 0x02	; 2
     eb6:	80 93 94 01 	sts	0x0194, r24
     eba:	20 91 0d 01 	lds	r18, 0x010D
     ebe:	24 30       	cpi	r18, 0x04	; 4
     ec0:	f1 f4       	brne	.+60     	; 0x0xefe
     ec2:	9f b7       	in	r25, 0x3f	; 63
     ec4:	f8 94       	cli
     ec6:	80 91 cf 01 	lds	r24, 0x01CF
     eca:	8f 3f       	cpi	r24, 0xFF	; 255
     ecc:	a9 f4       	brne	.+42     	; 0x0xef8
     ece:	80 91 d9 01 	lds	r24, 0x01D9
     ed2:	84 30       	cpi	r24, 0x04	; 4
     ed4:	11 f0       	breq	.+4      	; 0x0xeda
     ed6:	0c 94 72 15 	jmp	0x2ae4	; 0x0x2ae4
     eda:	0e c0       	rjmp	.+28     	; 0x0xef8
     edc:	84 e0       	ldi	r24, 0x04	; 4
     ede:	80 93 ca 01 	sts	0x01CA, r24
     ee2:	80 93 d9 01 	sts	0x01D9, r24
     ee6:	08 c0       	rjmp	.+16     	; 0x0xef8
     ee8:	e0 91 d9 01 	lds	r30, 0x01D9
     eec:	ff 27       	eor	r31, r31
     eee:	e5 53       	subi	r30, 0x35	; 53
     ef0:	fe 4f       	sbci	r31, 0xFE	; 254
     ef2:	20 83       	st	Z, r18
     ef4:	20 93 d9 01 	sts	0x01D9, r18
     ef8:	89 2f       	mov	r24, r25
     efa:	99 27       	eor	r25, r25
     efc:	8f bf       	out	0x3f, r24	; 63
     efe:	80 91 94 01 	lds	r24, 0x0194
     f02:	80 fd       	sbrc	r24, 0
     f04:	50 c0       	rjmp	.+160    	; 0x0xfa6
     f06:	20 90 87 01 	lds	r2, 0x0187
     f0a:	30 90 88 01 	lds	r3, 0x0188
     f0e:	40 90 89 01 	lds	r4, 0x0189
     f12:	50 90 8a 01 	lds	r5, 0x018A
     f16:	66 24       	eor	r6, r6
     f18:	77 24       	eor	r7, r7
     f1a:	88 24       	eor	r8, r8
     f1c:	ee e4       	ldi	r30, 0x4E	; 78
     f1e:	ae 2e       	mov	r10, r30
     f20:	73 e8       	ldi	r23, 0x83	; 131
     f22:	b7 2e       	mov	r11, r23
     f24:	cc 24       	eor	r12, r12
     f26:	dd 24       	eor	r13, r13
     f28:	ee 24       	eor	r14, r14
     f2a:	ff 24       	eor	r15, r15
     f2c:	00 e0       	ldi	r16, 0x00	; 0
     f2e:	10 e0       	ldi	r17, 0x00	; 0
     f30:	22 2d       	mov	r18, r2
     f32:	33 2d       	mov	r19, r3
     f34:	44 2d       	mov	r20, r4
     f36:	55 2d       	mov	r21, r5
     f38:	66 2d       	mov	r22, r6
     f3a:	77 2d       	mov	r23, r7
     f3c:	88 2d       	mov	r24, r8
     f3e:	90 e0       	ldi	r25, 0x00	; 0
     f40:	0e 94 c1 35 	call	0x6b82	; 0x0x6b82
     f44:	2f a3       	std	Y+39, r18	; 0x27
     f46:	38 a7       	std	Y+40, r19	; 0x28
     f48:	49 a7       	std	Y+41, r20	; 0x29
     f4a:	5a a7       	std	Y+42, r21	; 0x2a
     f4c:	6b a7       	std	Y+43, r22	; 0x2b
     f4e:	7c a7       	std	Y+44, r23	; 0x2c
     f50:	8d a7       	std	Y+45, r24	; 0x2d
     f52:	9e a7       	std	Y+46, r25	; 0x2e
     f54:	82 2e       	mov	r8, r18
     f56:	93 2e       	mov	r9, r19
     f58:	a4 2e       	mov	r10, r20
     f5a:	b5 2e       	mov	r11, r21
     f5c:	24 01       	movw	r4, r8
     f5e:	35 01       	movw	r6, r10
     f60:	00 e2       	ldi	r16, 0x20	; 32
     f62:	0e 94 bf 36 	call	0x6d7e	; 0x0x6d7e
     f66:	a2 2e       	mov	r10, r18
     f68:	b3 2e       	mov	r11, r19
     f6a:	c4 2e       	mov	r12, r20
     f6c:	d5 2e       	mov	r13, r21
     f6e:	d3 01       	movw	r26, r6
     f70:	c2 01       	movw	r24, r4
     f72:	b6 95       	lsr	r27
     f74:	a7 95       	ror	r26
     f76:	97 95       	ror	r25
     f78:	87 95       	ror	r24
     f7a:	8a 0d       	add	r24, r10
     f7c:	9b 1d       	adc	r25, r11
     f7e:	ac 1d       	adc	r26, r12
     f80:	bd 1d       	adc	r27, r13
     f82:	b7 ff       	sbrs	r27, 7
     f84:	04 c0       	rjmp	.+8      	; 0x0xf8e
     f86:	bf 77       	andi	r27, 0x7F	; 127
     f88:	01 96       	adiw	r24, 0x01	; 1
     f8a:	a1 1d       	adc	r26, r1
     f8c:	b1 1d       	adc	r27, r1
     f8e:	80 93 87 01 	sts	0x0187, r24
     f92:	90 93 88 01 	sts	0x0188, r25
     f96:	a0 93 89 01 	sts	0x0189, r26
     f9a:	b0 93 8a 01 	sts	0x018A, r27
     f9e:	8f 71       	andi	r24, 0x1F	; 31
     fa0:	90 70       	andi	r25, 0x00	; 0
     fa2:	01 96       	adiw	r24, 0x01	; 1
     fa4:	02 c0       	rjmp	.+4      	; 0x0xfaa
     fa6:	81 e0       	ldi	r24, 0x01	; 1
     fa8:	90 e0       	ldi	r25, 0x00	; 0
     faa:	90 93 b9 01 	sts	0x01B9, r25
     fae:	80 93 b8 01 	sts	0x01B8, r24
     fb2:	80 91 35 01 	lds	r24, 0x0135
     fb6:	99 27       	eor	r25, r25
     fb8:	78 2f       	mov	r23, r24
     fba:	66 27       	eor	r22, r22
     fbc:	80 91 36 01 	lds	r24, 0x0136
     fc0:	99 27       	eor	r25, r25
     fc2:	68 2b       	or	r22, r24
     fc4:	79 2b       	or	r23, r25
     fc6:	77 fd       	sbrc	r23, 7
     fc8:	05 c0       	rjmp	.+10     	; 0x0xfd4
     fca:	60 91 53 01 	lds	r22, 0x0153
     fce:	70 91 54 01 	lds	r23, 0x0154
     fd2:	02 c0       	rjmp	.+4      	; 0x0xfd8
     fd4:	60 95       	com	r22
     fd6:	70 95       	com	r23
     fd8:	e5 e3       	ldi	r30, 0x35	; 53
     fda:	f1 e0       	ldi	r31, 0x01	; 1
     fdc:	11 82       	std	Z+1, r1	; 0x01
     fde:	10 92 35 01 	sts	0x0135, r1
     fe2:	61 15       	cp	r22, r1
     fe4:	71 05       	cpc	r23, r1
     fe6:	29 f4       	brne	.+10     	; 0x0xff2
     fe8:	66 e0       	ldi	r22, 0x06	; 6
     fea:	70 e0       	ldi	r23, 0x00	; 0
     fec:	80 e0       	ldi	r24, 0x00	; 0
     fee:	90 e0       	ldi	r25, 0x00	; 0
     ff0:	10 c0       	rjmp	.+32     	; 0x0x1012
     ff2:	88 27       	eor	r24, r24
     ff4:	99 27       	eor	r25, r25
     ff6:	26 e6       	ldi	r18, 0x66	; 102
     ff8:	32 e0       	ldi	r19, 0x02	; 2
     ffa:	40 e0       	ldi	r20, 0x00	; 0
     ffc:	50 e0       	ldi	r21, 0x00	; 0
     ffe:	0e 94 cc 37 	call	0x6f98	; 0x0x6f98
    1002:	67 2f       	mov	r22, r23
    1004:	78 2f       	mov	r23, r24
    1006:	89 2f       	mov	r24, r25
    1008:	99 27       	eor	r25, r25
    100a:	6a 5e       	subi	r22, 0xEA	; 234
    100c:	7f 4f       	sbci	r23, 0xFF	; 255
    100e:	8f 4f       	sbci	r24, 0xFF	; 255
    1010:	9f 4f       	sbci	r25, 0xFF	; 255
    1012:	70 93 b0 01 	sts	0x01B0, r23
    1016:	60 93 af 01 	sts	0x01AF, r22
    101a:	3a a1       	ldd	r19, Y+34	; 0x22
    101c:	83 2f       	mov	r24, r19
    101e:	99 27       	eor	r25, r25
    1020:	8f bf       	out	0x3f, r24	; 63
    1022:	81 e0       	ldi	r24, 0x01	; 1
    1024:	80 93 0c 01 	sts	0x010C, r24
    1028:	6f b7       	in	r22, 0x3f	; 63
    102a:	f8 94       	cli
    102c:	82 b7       	in	r24, 0x32	; 50
    102e:	20 91 b4 01 	lds	r18, 0x01B4
    1032:	30 91 b5 01 	lds	r19, 0x01B5
    1036:	40 91 b6 01 	lds	r20, 0x01B6
    103a:	50 91 b7 01 	lds	r21, 0x01B7
    103e:	06 b6       	in	r0, 0x36	; 54
    1040:	01 fe       	sbrs	r0, 1
    1042:	0f c0       	rjmp	.+30     	; 0x0x1062
    1044:	81 b7       	in	r24, 0x31	; 49
    1046:	92 b7       	in	r25, 0x32	; 50
    1048:	28 0f       	add	r18, r24
    104a:	31 1d       	adc	r19, r1
    104c:	41 1d       	adc	r20, r1
    104e:	51 1d       	adc	r21, r1
    1050:	2f 5f       	subi	r18, 0xFF	; 255
    1052:	3f 4f       	sbci	r19, 0xFF	; 255
    1054:	4f 4f       	sbci	r20, 0xFF	; 255
    1056:	5f 4f       	sbci	r21, 0xFF	; 255
    1058:	29 0f       	add	r18, r25
    105a:	31 1d       	adc	r19, r1
    105c:	41 1d       	adc	r20, r1
    105e:	51 1d       	adc	r21, r1
    1060:	04 c0       	rjmp	.+8      	; 0x0x106a
    1062:	28 0f       	add	r18, r24
    1064:	31 1d       	adc	r19, r1
    1066:	41 1d       	adc	r20, r1
    1068:	51 1d       	adc	r21, r1
    106a:	86 2f       	mov	r24, r22
    106c:	99 27       	eor	r25, r25
    106e:	8f bf       	out	0x3f, r24	; 63
    1070:	20 93 c0 01 	sts	0x01C0, r18
    1074:	30 93 c1 01 	sts	0x01C1, r19
    1078:	40 93 c2 01 	sts	0x01C2, r20
    107c:	50 93 c3 01 	sts	0x01C3, r21
    1080:	0c 94 52 16 	jmp	0x2ca4	; 0x0x2ca4
    1084:	8f b7       	in	r24, 0x3f	; 63
    1086:	f8 94       	cli
    1088:	08 2f       	mov	r16, r24
    108a:	11 27       	eor	r17, r17
    108c:	f0 2e       	mov	r15, r16
    108e:	80 91 0d 01 	lds	r24, 0x010D
    1092:	84 30       	cpi	r24, 0x04	; 4
    1094:	b9 f0       	breq	.+46     	; 0x0x10c4
    1096:	85 30       	cpi	r24, 0x05	; 5
    1098:	f9 f0       	breq	.+62     	; 0x0x10d8
    109a:	81 30       	cpi	r24, 0x01	; 1
    109c:	19 f5       	brne	.+70     	; 0x0x10e4
    109e:	90 e0       	ldi	r25, 0x00	; 0
    10a0:	80 91 91 01 	lds	r24, 0x0191
    10a4:	83 30       	cpi	r24, 0x03	; 3
    10a6:	09 f4       	brne	.+2      	; 0x0x10aa
    10a8:	91 e0       	ldi	r25, 0x01	; 1
    10aa:	99 23       	and	r25, r25
    10ac:	d9 f4       	brne	.+54     	; 0x0x10e4
    10ae:	80 91 04 01 	lds	r24, 0x0104
    10b2:	84 30       	cpi	r24, 0x04	; 4
    10b4:	19 f0       	breq	.+6      	; 0x0x10bc
    10b6:	85 e0       	ldi	r24, 0x05	; 5
    10b8:	80 93 04 01 	sts	0x0104, r24
    10bc:	81 e0       	ldi	r24, 0x01	; 1
    10be:	0e 94 f8 03 	call	0x7f0	; 0x0x7f0
    10c2:	10 c0       	rjmp	.+32     	; 0x0x10e4
    10c4:	85 e0       	ldi	r24, 0x05	; 5
    10c6:	80 93 0d 01 	sts	0x010D, r24
    10ca:	10 92 d8 01 	sts	0x01D8, r1
    10ce:	69 e3       	ldi	r22, 0x39	; 57
    10d0:	80 e0       	ldi	r24, 0x00	; 0
    10d2:	0e 94 bd 01 	call	0x37a	; 0x0x37a
    10d6:	06 c0       	rjmp	.+12     	; 0x0x10e4
    10d8:	0e 94 80 05 	call	0xb00	; 0x0xb00
    10dc:	83 e0       	ldi	r24, 0x03	; 3
    10de:	0e 94 f8 03 	call	0x7f0	; 0x0x7f0
    10e2:	61 c3       	rjmp	.+1730   	; 0x0x17a6
    10e4:	0e 94 b4 02 	call	0x568	; 0x0x568
    10e8:	ff be       	out	0x3f, r15	; 63
    10ea:	11 c7       	rjmp	.+3618   	; 0x0x1f0e
    10ec:	7f 5f       	subi	r23, 0xFF	; 255
    10ee:	72 30       	cpi	r23, 0x02	; 2
    10f0:	08 f4       	brcc	.+2      	; 0x0x10f4
    10f2:	3a ce       	rjmp	.-908    	; 0x0xd68
    10f4:	0c c7       	rjmp	.+3608   	; 0x0x1f0e
    10f6:	6f b7       	in	r22, 0x3f	; 63
    10f8:	f8 94       	cli
    10fa:	82 b7       	in	r24, 0x32	; 50
    10fc:	20 91 b4 01 	lds	r18, 0x01B4
    1100:	30 91 b5 01 	lds	r19, 0x01B5
    1104:	40 91 b6 01 	lds	r20, 0x01B6
    1108:	50 91 b7 01 	lds	r21, 0x01B7
    110c:	06 b6       	in	r0, 0x36	; 54
    110e:	01 fe       	sbrs	r0, 1
    1110:	0f c0       	rjmp	.+30     	; 0x0x1130
    1112:	81 b7       	in	r24, 0x31	; 49
    1114:	92 b7       	in	r25, 0x32	; 50
    1116:	28 0f       	add	r18, r24
    1118:	31 1d       	adc	r19, r1
    111a:	41 1d       	adc	r20, r1
    111c:	51 1d       	adc	r21, r1
    111e:	2f 5f       	subi	r18, 0xFF	; 255
    1120:	3f 4f       	sbci	r19, 0xFF	; 255
    1122:	4f 4f       	sbci	r20, 0xFF	; 255
    1124:	5f 4f       	sbci	r21, 0xFF	; 255
    1126:	29 0f       	add	r18, r25
    1128:	31 1d       	adc	r19, r1
    112a:	41 1d       	adc	r20, r1
    112c:	51 1d       	adc	r21, r1
    112e:	04 c0       	rjmp	.+8      	; 0x0x1138
    1130:	28 0f       	add	r18, r24
    1132:	31 1d       	adc	r19, r1
    1134:	41 1d       	adc	r20, r1
    1136:	51 1d       	adc	r21, r1
    1138:	2d 8f       	std	Y+29, r18	; 0x1d
    113a:	3e 8f       	std	Y+30, r19	; 0x1e
    113c:	4f 8f       	std	Y+31, r20	; 0x1f
    113e:	58 a3       	std	Y+32, r21	; 0x20
    1140:	86 2f       	mov	r24, r22
    1142:	99 27       	eor	r25, r25
    1144:	8f bf       	out	0x3f, r24	; 63
    1146:	8f b7       	in	r24, 0x3f	; 63
    1148:	f8 94       	cli
    114a:	99 27       	eor	r25, r25
    114c:	10 92 bb 01 	sts	0x01BB, r1
    1150:	8f bf       	out	0x3f, r24	; 63
    1152:	80 91 44 01 	lds	r24, 0x0144
    1156:	81 ff       	sbrs	r24, 1
    1158:	27 c0       	rjmp	.+78     	; 0x0x11a8
    115a:	80 91 3c 01 	lds	r24, 0x013C
    115e:	90 91 3d 01 	lds	r25, 0x013D
    1162:	a0 91 3e 01 	lds	r26, 0x013E
    1166:	b0 91 3f 01 	lds	r27, 0x013F
    116a:	2d 8d       	ldd	r18, Y+29	; 0x1d
    116c:	3e 8d       	ldd	r19, Y+30	; 0x1e
    116e:	4f 8d       	ldd	r20, Y+31	; 0x1f
    1170:	58 a1       	ldd	r21, Y+32	; 0x20
    1172:	28 1b       	sub	r18, r24
    1174:	39 0b       	sbc	r19, r25
    1176:	4a 0b       	sbc	r20, r26
    1178:	5b 0b       	sbc	r21, r27
    117a:	e0 90 40 01 	lds	r14, 0x0140
    117e:	f0 90 41 01 	lds	r15, 0x0141
    1182:	00 91 42 01 	lds	r16, 0x0142
    1186:	10 91 43 01 	lds	r17, 0x0143
    118a:	e2 1a       	sub	r14, r18
    118c:	f3 0a       	sbc	r15, r19
    118e:	04 0b       	sbc	r16, r20
    1190:	15 0b       	sbc	r17, r21
    1192:	3f ef       	ldi	r19, 0xFF	; 255
    1194:	e3 16       	cp	r14, r19
    1196:	3f ef       	ldi	r19, 0xFF	; 255
    1198:	f3 06       	cpc	r15, r19
    119a:	3f ef       	ldi	r19, 0xFF	; 255
    119c:	03 07       	cpc	r16, r19
    119e:	3f e7       	ldi	r19, 0x7F	; 127
    11a0:	13 07       	cpc	r17, r19
    11a2:	11 f0       	breq	.+4      	; 0x0x11a8
    11a4:	61 e0       	ldi	r22, 0x01	; 1
    11a6:	09 c0       	rjmp	.+18     	; 0x0x11ba
    11a8:	3f ef       	ldi	r19, 0xFF	; 255
    11aa:	e3 2e       	mov	r14, r19
    11ac:	3f ef       	ldi	r19, 0xFF	; 255
    11ae:	f3 2e       	mov	r15, r19
    11b0:	3f ef       	ldi	r19, 0xFF	; 255
    11b2:	03 2f       	mov	r16, r19
    11b4:	3f e7       	ldi	r19, 0x7F	; 127
    11b6:	13 2f       	mov	r17, r19
    11b8:	60 e0       	ldi	r22, 0x00	; 0
    11ba:	80 91 4d 01 	lds	r24, 0x014D
    11be:	81 ff       	sbrs	r24, 1
    11c0:	26 c0       	rjmp	.+76     	; 0x0x120e
    11c2:	80 91 45 01 	lds	r24, 0x0145
    11c6:	90 91 46 01 	lds	r25, 0x0146
    11ca:	a0 91 47 01 	lds	r26, 0x0147
    11ce:	b0 91 48 01 	lds	r27, 0x0148
    11d2:	2d 8d       	ldd	r18, Y+29	; 0x1d
    11d4:	3e 8d       	ldd	r19, Y+30	; 0x1e
    11d6:	4f 8d       	ldd	r20, Y+31	; 0x1f
    11d8:	58 a1       	ldd	r21, Y+32	; 0x20
    11da:	28 1b       	sub	r18, r24
    11dc:	39 0b       	sbc	r19, r25
    11de:	4a 0b       	sbc	r20, r26
    11e0:	5b 0b       	sbc	r21, r27
    11e2:	da 01       	movw	r26, r20
    11e4:	c9 01       	movw	r24, r18
    11e6:	20 91 49 01 	lds	r18, 0x0149
    11ea:	30 91 4a 01 	lds	r19, 0x014A
    11ee:	40 91 4b 01 	lds	r20, 0x014B
    11f2:	50 91 4c 01 	lds	r21, 0x014C
    11f6:	28 1b       	sub	r18, r24
    11f8:	39 0b       	sbc	r19, r25
    11fa:	4a 0b       	sbc	r20, r26
    11fc:	5b 0b       	sbc	r21, r27
    11fe:	2e 15       	cp	r18, r14
    1200:	3f 05       	cpc	r19, r15
    1202:	40 07       	cpc	r20, r16
    1204:	51 07       	cpc	r21, r17
    1206:	1c f4       	brge	.+6      	; 0x0x120e
    1208:	79 01       	movw	r14, r18
    120a:	8a 01       	movw	r16, r20
    120c:	04 c0       	rjmp	.+8      	; 0x0x1216
    120e:	66 23       	and	r22, r22
    1210:	11 f4       	brne	.+4      	; 0x0x1216
    1212:	0c 94 59 16 	jmp	0x2cb2	; 0x0x2cb2
    1216:	1e 14       	cp	r1, r14
    1218:	1f 04       	cpc	r1, r15
    121a:	10 06       	cpc	r1, r16
    121c:	11 06       	cpc	r1, r17
    121e:	0c f4       	brge	.+2      	; 0x0x1222
    1220:	0c c4       	rjmp	.+2072   	; 0x0x1a3a
    1222:	70 e0       	ldi	r23, 0x00	; 0
    1224:	89 e0       	ldi	r24, 0x09	; 9
    1226:	78 9f       	mul	r23, r24
    1228:	f0 01       	movw	r30, r0
    122a:	11 24       	eor	r1, r1
    122c:	e4 5c       	subi	r30, 0xC4	; 196
    122e:	fe 4f       	sbci	r31, 0xFE	; 254
    1230:	60 85       	ldd	r22, Z+8	; 0x08
    1232:	61 ff       	sbrs	r22, 1
    1234:	fd c3       	rjmp	.+2042   	; 0x0x1a30
    1236:	20 81       	ld	r18, Z
    1238:	31 81       	ldd	r19, Z+1	; 0x01
    123a:	42 81       	ldd	r20, Z+2	; 0x02
    123c:	53 81       	ldd	r21, Z+3	; 0x03
    123e:	e4 80       	ldd	r14, Z+4	; 0x04
    1240:	f5 80       	ldd	r15, Z+5	; 0x05
    1242:	06 81       	ldd	r16, Z+6	; 0x06
    1244:	17 81       	ldd	r17, Z+7	; 0x07
    1246:	8d 8d       	ldd	r24, Y+29	; 0x1d
    1248:	9e 8d       	ldd	r25, Y+30	; 0x1e
    124a:	af 8d       	ldd	r26, Y+31	; 0x1f
    124c:	b8 a1       	ldd	r27, Y+32	; 0x20
    124e:	82 1b       	sub	r24, r18
    1250:	93 0b       	sbc	r25, r19
    1252:	a4 0b       	sbc	r26, r20
    1254:	b5 0b       	sbc	r27, r21
    1256:	8e 15       	cp	r24, r14
    1258:	9f 05       	cpc	r25, r15
    125a:	a0 07       	cpc	r26, r16
    125c:	b1 07       	cpc	r27, r17
    125e:	08 f4       	brcc	.+2      	; 0x0x1262
    1260:	e7 c3       	rjmp	.+1998   	; 0x0x1a30
    1262:	60 ff       	sbrs	r22, 0
    1264:	03 c0       	rjmp	.+6      	; 0x0x126c
    1266:	6d 7f       	andi	r22, 0xFD	; 253
    1268:	60 87       	std	Z+8, r22	; 0x08
    126a:	08 c0       	rjmp	.+16     	; 0x0x127c
    126c:	2e 0d       	add	r18, r14
    126e:	3f 1d       	adc	r19, r15
    1270:	40 1f       	adc	r20, r16
    1272:	51 1f       	adc	r21, r17
    1274:	20 83       	st	Z, r18
    1276:	31 83       	std	Z+1, r19	; 0x01
    1278:	42 83       	std	Z+2, r20	; 0x02
    127a:	53 83       	std	Z+3, r21	; 0x03
    127c:	77 23       	and	r23, r23
    127e:	21 f0       	breq	.+8      	; 0x0x1288
    1280:	71 30       	cpi	r23, 0x01	; 1
    1282:	09 f0       	breq	.+2      	; 0x0x1286
    1284:	d5 c3       	rjmp	.+1962   	; 0x0x1a30
    1286:	5c c1       	rjmp	.+696    	; 0x0x1540
    1288:	80 91 0c 01 	lds	r24, 0x010C
    128c:	88 23       	and	r24, r24
    128e:	11 f0       	breq	.+4      	; 0x0x1294
    1290:	0c 94 55 16 	jmp	0x2caa	; 0x0x2caa
    1294:	40 e1       	ldi	r20, 0x10	; 16
    1296:	51 e0       	ldi	r21, 0x01	; 1
    1298:	80 91 14 01 	lds	r24, 0x0114
    129c:	80 93 04 00 	sts	0x0004, r24
    12a0:	84 ec       	ldi	r24, 0xC4	; 196
    12a2:	80 93 1a 01 	sts	0x011A, r24
    12a6:	87 e0       	ldi	r24, 0x07	; 7
    12a8:	80 93 19 01 	sts	0x0119, r24
    12ac:	81 ea       	ldi	r24, 0xA1	; 161
    12ae:	80 93 18 01 	sts	0x0118, r24
    12b2:	83 ef       	ldi	r24, 0xF3	; 243
    12b4:	80 93 17 01 	sts	0x0117, r24
    12b8:	8f ef       	ldi	r24, 0xFF	; 255
    12ba:	80 93 11 01 	sts	0x0111, r24
    12be:	80 93 10 01 	sts	0x0110, r24
    12c2:	23 e9       	ldi	r18, 0x93	; 147
    12c4:	20 93 16 01 	sts	0x0116, r18
    12c8:	80 91 50 01 	lds	r24, 0x0150
    12cc:	90 91 51 01 	lds	r25, 0x0151
    12d0:	89 2b       	or	r24, r25
    12d2:	11 f0       	breq	.+4      	; 0x0x12d8
    12d4:	0c 94 55 16 	jmp	0x2caa	; 0x0x2caa
    12d8:	50 93 51 01 	sts	0x0151, r21
    12dc:	40 93 50 01 	sts	0x0150, r20
    12e0:	64 e0       	ldi	r22, 0x04	; 4
    12e2:	60 93 14 01 	sts	0x0114, r22
    12e6:	80 91 0a 01 	lds	r24, 0x010A
    12ea:	88 23       	and	r24, r24
    12ec:	09 f4       	brne	.+2      	; 0x0x12f0
    12ee:	f7 c0       	rjmp	.+494    	; 0x0x14de
    12f0:	10 92 0a 01 	sts	0x010A, r1
    12f4:	8f ef       	ldi	r24, 0xFF	; 255
    12f6:	9f ef       	ldi	r25, 0xFF	; 255
    12f8:	80 93 11 01 	sts	0x0111, r24
    12fc:	8f ef       	ldi	r24, 0xFF	; 255
    12fe:	90 e0       	ldi	r25, 0x00	; 0
    1300:	80 93 10 01 	sts	0x0110, r24
    1304:	2f b7       	in	r18, 0x3f	; 63
    1306:	f8 94       	cli
    1308:	33 27       	eor	r19, r19
    130a:	80 91 08 01 	lds	r24, 0x0108
    130e:	90 91 09 01 	lds	r25, 0x0109
    1312:	2f bf       	out	0x3f, r18	; 63
    1314:	80 93 13 01 	sts	0x0113, r24
    1318:	89 2f       	mov	r24, r25
    131a:	99 27       	eor	r25, r25
    131c:	80 93 12 01 	sts	0x0112, r24
    1320:	82 e2       	ldi	r24, 0x22	; 34
    1322:	80 93 15 01 	sts	0x0115, r24
    1326:	8f b7       	in	r24, 0x3f	; 63
    1328:	f8 94       	cli
    132a:	28 2f       	mov	r18, r24
    132c:	33 27       	eor	r19, r19
    132e:	90 91 dd 01 	lds	r25, 0x01DD
    1332:	91 fd       	sbrc	r25, 1
    1334:	04 c0       	rjmp	.+8      	; 0x0x133e
    1336:	80 91 91 01 	lds	r24, 0x0191
    133a:	88 23       	and	r24, r24
    133c:	51 f4       	brne	.+20     	; 0x0x1352
    133e:	2f bf       	out	0x3f, r18	; 63
    1340:	81 e0       	ldi	r24, 0x01	; 1
    1342:	80 93 0a 01 	sts	0x010A, r24
    1346:	10 92 51 01 	sts	0x0151, r1
    134a:	10 92 50 01 	sts	0x0150, r1
    134e:	0c 94 55 16 	jmp	0x2caa	; 0x0x2caa
    1352:	92 60       	ori	r25, 0x02	; 2
    1354:	90 93 dd 01 	sts	0x01DD, r25
    1358:	60 93 14 01 	sts	0x0114, r22
    135c:	50 93 5a 01 	sts	0x015A, r21
    1360:	40 93 59 01 	sts	0x0159, r20
    1364:	2f bf       	out	0x3f, r18	; 63
    1366:	3f b7       	in	r19, 0x3f	; 63
    1368:	39 a3       	std	Y+33, r19	; 0x21
    136a:	f8 94       	cli
    136c:	80 91 94 01 	lds	r24, 0x0194
    1370:	82 60       	ori	r24, 0x02	; 2
    1372:	80 93 94 01 	sts	0x0194, r24
    1376:	20 91 0d 01 	lds	r18, 0x010D
    137a:	24 30       	cpi	r18, 0x04	; 4
    137c:	f1 f4       	brne	.+60     	; 0x0x13ba
    137e:	9f b7       	in	r25, 0x3f	; 63
    1380:	f8 94       	cli
    1382:	80 91 cf 01 	lds	r24, 0x01CF
    1386:	8f 3f       	cpi	r24, 0xFF	; 255
    1388:	a9 f4       	brne	.+42     	; 0x0x13b4
    138a:	80 91 d9 01 	lds	r24, 0x01D9
    138e:	84 30       	cpi	r24, 0x04	; 4
    1390:	11 f0       	breq	.+4      	; 0x0x1396
    1392:	0c 94 7a 15 	jmp	0x2af4	; 0x0x2af4
    1396:	0e c0       	rjmp	.+28     	; 0x0x13b4
    1398:	84 e0       	ldi	r24, 0x04	; 4
    139a:	80 93 ca 01 	sts	0x01CA, r24
    139e:	80 93 d9 01 	sts	0x01D9, r24
    13a2:	08 c0       	rjmp	.+16     	; 0x0x13b4
    13a4:	e0 91 d9 01 	lds	r30, 0x01D9
    13a8:	ff 27       	eor	r31, r31
    13aa:	e5 53       	subi	r30, 0x35	; 53
    13ac:	fe 4f       	sbci	r31, 0xFE	; 254
    13ae:	20 83       	st	Z, r18
    13b0:	20 93 d9 01 	sts	0x01D9, r18
    13b4:	89 2f       	mov	r24, r25
    13b6:	99 27       	eor	r25, r25
    13b8:	8f bf       	out	0x3f, r24	; 63
    13ba:	80 91 94 01 	lds	r24, 0x0194
    13be:	80 fd       	sbrc	r24, 0
    13c0:	50 c0       	rjmp	.+160    	; 0x0x1462
    13c2:	20 90 87 01 	lds	r2, 0x0187
    13c6:	30 90 88 01 	lds	r3, 0x0188
    13ca:	40 90 89 01 	lds	r4, 0x0189
    13ce:	50 90 8a 01 	lds	r5, 0x018A
    13d2:	66 24       	eor	r6, r6
    13d4:	77 24       	eor	r7, r7
    13d6:	88 24       	eor	r8, r8
    13d8:	9e e4       	ldi	r25, 0x4E	; 78
    13da:	a9 2e       	mov	r10, r25
    13dc:	83 e8       	ldi	r24, 0x83	; 131
    13de:	b8 2e       	mov	r11, r24
    13e0:	cc 24       	eor	r12, r12
    13e2:	dd 24       	eor	r13, r13
    13e4:	ee 24       	eor	r14, r14
    13e6:	ff 24       	eor	r15, r15
    13e8:	00 e0       	ldi	r16, 0x00	; 0
    13ea:	10 e0       	ldi	r17, 0x00	; 0
    13ec:	22 2d       	mov	r18, r2
    13ee:	33 2d       	mov	r19, r3
    13f0:	44 2d       	mov	r20, r4
    13f2:	55 2d       	mov	r21, r5
    13f4:	66 2d       	mov	r22, r6
    13f6:	77 2d       	mov	r23, r7
    13f8:	88 2d       	mov	r24, r8
    13fa:	90 e0       	ldi	r25, 0x00	; 0
    13fc:	0e 94 c1 35 	call	0x6b82	; 0x0x6b82
    1400:	2f a7       	std	Y+47, r18	; 0x2f
    1402:	38 ab       	std	Y+48, r19	; 0x30
    1404:	49 ab       	std	Y+49, r20	; 0x31
    1406:	5a ab       	std	Y+50, r21	; 0x32
    1408:	6b ab       	std	Y+51, r22	; 0x33
    140a:	7c ab       	std	Y+52, r23	; 0x34
    140c:	8d ab       	std	Y+53, r24	; 0x35
    140e:	9e ab       	std	Y+54, r25	; 0x36
    1410:	82 2e       	mov	r8, r18
    1412:	93 2e       	mov	r9, r19
    1414:	a4 2e       	mov	r10, r20
    1416:	b5 2e       	mov	r11, r21
    1418:	24 01       	movw	r4, r8
    141a:	35 01       	movw	r6, r10
    141c:	00 e2       	ldi	r16, 0x20	; 32
    141e:	0e 94 bf 36 	call	0x6d7e	; 0x0x6d7e
    1422:	a2 2e       	mov	r10, r18
    1424:	b3 2e       	mov	r11, r19
    1426:	c4 2e       	mov	r12, r20
    1428:	d5 2e       	mov	r13, r21
    142a:	d3 01       	movw	r26, r6
    142c:	c2 01       	movw	r24, r4
    142e:	b6 95       	lsr	r27
    1430:	a7 95       	ror	r26
    1432:	97 95       	ror	r25
    1434:	87 95       	ror	r24
    1436:	8a 0d       	add	r24, r10
    1438:	9b 1d       	adc	r25, r11
    143a:	ac 1d       	adc	r26, r12
    143c:	bd 1d       	adc	r27, r13
    143e:	b7 ff       	sbrs	r27, 7
    1440:	04 c0       	rjmp	.+8      	; 0x0x144a
    1442:	bf 77       	andi	r27, 0x7F	; 127
    1444:	01 96       	adiw	r24, 0x01	; 1
    1446:	a1 1d       	adc	r26, r1
    1448:	b1 1d       	adc	r27, r1
    144a:	80 93 87 01 	sts	0x0187, r24
    144e:	90 93 88 01 	sts	0x0188, r25
    1452:	a0 93 89 01 	sts	0x0189, r26
    1456:	b0 93 8a 01 	sts	0x018A, r27
    145a:	8f 71       	andi	r24, 0x1F	; 31
    145c:	90 70       	andi	r25, 0x00	; 0
    145e:	01 96       	adiw	r24, 0x01	; 1
    1460:	02 c0       	rjmp	.+4      	; 0x0x1466
    1462:	81 e0       	ldi	r24, 0x01	; 1
    1464:	90 e0       	ldi	r25, 0x00	; 0
    1466:	90 93 b9 01 	sts	0x01B9, r25
    146a:	80 93 b8 01 	sts	0x01B8, r24
    146e:	80 91 35 01 	lds	r24, 0x0135
    1472:	99 27       	eor	r25, r25
    1474:	78 2f       	mov	r23, r24
    1476:	66 27       	eor	r22, r22
    1478:	80 91 36 01 	lds	r24, 0x0136
    147c:	99 27       	eor	r25, r25
    147e:	68 2b       	or	r22, r24
    1480:	79 2b       	or	r23, r25
    1482:	77 fd       	sbrc	r23, 7
    1484:	05 c0       	rjmp	.+10     	; 0x0x1490
    1486:	60 91 53 01 	lds	r22, 0x0153
    148a:	70 91 54 01 	lds	r23, 0x0154
    148e:	02 c0       	rjmp	.+4      	; 0x0x1494
    1490:	60 95       	com	r22
    1492:	70 95       	com	r23
    1494:	e5 e3       	ldi	r30, 0x35	; 53
    1496:	f1 e0       	ldi	r31, 0x01	; 1
    1498:	11 82       	std	Z+1, r1	; 0x01
    149a:	10 92 35 01 	sts	0x0135, r1
    149e:	61 15       	cp	r22, r1
    14a0:	71 05       	cpc	r23, r1
    14a2:	29 f4       	brne	.+10     	; 0x0x14ae
    14a4:	66 e0       	ldi	r22, 0x06	; 6
    14a6:	70 e0       	ldi	r23, 0x00	; 0
    14a8:	80 e0       	ldi	r24, 0x00	; 0
    14aa:	90 e0       	ldi	r25, 0x00	; 0
    14ac:	10 c0       	rjmp	.+32     	; 0x0x14ce
    14ae:	88 27       	eor	r24, r24
    14b0:	99 27       	eor	r25, r25
    14b2:	26 e6       	ldi	r18, 0x66	; 102
    14b4:	32 e0       	ldi	r19, 0x02	; 2
    14b6:	40 e0       	ldi	r20, 0x00	; 0
    14b8:	50 e0       	ldi	r21, 0x00	; 0
    14ba:	0e 94 cc 37 	call	0x6f98	; 0x0x6f98
    14be:	67 2f       	mov	r22, r23
    14c0:	78 2f       	mov	r23, r24
    14c2:	89 2f       	mov	r24, r25
    14c4:	99 27       	eor	r25, r25
    14c6:	6a 5e       	subi	r22, 0xEA	; 234
    14c8:	7f 4f       	sbci	r23, 0xFF	; 255
    14ca:	8f 4f       	sbci	r24, 0xFF	; 255
    14cc:	9f 4f       	sbci	r25, 0xFF	; 255
    14ce:	70 93 b0 01 	sts	0x01B0, r23
    14d2:	60 93 af 01 	sts	0x01AF, r22
    14d6:	49 a1       	ldd	r20, Y+33	; 0x21
    14d8:	84 2f       	mov	r24, r20
    14da:	99 27       	eor	r25, r25
    14dc:	8f bf       	out	0x3f, r24	; 63
    14de:	81 e0       	ldi	r24, 0x01	; 1
    14e0:	80 93 0c 01 	sts	0x010C, r24
    14e4:	6f b7       	in	r22, 0x3f	; 63
    14e6:	f8 94       	cli
    14e8:	82 b7       	in	r24, 0x32	; 50
    14ea:	20 91 b4 01 	lds	r18, 0x01B4
    14ee:	30 91 b5 01 	lds	r19, 0x01B5
    14f2:	40 91 b6 01 	lds	r20, 0x01B6
    14f6:	50 91 b7 01 	lds	r21, 0x01B7
    14fa:	06 b6       	in	r0, 0x36	; 54
    14fc:	01 fe       	sbrs	r0, 1
    14fe:	0f c0       	rjmp	.+30     	; 0x0x151e
    1500:	81 b7       	in	r24, 0x31	; 49
    1502:	92 b7       	in	r25, 0x32	; 50
    1504:	28 0f       	add	r18, r24
    1506:	31 1d       	adc	r19, r1
    1508:	41 1d       	adc	r20, r1
    150a:	51 1d       	adc	r21, r1
    150c:	2f 5f       	subi	r18, 0xFF	; 255
    150e:	3f 4f       	sbci	r19, 0xFF	; 255
    1510:	4f 4f       	sbci	r20, 0xFF	; 255
    1512:	5f 4f       	sbci	r21, 0xFF	; 255
    1514:	29 0f       	add	r18, r25
    1516:	31 1d       	adc	r19, r1
    1518:	41 1d       	adc	r20, r1
    151a:	51 1d       	adc	r21, r1
    151c:	04 c0       	rjmp	.+8      	; 0x0x1526
    151e:	28 0f       	add	r18, r24
    1520:	31 1d       	adc	r19, r1
    1522:	41 1d       	adc	r20, r1
    1524:	51 1d       	adc	r21, r1
    1526:	86 2f       	mov	r24, r22
    1528:	99 27       	eor	r25, r25
    152a:	8f bf       	out	0x3f, r24	; 63
    152c:	20 93 c0 01 	sts	0x01C0, r18
    1530:	30 93 c1 01 	sts	0x01C1, r19
    1534:	40 93 c2 01 	sts	0x01C2, r20
    1538:	50 93 c3 01 	sts	0x01C3, r21
    153c:	0c 94 55 16 	jmp	0x2caa	; 0x0x2caa
    1540:	8f b7       	in	r24, 0x3f	; 63
    1542:	f8 94       	cli
    1544:	08 2f       	mov	r16, r24
    1546:	80 91 0d 01 	lds	r24, 0x010D
    154a:	84 30       	cpi	r24, 0x04	; 4
    154c:	09 f4       	brne	.+2      	; 0x0x1550
    154e:	96 c0       	rjmp	.+300    	; 0x0x167c
    1550:	85 30       	cpi	r24, 0x05	; 5
    1552:	09 f4       	brne	.+2      	; 0x0x1556
    1554:	9d c0       	rjmp	.+314    	; 0x0x1690
    1556:	81 30       	cpi	r24, 0x01	; 1
    1558:	09 f0       	breq	.+2      	; 0x0x155c
    155a:	2c c1       	rjmp	.+600    	; 0x0x17b4
    155c:	90 e0       	ldi	r25, 0x00	; 0
    155e:	80 91 91 01 	lds	r24, 0x0191
    1562:	83 30       	cpi	r24, 0x03	; 3
    1564:	09 f4       	brne	.+2      	; 0x0x1568
    1566:	91 e0       	ldi	r25, 0x01	; 1
    1568:	99 23       	and	r25, r25
    156a:	09 f0       	breq	.+2      	; 0x0x156e
    156c:	2e c1       	rjmp	.+604    	; 0x0x17ca
    156e:	80 91 04 01 	lds	r24, 0x0104
    1572:	84 30       	cpi	r24, 0x04	; 4
    1574:	11 f4       	brne	.+4      	; 0x0x157a
    1576:	0c 94 82 15 	jmp	0x2b04	; 0x0x2b04
    157a:	85 e0       	ldi	r24, 0x05	; 5
    157c:	80 93 04 01 	sts	0x0104, r24
    1580:	70 93 52 01 	sts	0x0152, r23
    1584:	17 c1       	rjmp	.+558    	; 0x0x17b4
    1586:	92 e0       	ldi	r25, 0x02	; 2
    1588:	90 93 0f 01 	sts	0x010F, r25
    158c:	10 92 8e 01 	sts	0x018E, r1
    1590:	37 9a       	sbi	0x06, 7	; 6
    1592:	80 91 07 01 	lds	r24, 0x0107
    1596:	81 30       	cpi	r24, 0x01	; 1
    1598:	29 f4       	brne	.+10     	; 0x0x15a4
    159a:	10 92 07 01 	sts	0x0107, r1
    159e:	83 e0       	ldi	r24, 0x03	; 3
    15a0:	80 93 0f 01 	sts	0x010F, r24
    15a4:	80 91 07 01 	lds	r24, 0x0107
    15a8:	88 23       	and	r24, r24
    15aa:	11 f4       	brne	.+4      	; 0x0x15b0
    15ac:	0c 94 8c 15 	jmp	0x2b18	; 0x0x2b18
    15b0:	70 93 0f 01 	sts	0x010F, r23
    15b4:	10 92 8e 01 	sts	0x018E, r1
    15b8:	37 9a       	sbi	0x06, 7	; 6
    15ba:	81 30       	cpi	r24, 0x01	; 1
    15bc:	09 f0       	breq	.+2      	; 0x0x15c0
    15be:	fa c0       	rjmp	.+500    	; 0x0x17b4
    15c0:	2e c0       	rjmp	.+92     	; 0x0x161e
    15c2:	80 91 57 01 	lds	r24, 0x0157
    15c6:	80 ff       	sbrs	r24, 0
    15c8:	55 c0       	rjmp	.+170    	; 0x0x1674
    15ca:	f4 c0       	rjmp	.+488    	; 0x0x17b4
    15cc:	83 3c       	cpi	r24, 0xC3	; 195
    15ce:	91 05       	cpc	r25, r1
    15d0:	18 f0       	brcs	.+6      	; 0x0x15d8
    15d2:	86 e0       	ldi	r24, 0x06	; 6
    15d4:	90 e0       	ldi	r25, 0x00	; 0
    15d6:	19 c0       	rjmp	.+50     	; 0x0x160a
    15d8:	81 36       	cpi	r24, 0x61	; 97
    15da:	91 05       	cpc	r25, r1
    15dc:	18 f0       	brcs	.+6      	; 0x0x15e4
    15de:	85 e0       	ldi	r24, 0x05	; 5
    15e0:	90 e0       	ldi	r25, 0x00	; 0
    15e2:	13 c0       	rjmp	.+38     	; 0x0x160a
    15e4:	80 33       	cpi	r24, 0x30	; 48
    15e6:	91 05       	cpc	r25, r1
    15e8:	18 f0       	brcs	.+6      	; 0x0x15f0
    15ea:	84 e0       	ldi	r24, 0x04	; 4
    15ec:	90 e0       	ldi	r25, 0x00	; 0
    15ee:	0d c0       	rjmp	.+26     	; 0x0x160a
    15f0:	88 31       	cpi	r24, 0x18	; 24
    15f2:	91 05       	cpc	r25, r1
    15f4:	18 f0       	brcs	.+6      	; 0x0x15fc
    15f6:	83 e0       	ldi	r24, 0x03	; 3
    15f8:	90 e0       	ldi	r25, 0x00	; 0
    15fa:	07 c0       	rjmp	.+14     	; 0x0x160a
    15fc:	0c 97       	sbiw	r24, 0x0c	; 12
    15fe:	18 f0       	brcs	.+6      	; 0x0x1606
    1600:	82 e0       	ldi	r24, 0x02	; 2
    1602:	90 e0       	ldi	r25, 0x00	; 0
    1604:	02 c0       	rjmp	.+4      	; 0x0x160a
    1606:	80 e0       	ldi	r24, 0x00	; 0
    1608:	90 e0       	ldi	r25, 0x00	; 0
    160a:	87 70       	andi	r24, 0x07	; 7
    160c:	18 7d       	andi	r17, 0xD8	; 216
    160e:	18 2b       	or	r17, r24
    1610:	18 6d       	ori	r17, 0xD8	; 216
    1612:	81 2f       	mov	r24, r17
    1614:	99 27       	eor	r25, r25
    1616:	86 b9       	out	0x06, r24	; 6
    1618:	83 2f       	mov	r24, r19
    161a:	99 27       	eor	r25, r25
    161c:	20 c0       	rjmp	.+64     	; 0x0x165e
    161e:	80 91 0f 01 	lds	r24, 0x010F
    1622:	81 30       	cpi	r24, 0x01	; 1
    1624:	f1 f4       	brne	.+60     	; 0x0x1662
    1626:	9f b7       	in	r25, 0x3f	; 63
    1628:	f8 94       	cli
    162a:	80 91 d3 01 	lds	r24, 0x01D3
    162e:	8f 3f       	cpi	r24, 0xFF	; 255
    1630:	a1 f4       	brne	.+40     	; 0x0x165a
    1632:	80 91 d9 01 	lds	r24, 0x01D9
    1636:	88 30       	cpi	r24, 0x08	; 8
    1638:	11 f0       	breq	.+4      	; 0x0x163e
    163a:	0c 94 b7 15 	jmp	0x2b6e	; 0x0x2b6e
    163e:	0d c0       	rjmp	.+26     	; 0x0x165a
    1640:	88 e0       	ldi	r24, 0x08	; 8
    1642:	80 93 ca 01 	sts	0x01CA, r24
    1646:	07 c0       	rjmp	.+14     	; 0x0x1656
    1648:	e0 91 d9 01 	lds	r30, 0x01D9
    164c:	ff 27       	eor	r31, r31
    164e:	e5 53       	subi	r30, 0x35	; 53
    1650:	fe 4f       	sbci	r31, 0xFE	; 254
    1652:	88 e0       	ldi	r24, 0x08	; 8
    1654:	80 83       	st	Z, r24
    1656:	80 93 d9 01 	sts	0x01D9, r24
    165a:	89 2f       	mov	r24, r25
    165c:	99 27       	eor	r25, r25
    165e:	8f bf       	out	0x3f, r24	; 63
    1660:	a9 c0       	rjmp	.+338    	; 0x0x17b4
    1662:	82 30       	cpi	r24, 0x02	; 2
    1664:	09 f0       	breq	.+2      	; 0x0x1668
    1666:	a6 c0       	rjmp	.+332    	; 0x0x17b4
    1668:	10 92 07 01 	sts	0x0107, r1
    166c:	83 e0       	ldi	r24, 0x03	; 3
    166e:	80 93 0f 01 	sts	0x010F, r24
    1672:	a0 c0       	rjmp	.+320    	; 0x0x17b4
    1674:	81 60       	ori	r24, 0x01	; 1
    1676:	80 93 57 01 	sts	0x0157, r24
    167a:	9c c0       	rjmp	.+312    	; 0x0x17b4
    167c:	85 e0       	ldi	r24, 0x05	; 5
    167e:	80 93 0d 01 	sts	0x010D, r24
    1682:	10 92 d8 01 	sts	0x01D8, r1
    1686:	69 e3       	ldi	r22, 0x39	; 57
    1688:	80 e0       	ldi	r24, 0x00	; 0
    168a:	0e 94 bd 01 	call	0x37a	; 0x0x37a
    168e:	92 c0       	rjmp	.+292    	; 0x0x17b4
    1690:	0e 94 80 05 	call	0xb00	; 0x0xb00
    1694:	80 91 04 01 	lds	r24, 0x0104
    1698:	84 30       	cpi	r24, 0x04	; 4
    169a:	09 f0       	breq	.+2      	; 0x0x169e
    169c:	81 c0       	rjmp	.+258    	; 0x0x17a0
    169e:	93 e0       	ldi	r25, 0x03	; 3
    16a0:	90 93 04 01 	sts	0x0104, r25
    16a4:	80 91 0f 01 	lds	r24, 0x010F
    16a8:	88 23       	and	r24, r24
    16aa:	f1 f4       	brne	.+60     	; 0x0x16e8
    16ac:	22 e0       	ldi	r18, 0x02	; 2
    16ae:	20 93 0f 01 	sts	0x010F, r18
    16b2:	10 92 8e 01 	sts	0x018E, r1
    16b6:	37 9a       	sbi	0x06, 7	; 6
    16b8:	80 91 07 01 	lds	r24, 0x0107
    16bc:	81 30       	cpi	r24, 0x01	; 1
    16be:	21 f4       	brne	.+8      	; 0x0x16c8
    16c0:	10 92 07 01 	sts	0x0107, r1
    16c4:	90 93 0f 01 	sts	0x010F, r25
    16c8:	90 91 07 01 	lds	r25, 0x0107
    16cc:	99 23       	and	r25, r25
    16ce:	11 f4       	brne	.+4      	; 0x0x16d4
    16d0:	0c 94 bf 15 	jmp	0x2b7e	; 0x0x2b7e
    16d4:	81 e0       	ldi	r24, 0x01	; 1
    16d6:	80 93 0f 01 	sts	0x010F, r24
    16da:	10 92 8e 01 	sts	0x018E, r1
    16de:	37 9a       	sbi	0x06, 7	; 6
    16e0:	91 30       	cpi	r25, 0x01	; 1
    16e2:	09 f0       	breq	.+2      	; 0x0x16e6
    16e4:	60 c0       	rjmp	.+192    	; 0x0x17a6
    16e6:	2e c0       	rjmp	.+92     	; 0x0x1744
    16e8:	80 91 57 01 	lds	r24, 0x0157
    16ec:	80 ff       	sbrs	r24, 0
    16ee:	54 c0       	rjmp	.+168    	; 0x0x1798
    16f0:	5a c0       	rjmp	.+180    	; 0x0x17a6
    16f2:	83 3c       	cpi	r24, 0xC3	; 195
    16f4:	91 05       	cpc	r25, r1
    16f6:	18 f0       	brcs	.+6      	; 0x0x16fe
    16f8:	86 e0       	ldi	r24, 0x06	; 6
    16fa:	90 e0       	ldi	r25, 0x00	; 0
    16fc:	19 c0       	rjmp	.+50     	; 0x0x1730
    16fe:	81 36       	cpi	r24, 0x61	; 97
    1700:	91 05       	cpc	r25, r1
    1702:	18 f0       	brcs	.+6      	; 0x0x170a
    1704:	85 e0       	ldi	r24, 0x05	; 5
    1706:	90 e0       	ldi	r25, 0x00	; 0
    1708:	13 c0       	rjmp	.+38     	; 0x0x1730
    170a:	80 33       	cpi	r24, 0x30	; 48
    170c:	91 05       	cpc	r25, r1
    170e:	18 f0       	brcs	.+6      	; 0x0x1716
    1710:	84 e0       	ldi	r24, 0x04	; 4
    1712:	90 e0       	ldi	r25, 0x00	; 0
    1714:	0d c0       	rjmp	.+26     	; 0x0x1730
    1716:	88 31       	cpi	r24, 0x18	; 24
    1718:	91 05       	cpc	r25, r1
    171a:	18 f0       	brcs	.+6      	; 0x0x1722
    171c:	83 e0       	ldi	r24, 0x03	; 3
    171e:	90 e0       	ldi	r25, 0x00	; 0
    1720:	07 c0       	rjmp	.+14     	; 0x0x1730
    1722:	0c 97       	sbiw	r24, 0x0c	; 12
    1724:	18 f0       	brcs	.+6      	; 0x0x172c
    1726:	82 e0       	ldi	r24, 0x02	; 2
    1728:	90 e0       	ldi	r25, 0x00	; 0
    172a:	02 c0       	rjmp	.+4      	; 0x0x1730
    172c:	80 e0       	ldi	r24, 0x00	; 0
    172e:	90 e0       	ldi	r25, 0x00	; 0
    1730:	87 70       	andi	r24, 0x07	; 7
    1732:	18 7d       	andi	r17, 0xD8	; 216
    1734:	18 2b       	or	r17, r24
    1736:	18 6d       	ori	r17, 0xD8	; 216
    1738:	81 2f       	mov	r24, r17
    173a:	99 27       	eor	r25, r25
    173c:	86 b9       	out	0x06, r24	; 6
    173e:	83 2f       	mov	r24, r19
    1740:	99 27       	eor	r25, r25
    1742:	20 c0       	rjmp	.+64     	; 0x0x1784
    1744:	80 91 0f 01 	lds	r24, 0x010F
    1748:	81 30       	cpi	r24, 0x01	; 1
    174a:	f1 f4       	brne	.+60     	; 0x0x1788
    174c:	9f b7       	in	r25, 0x3f	; 63
    174e:	f8 94       	cli
    1750:	80 91 d3 01 	lds	r24, 0x01D3
    1754:	8f 3f       	cpi	r24, 0xFF	; 255
    1756:	a1 f4       	brne	.+40     	; 0x0x1780
    1758:	80 91 d9 01 	lds	r24, 0x01D9
    175c:	88 30       	cpi	r24, 0x08	; 8
    175e:	11 f0       	breq	.+4      	; 0x0x1764
    1760:	0c 94 ea 15 	jmp	0x2bd4	; 0x0x2bd4
    1764:	0d c0       	rjmp	.+26     	; 0x0x1780
    1766:	88 e0       	ldi	r24, 0x08	; 8
    1768:	80 93 ca 01 	sts	0x01CA, r24
    176c:	07 c0       	rjmp	.+14     	; 0x0x177c
    176e:	e0 91 d9 01 	lds	r30, 0x01D9
    1772:	ff 27       	eor	r31, r31
    1774:	e5 53       	subi	r30, 0x35	; 53
    1776:	fe 4f       	sbci	r31, 0xFE	; 254
    1778:	88 e0       	ldi	r24, 0x08	; 8
    177a:	80 83       	st	Z, r24
    177c:	80 93 d9 01 	sts	0x01D9, r24
    1780:	89 2f       	mov	r24, r25
    1782:	99 27       	eor	r25, r25
    1784:	8f bf       	out	0x3f, r24	; 63
    1786:	0f c0       	rjmp	.+30     	; 0x0x17a6
    1788:	82 30       	cpi	r24, 0x02	; 2
    178a:	69 f4       	brne	.+26     	; 0x0x17a6
    178c:	10 92 07 01 	sts	0x0107, r1
    1790:	83 e0       	ldi	r24, 0x03	; 3
    1792:	80 93 0f 01 	sts	0x010F, r24
    1796:	07 c0       	rjmp	.+14     	; 0x0x17a6
    1798:	81 60       	ori	r24, 0x01	; 1
    179a:	80 93 57 01 	sts	0x0157, r24
    179e:	03 c0       	rjmp	.+6      	; 0x0x17a6
    17a0:	83 e0       	ldi	r24, 0x03	; 3
    17a2:	80 93 52 01 	sts	0x0152, r24
    17a6:	80 e5       	ldi	r24, 0x50	; 80
    17a8:	90 e0       	ldi	r25, 0x00	; 0
    17aa:	01 97       	sbiw	r24, 0x01	; 1
    17ac:	01 96       	adiw	r24, 0x01	; 1
    17ae:	01 97       	sbiw	r24, 0x01	; 1
    17b0:	e1 f7       	brne	.-8      	; 0x0x17aa
    17b2:	3c c1       	rjmp	.+632    	; 0x0x1a2c
    17b4:	80 91 0d 01 	lds	r24, 0x010D
    17b8:	84 30       	cpi	r24, 0x04	; 4
    17ba:	09 f4       	brne	.+2      	; 0x0x17be
    17bc:	dd c0       	rjmp	.+442    	; 0x0x1978
    17be:	85 30       	cpi	r24, 0x05	; 5
    17c0:	09 f4       	brne	.+2      	; 0x0x17c4
    17c2:	a9 c0       	rjmp	.+338    	; 0x0x1916
    17c4:	81 30       	cpi	r24, 0x01	; 1
    17c6:	09 f0       	breq	.+2      	; 0x0x17ca
    17c8:	31 c1       	rjmp	.+610    	; 0x0x1a2c
    17ca:	80 91 4d 01 	lds	r24, 0x014D
    17ce:	81 fd       	sbrc	r24, 1
    17d0:	2d c1       	rjmp	.+602    	; 0x0x1a2c
    17d2:	90 e0       	ldi	r25, 0x00	; 0
    17d4:	80 91 8d 01 	lds	r24, 0x018D
    17d8:	8f 31       	cpi	r24, 0x1F	; 31
    17da:	08 f0       	brcs	.+2      	; 0x0x17de
    17dc:	91 e0       	ldi	r25, 0x01	; 1
    17de:	99 23       	and	r25, r25
    17e0:	09 f4       	brne	.+2      	; 0x0x17e4
    17e2:	68 c0       	rjmp	.+208    	; 0x0x18b4
    17e4:	80 91 53 01 	lds	r24, 0x0153
    17e8:	90 91 54 01 	lds	r25, 0x0154
    17ec:	89 2b       	or	r24, r25
    17ee:	89 f5       	brne	.+98     	; 0x0x1852
    17f0:	6f b7       	in	r22, 0x3f	; 63
    17f2:	f8 94       	cli
    17f4:	82 b7       	in	r24, 0x32	; 50
    17f6:	20 91 b4 01 	lds	r18, 0x01B4
    17fa:	30 91 b5 01 	lds	r19, 0x01B5
    17fe:	40 91 b6 01 	lds	r20, 0x01B6
    1802:	50 91 b7 01 	lds	r21, 0x01B7
    1806:	06 b6       	in	r0, 0x36	; 54
    1808:	01 fe       	sbrs	r0, 1
    180a:	0f c0       	rjmp	.+30     	; 0x0x182a
    180c:	81 b7       	in	r24, 0x31	; 49
    180e:	92 b7       	in	r25, 0x32	; 50
    1810:	28 0f       	add	r18, r24
    1812:	31 1d       	adc	r19, r1
    1814:	41 1d       	adc	r20, r1
    1816:	51 1d       	adc	r21, r1
    1818:	2f 5f       	subi	r18, 0xFF	; 255
    181a:	3f 4f       	sbci	r19, 0xFF	; 255
    181c:	4f 4f       	sbci	r20, 0xFF	; 255
    181e:	5f 4f       	sbci	r21, 0xFF	; 255
    1820:	29 0f       	add	r18, r25
    1822:	31 1d       	adc	r19, r1
    1824:	41 1d       	adc	r20, r1
    1826:	51 1d       	adc	r21, r1
    1828:	04 c0       	rjmp	.+8      	; 0x0x1832
    182a:	28 0f       	add	r18, r24
    182c:	31 1d       	adc	r19, r1
    182e:	41 1d       	adc	r20, r1
    1830:	51 1d       	adc	r21, r1
    1832:	86 2f       	mov	r24, r22
    1834:	99 27       	eor	r25, r25
    1836:	8f bf       	out	0x3f, r24	; 63
    1838:	20 93 45 01 	sts	0x0145, r18
    183c:	30 93 46 01 	sts	0x0146, r19
    1840:	40 93 47 01 	sts	0x0147, r20
    1844:	50 93 48 01 	sts	0x0148, r21
    1848:	80 e0       	ldi	r24, 0x00	; 0
    184a:	9a e0       	ldi	r25, 0x0A	; 10
    184c:	a0 e0       	ldi	r26, 0x00	; 0
    184e:	b0 e0       	ldi	r27, 0x00	; 0
    1850:	c6 c0       	rjmp	.+396    	; 0x0x19de
    1852:	6f b7       	in	r22, 0x3f	; 63
    1854:	f8 94       	cli
    1856:	82 b7       	in	r24, 0x32	; 50
    1858:	20 91 b4 01 	lds	r18, 0x01B4
    185c:	30 91 b5 01 	lds	r19, 0x01B5
    1860:	40 91 b6 01 	lds	r20, 0x01B6
    1864:	50 91 b7 01 	lds	r21, 0x01B7
    1868:	06 b6       	in	r0, 0x36	; 54
    186a:	01 fe       	sbrs	r0, 1
    186c:	0f c0       	rjmp	.+30     	; 0x0x188c
    186e:	81 b7       	in	r24, 0x31	; 49
    1870:	92 b7       	in	r25, 0x32	; 50
    1872:	28 0f       	add	r18, r24
    1874:	31 1d       	adc	r19, r1
    1876:	41 1d       	adc	r20, r1
    1878:	51 1d       	adc	r21, r1
    187a:	2f 5f       	subi	r18, 0xFF	; 255
    187c:	3f 4f       	sbci	r19, 0xFF	; 255
    187e:	4f 4f       	sbci	r20, 0xFF	; 255
    1880:	5f 4f       	sbci	r21, 0xFF	; 255
    1882:	29 0f       	add	r18, r25
    1884:	31 1d       	adc	r19, r1
    1886:	41 1d       	adc	r20, r1
    1888:	51 1d       	adc	r21, r1
    188a:	04 c0       	rjmp	.+8      	; 0x0x1894
    188c:	28 0f       	add	r18, r24
    188e:	31 1d       	adc	r19, r1
    1890:	41 1d       	adc	r20, r1
    1892:	51 1d       	adc	r21, r1
    1894:	86 2f       	mov	r24, r22
    1896:	99 27       	eor	r25, r25
    1898:	8f bf       	out	0x3f, r24	; 63
    189a:	20 93 45 01 	sts	0x0145, r18
    189e:	30 93 46 01 	sts	0x0146, r19
    18a2:	40 93 47 01 	sts	0x0147, r20
    18a6:	50 93 48 01 	sts	0x0148, r21
    18aa:	8e e1       	ldi	r24, 0x1E	; 30
    18ac:	90 e0       	ldi	r25, 0x00	; 0
    18ae:	a0 e0       	ldi	r26, 0x00	; 0
    18b0:	b0 e0       	ldi	r27, 0x00	; 0
    18b2:	95 c0       	rjmp	.+298    	; 0x0x19de
    18b4:	6f b7       	in	r22, 0x3f	; 63
    18b6:	f8 94       	cli
    18b8:	82 b7       	in	r24, 0x32	; 50
    18ba:	20 91 b4 01 	lds	r18, 0x01B4
    18be:	30 91 b5 01 	lds	r19, 0x01B5
    18c2:	40 91 b6 01 	lds	r20, 0x01B6
    18c6:	50 91 b7 01 	lds	r21, 0x01B7
    18ca:	06 b6       	in	r0, 0x36	; 54
    18cc:	01 fe       	sbrs	r0, 1
    18ce:	0f c0       	rjmp	.+30     	; 0x0x18ee
    18d0:	81 b7       	in	r24, 0x31	; 49
    18d2:	92 b7       	in	r25, 0x32	; 50
    18d4:	28 0f       	add	r18, r24
    18d6:	31 1d       	adc	r19, r1
    18d8:	41 1d       	adc	r20, r1
    18da:	51 1d       	adc	r21, r1
    18dc:	2f 5f       	subi	r18, 0xFF	; 255
    18de:	3f 4f       	sbci	r19, 0xFF	; 255
    18e0:	4f 4f       	sbci	r20, 0xFF	; 255
    18e2:	5f 4f       	sbci	r21, 0xFF	; 255
    18e4:	29 0f       	add	r18, r25
    18e6:	31 1d       	adc	r19, r1
    18e8:	41 1d       	adc	r20, r1
    18ea:	51 1d       	adc	r21, r1
    18ec:	04 c0       	rjmp	.+8      	; 0x0x18f6
    18ee:	28 0f       	add	r18, r24
    18f0:	31 1d       	adc	r19, r1
    18f2:	41 1d       	adc	r20, r1
    18f4:	51 1d       	adc	r21, r1
    18f6:	86 2f       	mov	r24, r22
    18f8:	99 27       	eor	r25, r25
    18fa:	8f bf       	out	0x3f, r24	; 63
    18fc:	20 93 45 01 	sts	0x0145, r18
    1900:	30 93 46 01 	sts	0x0146, r19
    1904:	40 93 47 01 	sts	0x0147, r20
    1908:	50 93 48 01 	sts	0x0148, r21
    190c:	80 e0       	ldi	r24, 0x00	; 0
    190e:	98 e0       	ldi	r25, 0x08	; 8
    1910:	a0 e0       	ldi	r26, 0x00	; 0
    1912:	b0 e0       	ldi	r27, 0x00	; 0
    1914:	64 c0       	rjmp	.+200    	; 0x0x19de
    1916:	6f b7       	in	r22, 0x3f	; 63
    1918:	f8 94       	cli
    191a:	82 b7       	in	r24, 0x32	; 50
    191c:	20 91 b4 01 	lds	r18, 0x01B4
    1920:	30 91 b5 01 	lds	r19, 0x01B5
    1924:	40 91 b6 01 	lds	r20, 0x01B6
    1928:	50 91 b7 01 	lds	r21, 0x01B7
    192c:	06 b6       	in	r0, 0x36	; 54
    192e:	01 fe       	sbrs	r0, 1
    1930:	0f c0       	rjmp	.+30     	; 0x0x1950
    1932:	81 b7       	in	r24, 0x31	; 49
    1934:	92 b7       	in	r25, 0x32	; 50
    1936:	28 0f       	add	r18, r24
    1938:	31 1d       	adc	r19, r1
    193a:	41 1d       	adc	r20, r1
    193c:	51 1d       	adc	r21, r1
    193e:	2f 5f       	subi	r18, 0xFF	; 255
    1940:	3f 4f       	sbci	r19, 0xFF	; 255
    1942:	4f 4f       	sbci	r20, 0xFF	; 255
    1944:	5f 4f       	sbci	r21, 0xFF	; 255
    1946:	29 0f       	add	r18, r25
    1948:	31 1d       	adc	r19, r1
    194a:	41 1d       	adc	r20, r1
    194c:	51 1d       	adc	r21, r1
    194e:	04 c0       	rjmp	.+8      	; 0x0x1958
    1950:	28 0f       	add	r18, r24
    1952:	31 1d       	adc	r19, r1
    1954:	41 1d       	adc	r20, r1
    1956:	51 1d       	adc	r21, r1
    1958:	86 2f       	mov	r24, r22
    195a:	99 27       	eor	r25, r25
    195c:	8f bf       	out	0x3f, r24	; 63
    195e:	20 93 45 01 	sts	0x0145, r18
    1962:	30 93 46 01 	sts	0x0146, r19
    1966:	40 93 47 01 	sts	0x0147, r20
    196a:	50 93 48 01 	sts	0x0148, r21
    196e:	81 e0       	ldi	r24, 0x01	; 1
    1970:	90 e0       	ldi	r25, 0x00	; 0
    1972:	a0 e0       	ldi	r26, 0x00	; 0
    1974:	b0 e0       	ldi	r27, 0x00	; 0
    1976:	33 c0       	rjmp	.+102    	; 0x0x19de
    1978:	60 91 53 01 	lds	r22, 0x0153
    197c:	70 91 54 01 	lds	r23, 0x0154
    1980:	ef b7       	in	r30, 0x3f	; 63
    1982:	f8 94       	cli
    1984:	82 b7       	in	r24, 0x32	; 50
    1986:	20 91 b4 01 	lds	r18, 0x01B4
    198a:	30 91 b5 01 	lds	r19, 0x01B5
    198e:	40 91 b6 01 	lds	r20, 0x01B6
    1992:	50 91 b7 01 	lds	r21, 0x01B7
    1996:	06 b6       	in	r0, 0x36	; 54
    1998:	01 fe       	sbrs	r0, 1
    199a:	0f c0       	rjmp	.+30     	; 0x0x19ba
    199c:	81 b7       	in	r24, 0x31	; 49
    199e:	92 b7       	in	r25, 0x32	; 50
    19a0:	28 0f       	add	r18, r24
    19a2:	31 1d       	adc	r19, r1
    19a4:	41 1d       	adc	r20, r1
    19a6:	51 1d       	adc	r21, r1
    19a8:	2f 5f       	subi	r18, 0xFF	; 255
    19aa:	3f 4f       	sbci	r19, 0xFF	; 255
    19ac:	4f 4f       	sbci	r20, 0xFF	; 255
    19ae:	5f 4f       	sbci	r21, 0xFF	; 255
    19b0:	29 0f       	add	r18, r25
    19b2:	31 1d       	adc	r19, r1
    19b4:	41 1d       	adc	r20, r1
    19b6:	51 1d       	adc	r21, r1
    19b8:	04 c0       	rjmp	.+8      	; 0x0x19c2
    19ba:	28 0f       	add	r18, r24
    19bc:	31 1d       	adc	r19, r1
    19be:	41 1d       	adc	r20, r1
    19c0:	51 1d       	adc	r21, r1
    19c2:	8e 2f       	mov	r24, r30
    19c4:	99 27       	eor	r25, r25
    19c6:	8f bf       	out	0x3f, r24	; 63
    19c8:	20 93 45 01 	sts	0x0145, r18
    19cc:	30 93 46 01 	sts	0x0146, r19
    19d0:	40 93 47 01 	sts	0x0147, r20
    19d4:	50 93 48 01 	sts	0x0148, r21
    19d8:	cb 01       	movw	r24, r22
    19da:	aa 27       	eor	r26, r26
    19dc:	bb 27       	eor	r27, r27
    19de:	e5 e4       	ldi	r30, 0x45	; 69
    19e0:	f1 e0       	ldi	r31, 0x01	; 1
    19e2:	84 83       	std	Z+4, r24	; 0x04
    19e4:	95 83       	std	Z+5, r25	; 0x05
    19e6:	a6 83       	std	Z+6, r26	; 0x06
    19e8:	b7 83       	std	Z+7, r27	; 0x07
    19ea:	80 91 4d 01 	lds	r24, 0x014D
    19ee:	83 60       	ori	r24, 0x03	; 3
    19f0:	80 87       	std	Z+8, r24	; 0x08
    19f2:	9f b7       	in	r25, 0x3f	; 63
    19f4:	f8 94       	cli
    19f6:	80 91 cc 01 	lds	r24, 0x01CC
    19fa:	8f 3f       	cpi	r24, 0xFF	; 255
    19fc:	a1 f4       	brne	.+40     	; 0x0x1a26
    19fe:	80 91 d9 01 	lds	r24, 0x01D9
    1a02:	81 30       	cpi	r24, 0x01	; 1
    1a04:	11 f0       	breq	.+4      	; 0x0x1a0a
    1a06:	0c 94 f2 15 	jmp	0x2be4	; 0x0x2be4
    1a0a:	0d c0       	rjmp	.+26     	; 0x0x1a26
    1a0c:	81 e0       	ldi	r24, 0x01	; 1
    1a0e:	80 93 ca 01 	sts	0x01CA, r24
    1a12:	07 c0       	rjmp	.+14     	; 0x0x1a22
    1a14:	e0 91 d9 01 	lds	r30, 0x01D9
    1a18:	ff 27       	eor	r31, r31
    1a1a:	e5 53       	subi	r30, 0x35	; 53
    1a1c:	fe 4f       	sbci	r31, 0xFE	; 254
    1a1e:	81 e0       	ldi	r24, 0x01	; 1
    1a20:	80 83       	st	Z, r24
    1a22:	80 93 d9 01 	sts	0x01D9, r24
    1a26:	89 2f       	mov	r24, r25
    1a28:	99 27       	eor	r25, r25
    1a2a:	8f bf       	out	0x3f, r24	; 63
    1a2c:	0f bf       	out	0x3f, r16	; 63
    1a2e:	6f c2       	rjmp	.+1246   	; 0x0x1f0e
    1a30:	7f 5f       	subi	r23, 0xFF	; 255
    1a32:	72 30       	cpi	r23, 0x02	; 2
    1a34:	08 f4       	brcc	.+2      	; 0x0x1a38
    1a36:	f6 cb       	rjmp	.-2068   	; 0x0x1224
    1a38:	6a c2       	rjmp	.+1236   	; 0x0x1f0e
    1a3a:	e0 92 c4 01 	sts	0x01C4, r14
    1a3e:	f0 92 c5 01 	sts	0x01C5, r15
    1a42:	00 93 c6 01 	sts	0x01C6, r16
    1a46:	10 93 c7 01 	sts	0x01C7, r17
    1a4a:	21 e0       	ldi	r18, 0x01	; 1
    1a4c:	20 93 4e 01 	sts	0x014E, r18
    1a50:	8f b7       	in	r24, 0x3f	; 63
    1a52:	f8 94       	cli
    1a54:	99 27       	eor	r25, r25
    1a56:	20 93 bb 01 	sts	0x01BB, r18
    1a5a:	2d 8d       	ldd	r18, Y+29	; 0x1d
    1a5c:	3e 8d       	ldd	r19, Y+30	; 0x1e
    1a5e:	4f 8d       	ldd	r20, Y+31	; 0x1f
    1a60:	58 a1       	ldd	r21, Y+32	; 0x20
    1a62:	20 93 99 01 	sts	0x0199, r18
    1a66:	30 93 9a 01 	sts	0x019A, r19
    1a6a:	40 93 9b 01 	sts	0x019B, r20
    1a6e:	50 93 9c 01 	sts	0x019C, r21
    1a72:	e0 92 bc 01 	sts	0x01BC, r14
    1a76:	f0 92 bd 01 	sts	0x01BD, r15
    1a7a:	00 93 be 01 	sts	0x01BE, r16
    1a7e:	10 93 bf 01 	sts	0x01BF, r17
    1a82:	8f bf       	out	0x3f, r24	; 63
    1a84:	8f b7       	in	r24, 0x3f	; 63
    1a86:	f8 94       	cli
    1a88:	28 2f       	mov	r18, r24
    1a8a:	33 27       	eor	r19, r19
    1a8c:	e2 2f       	mov	r30, r18
    1a8e:	91 b7       	in	r25, 0x31	; 49
    1a90:	82 b7       	in	r24, 0x32	; 50
    1a92:	46 b7       	in	r20, 0x36	; 54
    1a94:	98 17       	cp	r25, r24
    1a96:	11 f4       	brne	.+4      	; 0x0x1a9c
    1a98:	0c 94 58 16 	jmp	0x2cb0	; 0x0x2cb0
    1a9c:	41 ff       	sbrs	r20, 1
    1a9e:	02 c0       	rjmp	.+4      	; 0x0x1aa4
    1aa0:	0c 94 58 16 	jmp	0x2cb0	; 0x0x2cb0
    1aa4:	80 91 bb 01 	lds	r24, 0x01BB
    1aa8:	88 23       	and	r24, r24
    1aaa:	09 f4       	brne	.+2      	; 0x0x1aae
    1aac:	60 c0       	rjmp	.+192    	; 0x0x1b6e
    1aae:	6f b7       	in	r22, 0x3f	; 63
    1ab0:	f8 94       	cli
    1ab2:	82 b7       	in	r24, 0x32	; 50
    1ab4:	20 91 b4 01 	lds	r18, 0x01B4
    1ab8:	30 91 b5 01 	lds	r19, 0x01B5
    1abc:	40 91 b6 01 	lds	r20, 0x01B6
    1ac0:	50 91 b7 01 	lds	r21, 0x01B7
    1ac4:	06 b6       	in	r0, 0x36	; 54
    1ac6:	01 fe       	sbrs	r0, 1
    1ac8:	0f c0       	rjmp	.+30     	; 0x0x1ae8
    1aca:	81 b7       	in	r24, 0x31	; 49
    1acc:	92 b7       	in	r25, 0x32	; 50
    1ace:	28 0f       	add	r18, r24
    1ad0:	31 1d       	adc	r19, r1
    1ad2:	41 1d       	adc	r20, r1
    1ad4:	51 1d       	adc	r21, r1
    1ad6:	2f 5f       	subi	r18, 0xFF	; 255
    1ad8:	3f 4f       	sbci	r19, 0xFF	; 255
    1ada:	4f 4f       	sbci	r20, 0xFF	; 255
    1adc:	5f 4f       	sbci	r21, 0xFF	; 255
    1ade:	29 0f       	add	r18, r25
    1ae0:	31 1d       	adc	r19, r1
    1ae2:	41 1d       	adc	r20, r1
    1ae4:	51 1d       	adc	r21, r1
    1ae6:	04 c0       	rjmp	.+8      	; 0x0x1af0
    1ae8:	28 0f       	add	r18, r24
    1aea:	31 1d       	adc	r19, r1
    1aec:	41 1d       	adc	r20, r1
    1aee:	51 1d       	adc	r21, r1
    1af0:	86 2f       	mov	r24, r22
    1af2:	99 27       	eor	r25, r25
    1af4:	8f bf       	out	0x3f, r24	; 63
    1af6:	e0 90 99 01 	lds	r14, 0x0199
    1afa:	f0 90 9a 01 	lds	r15, 0x019A
    1afe:	00 91 9b 01 	lds	r16, 0x019B
    1b02:	10 91 9c 01 	lds	r17, 0x019C
    1b06:	80 91 bc 01 	lds	r24, 0x01BC
    1b0a:	90 91 bd 01 	lds	r25, 0x01BD
    1b0e:	a0 91 be 01 	lds	r26, 0x01BE
    1b12:	b0 91 bf 01 	lds	r27, 0x01BF
    1b16:	2e 19       	sub	r18, r14
    1b18:	3f 09       	sbc	r19, r15
    1b1a:	40 0b       	sbc	r20, r16
    1b1c:	51 0b       	sbc	r21, r17
    1b1e:	28 17       	cp	r18, r24
    1b20:	39 07       	cpc	r19, r25
    1b22:	4a 07       	cpc	r20, r26
    1b24:	5b 07       	cpc	r21, r27
    1b26:	20 f0       	brcs	.+8      	; 0x0x1b30
    1b28:	10 92 bb 01 	sts	0x01BB, r1
    1b2c:	71 e0       	ldi	r23, 0x01	; 1
    1b2e:	20 c0       	rjmp	.+64     	; 0x0x1b70
    1b30:	a8 01       	movw	r20, r16
    1b32:	97 01       	movw	r18, r14
    1b34:	28 0f       	add	r18, r24
    1b36:	39 1f       	adc	r19, r25
    1b38:	4a 1f       	adc	r20, r26
    1b3a:	5b 1f       	adc	r21, r27
    1b3c:	80 91 b4 01 	lds	r24, 0x01B4
    1b40:	90 91 b5 01 	lds	r25, 0x01B5
    1b44:	a0 91 b6 01 	lds	r26, 0x01B6
    1b48:	b0 91 b7 01 	lds	r27, 0x01B7
    1b4c:	28 1b       	sub	r18, r24
    1b4e:	39 0b       	sbc	r19, r25
    1b50:	4a 0b       	sbc	r20, r26
    1b52:	5b 0b       	sbc	r21, r27
    1b54:	27 3e       	cpi	r18, 0xE7	; 231
    1b56:	31 05       	cpc	r19, r1
    1b58:	41 05       	cpc	r20, r1
    1b5a:	51 05       	cpc	r21, r1
    1b5c:	40 f4       	brcc	.+16     	; 0x0x1b6e
    1b5e:	82 2f       	mov	r24, r18
    1b60:	22 30       	cpi	r18, 0x02	; 2
    1b62:	10 f0       	brcs	.+4      	; 0x0x1b68
    1b64:	70 e0       	ldi	r23, 0x00	; 0
    1b66:	05 c0       	rjmp	.+10     	; 0x0x1b72
    1b68:	70 e0       	ldi	r23, 0x00	; 0
    1b6a:	82 e0       	ldi	r24, 0x02	; 2
    1b6c:	02 c0       	rjmp	.+4      	; 0x0x1b72
    1b6e:	70 e0       	ldi	r23, 0x00	; 0
    1b70:	86 ee       	ldi	r24, 0xE6	; 230
    1b72:	68 2f       	mov	r22, r24
    1b74:	61 50       	subi	r22, 0x01	; 1
    1b76:	00 b6       	in	r0, 0x30	; 48
    1b78:	01 fc       	sbrc	r0, 1
    1b7a:	fd cf       	rjmp	.-6      	; 0x0x1b76
    1b7c:	82 b7       	in	r24, 0x32	; 50
    1b7e:	68 17       	cp	r22, r24
    1b80:	09 f4       	brne	.+2      	; 0x0x1b84
    1b82:	6f 5f       	subi	r22, 0xFF	; 255
    1b84:	20 91 b4 01 	lds	r18, 0x01B4
    1b88:	30 91 b5 01 	lds	r19, 0x01B5
    1b8c:	40 91 b6 01 	lds	r20, 0x01B6
    1b90:	50 91 b7 01 	lds	r21, 0x01B7
    1b94:	da 01       	movw	r26, r20
    1b96:	c9 01       	movw	r24, r18
    1b98:	01 96       	adiw	r24, 0x01	; 1
    1b9a:	a1 1d       	adc	r26, r1
    1b9c:	b1 1d       	adc	r27, r1
    1b9e:	86 0f       	add	r24, r22
    1ba0:	91 1d       	adc	r25, r1
    1ba2:	a1 1d       	adc	r26, r1
    1ba4:	b1 1d       	adc	r27, r1
    1ba6:	82 17       	cp	r24, r18
    1ba8:	93 07       	cpc	r25, r19
    1baa:	a4 07       	cpc	r26, r20
    1bac:	b5 07       	cpc	r27, r21
    1bae:	10 f4       	brcc	.+4      	; 0x0x1bb4
    1bb0:	62 2f       	mov	r22, r18
    1bb2:	60 95       	com	r22
    1bb4:	61 bf       	out	0x31, r22	; 49
    1bb6:	ef bf       	out	0x3f, r30	; 63
    1bb8:	77 23       	and	r23, r23
    1bba:	11 f4       	brne	.+4      	; 0x0x1bc0
    1bbc:	0c 94 59 16 	jmp	0x2cb2	; 0x0x2cb2
    1bc0:	9f b7       	in	r25, 0x3f	; 63
    1bc2:	f8 94       	cli
    1bc4:	80 91 cb 01 	lds	r24, 0x01CB
    1bc8:	8f 3f       	cpi	r24, 0xFF	; 255
    1bca:	11 f0       	breq	.+4      	; 0x0x1bd0
    1bcc:	0c 94 6e 15 	jmp	0x2adc	; 0x0x2adc
    1bd0:	80 91 d9 01 	lds	r24, 0x01D9
    1bd4:	88 23       	and	r24, r24
    1bd6:	11 f4       	brne	.+4      	; 0x0x1bdc
    1bd8:	0c 94 6e 15 	jmp	0x2adc	; 0x0x2adc
    1bdc:	0c 94 fa 15 	jmp	0x2bf4	; 0x0x2bf4
    1be0:	10 92 ca 01 	sts	0x01CA, r1
    1be4:	06 c0       	rjmp	.+12     	; 0x0x1bf2
    1be6:	e0 91 d9 01 	lds	r30, 0x01D9
    1bea:	ff 27       	eor	r31, r31
    1bec:	e5 53       	subi	r30, 0x35	; 53
    1bee:	fe 4f       	sbci	r31, 0xFE	; 254
    1bf0:	10 82       	st	Z, r1
    1bf2:	10 92 d9 01 	sts	0x01D9, r1
    1bf6:	0c 94 6e 15 	jmp	0x2adc	; 0x0x2adc
    1bfa:	1f b7       	in	r17, 0x3f	; 63
    1bfc:	f8 94       	cli
    1bfe:	80 91 0d 01 	lds	r24, 0x010D
    1c02:	84 30       	cpi	r24, 0x04	; 4
    1c04:	09 f4       	brne	.+2      	; 0x0x1c08
    1c06:	dd c0       	rjmp	.+442    	; 0x0x1dc2
    1c08:	85 30       	cpi	r24, 0x05	; 5
    1c0a:	09 f4       	brne	.+2      	; 0x0x1c0e
    1c0c:	a9 c0       	rjmp	.+338    	; 0x0x1d60
    1c0e:	81 30       	cpi	r24, 0x01	; 1
    1c10:	09 f0       	breq	.+2      	; 0x0x1c14
    1c12:	33 c1       	rjmp	.+614    	; 0x0x1e7a
    1c14:	80 91 4d 01 	lds	r24, 0x014D
    1c18:	81 fd       	sbrc	r24, 1
    1c1a:	2f c1       	rjmp	.+606    	; 0x0x1e7a
    1c1c:	90 e0       	ldi	r25, 0x00	; 0
    1c1e:	80 91 8d 01 	lds	r24, 0x018D
    1c22:	8f 31       	cpi	r24, 0x1F	; 31
    1c24:	08 f0       	brcs	.+2      	; 0x0x1c28
    1c26:	91 e0       	ldi	r25, 0x01	; 1
    1c28:	99 23       	and	r25, r25
    1c2a:	09 f4       	brne	.+2      	; 0x0x1c2e
    1c2c:	68 c0       	rjmp	.+208    	; 0x0x1cfe
    1c2e:	80 91 53 01 	lds	r24, 0x0153
    1c32:	90 91 54 01 	lds	r25, 0x0154
    1c36:	89 2b       	or	r24, r25
    1c38:	89 f5       	brne	.+98     	; 0x0x1c9c
    1c3a:	6f b7       	in	r22, 0x3f	; 63
    1c3c:	f8 94       	cli
    1c3e:	82 b7       	in	r24, 0x32	; 50
    1c40:	20 91 b4 01 	lds	r18, 0x01B4
    1c44:	30 91 b5 01 	lds	r19, 0x01B5
    1c48:	40 91 b6 01 	lds	r20, 0x01B6
    1c4c:	50 91 b7 01 	lds	r21, 0x01B7
    1c50:	06 b6       	in	r0, 0x36	; 54
    1c52:	01 fe       	sbrs	r0, 1
    1c54:	0f c0       	rjmp	.+30     	; 0x0x1c74
    1c56:	81 b7       	in	r24, 0x31	; 49
    1c58:	92 b7       	in	r25, 0x32	; 50
    1c5a:	28 0f       	add	r18, r24
    1c5c:	31 1d       	adc	r19, r1
    1c5e:	41 1d       	adc	r20, r1
    1c60:	51 1d       	adc	r21, r1
    1c62:	2f 5f       	subi	r18, 0xFF	; 255
    1c64:	3f 4f       	sbci	r19, 0xFF	; 255
    1c66:	4f 4f       	sbci	r20, 0xFF	; 255
    1c68:	5f 4f       	sbci	r21, 0xFF	; 255
    1c6a:	29 0f       	add	r18, r25
    1c6c:	31 1d       	adc	r19, r1
    1c6e:	41 1d       	adc	r20, r1
    1c70:	51 1d       	adc	r21, r1
    1c72:	04 c0       	rjmp	.+8      	; 0x0x1c7c
    1c74:	28 0f       	add	r18, r24
    1c76:	31 1d       	adc	r19, r1
    1c78:	41 1d       	adc	r20, r1
    1c7a:	51 1d       	adc	r21, r1
    1c7c:	86 2f       	mov	r24, r22
    1c7e:	99 27       	eor	r25, r25
    1c80:	8f bf       	out	0x3f, r24	; 63
    1c82:	20 93 45 01 	sts	0x0145, r18
    1c86:	30 93 46 01 	sts	0x0146, r19
    1c8a:	40 93 47 01 	sts	0x0147, r20
    1c8e:	50 93 48 01 	sts	0x0148, r21
    1c92:	80 e0       	ldi	r24, 0x00	; 0
    1c94:	9a e0       	ldi	r25, 0x0A	; 10
    1c96:	a0 e0       	ldi	r26, 0x00	; 0
    1c98:	b0 e0       	ldi	r27, 0x00	; 0
    1c9a:	c6 c0       	rjmp	.+396    	; 0x0x1e28
    1c9c:	6f b7       	in	r22, 0x3f	; 63
    1c9e:	f8 94       	cli
    1ca0:	82 b7       	in	r24, 0x32	; 50
    1ca2:	20 91 b4 01 	lds	r18, 0x01B4
    1ca6:	30 91 b5 01 	lds	r19, 0x01B5
    1caa:	40 91 b6 01 	lds	r20, 0x01B6
    1cae:	50 91 b7 01 	lds	r21, 0x01B7
    1cb2:	06 b6       	in	r0, 0x36	; 54
    1cb4:	01 fe       	sbrs	r0, 1
    1cb6:	0f c0       	rjmp	.+30     	; 0x0x1cd6
    1cb8:	81 b7       	in	r24, 0x31	; 49
    1cba:	92 b7       	in	r25, 0x32	; 50
    1cbc:	28 0f       	add	r18, r24
    1cbe:	31 1d       	adc	r19, r1
    1cc0:	41 1d       	adc	r20, r1
    1cc2:	51 1d       	adc	r21, r1
    1cc4:	2f 5f       	subi	r18, 0xFF	; 255
    1cc6:	3f 4f       	sbci	r19, 0xFF	; 255
    1cc8:	4f 4f       	sbci	r20, 0xFF	; 255
    1cca:	5f 4f       	sbci	r21, 0xFF	; 255
    1ccc:	29 0f       	add	r18, r25
    1cce:	31 1d       	adc	r19, r1
    1cd0:	41 1d       	adc	r20, r1
    1cd2:	51 1d       	adc	r21, r1
    1cd4:	04 c0       	rjmp	.+8      	; 0x0x1cde
    1cd6:	28 0f       	add	r18, r24
    1cd8:	31 1d       	adc	r19, r1
    1cda:	41 1d       	adc	r20, r1
    1cdc:	51 1d       	adc	r21, r1
    1cde:	86 2f       	mov	r24, r22
    1ce0:	99 27       	eor	r25, r25
    1ce2:	8f bf       	out	0x3f, r24	; 63
    1ce4:	20 93 45 01 	sts	0x0145, r18
    1ce8:	30 93 46 01 	sts	0x0146, r19
    1cec:	40 93 47 01 	sts	0x0147, r20
    1cf0:	50 93 48 01 	sts	0x0148, r21
    1cf4:	8e e1       	ldi	r24, 0x1E	; 30
    1cf6:	90 e0       	ldi	r25, 0x00	; 0
    1cf8:	a0 e0       	ldi	r26, 0x00	; 0
    1cfa:	b0 e0       	ldi	r27, 0x00	; 0
    1cfc:	95 c0       	rjmp	.+298    	; 0x0x1e28
    1cfe:	6f b7       	in	r22, 0x3f	; 63
    1d00:	f8 94       	cli
    1d02:	82 b7       	in	r24, 0x32	; 50
    1d04:	20 91 b4 01 	lds	r18, 0x01B4
    1d08:	30 91 b5 01 	lds	r19, 0x01B5
    1d0c:	40 91 b6 01 	lds	r20, 0x01B6
    1d10:	50 91 b7 01 	lds	r21, 0x01B7
    1d14:	06 b6       	in	r0, 0x36	; 54
    1d16:	01 fe       	sbrs	r0, 1
    1d18:	0f c0       	rjmp	.+30     	; 0x0x1d38
    1d1a:	81 b7       	in	r24, 0x31	; 49
    1d1c:	92 b7       	in	r25, 0x32	; 50
    1d1e:	28 0f       	add	r18, r24
    1d20:	31 1d       	adc	r19, r1
    1d22:	41 1d       	adc	r20, r1
    1d24:	51 1d       	adc	r21, r1
    1d26:	2f 5f       	subi	r18, 0xFF	; 255
    1d28:	3f 4f       	sbci	r19, 0xFF	; 255
    1d2a:	4f 4f       	sbci	r20, 0xFF	; 255
    1d2c:	5f 4f       	sbci	r21, 0xFF	; 255
    1d2e:	29 0f       	add	r18, r25
    1d30:	31 1d       	adc	r19, r1
    1d32:	41 1d       	adc	r20, r1
    1d34:	51 1d       	adc	r21, r1
    1d36:	04 c0       	rjmp	.+8      	; 0x0x1d40
    1d38:	28 0f       	add	r18, r24
    1d3a:	31 1d       	adc	r19, r1
    1d3c:	41 1d       	adc	r20, r1
    1d3e:	51 1d       	adc	r21, r1
    1d40:	86 2f       	mov	r24, r22
    1d42:	99 27       	eor	r25, r25
    1d44:	8f bf       	out	0x3f, r24	; 63
    1d46:	20 93 45 01 	sts	0x0145, r18
    1d4a:	30 93 46 01 	sts	0x0146, r19
    1d4e:	40 93 47 01 	sts	0x0147, r20
    1d52:	50 93 48 01 	sts	0x0148, r21
    1d56:	80 e0       	ldi	r24, 0x00	; 0
    1d58:	98 e0       	ldi	r25, 0x08	; 8
    1d5a:	a0 e0       	ldi	r26, 0x00	; 0
    1d5c:	b0 e0       	ldi	r27, 0x00	; 0
    1d5e:	64 c0       	rjmp	.+200    	; 0x0x1e28
    1d60:	6f b7       	in	r22, 0x3f	; 63
    1d62:	f8 94       	cli
    1d64:	82 b7       	in	r24, 0x32	; 50
    1d66:	20 91 b4 01 	lds	r18, 0x01B4
    1d6a:	30 91 b5 01 	lds	r19, 0x01B5
    1d6e:	40 91 b6 01 	lds	r20, 0x01B6
    1d72:	50 91 b7 01 	lds	r21, 0x01B7
    1d76:	06 b6       	in	r0, 0x36	; 54
    1d78:	01 fe       	sbrs	r0, 1
    1d7a:	0f c0       	rjmp	.+30     	; 0x0x1d9a
    1d7c:	81 b7       	in	r24, 0x31	; 49
    1d7e:	92 b7       	in	r25, 0x32	; 50
    1d80:	28 0f       	add	r18, r24
    1d82:	31 1d       	adc	r19, r1
    1d84:	41 1d       	adc	r20, r1
    1d86:	51 1d       	adc	r21, r1
    1d88:	2f 5f       	subi	r18, 0xFF	; 255
    1d8a:	3f 4f       	sbci	r19, 0xFF	; 255
    1d8c:	4f 4f       	sbci	r20, 0xFF	; 255
    1d8e:	5f 4f       	sbci	r21, 0xFF	; 255
    1d90:	29 0f       	add	r18, r25
    1d92:	31 1d       	adc	r19, r1
    1d94:	41 1d       	adc	r20, r1
    1d96:	51 1d       	adc	r21, r1
    1d98:	04 c0       	rjmp	.+8      	; 0x0x1da2
    1d9a:	28 0f       	add	r18, r24
    1d9c:	31 1d       	adc	r19, r1
    1d9e:	41 1d       	adc	r20, r1
    1da0:	51 1d       	adc	r21, r1
    1da2:	86 2f       	mov	r24, r22
    1da4:	99 27       	eor	r25, r25
    1da6:	8f bf       	out	0x3f, r24	; 63
    1da8:	20 93 45 01 	sts	0x0145, r18
    1dac:	30 93 46 01 	sts	0x0146, r19
    1db0:	40 93 47 01 	sts	0x0147, r20
    1db4:	50 93 48 01 	sts	0x0148, r21
    1db8:	81 e0       	ldi	r24, 0x01	; 1
    1dba:	90 e0       	ldi	r25, 0x00	; 0
    1dbc:	a0 e0       	ldi	r26, 0x00	; 0
    1dbe:	b0 e0       	ldi	r27, 0x00	; 0
    1dc0:	33 c0       	rjmp	.+102    	; 0x0x1e28
    1dc2:	60 91 53 01 	lds	r22, 0x0153
    1dc6:	70 91 54 01 	lds	r23, 0x0154
    1dca:	ef b7       	in	r30, 0x3f	; 63
    1dcc:	f8 94       	cli
    1dce:	82 b7       	in	r24, 0x32	; 50
    1dd0:	20 91 b4 01 	lds	r18, 0x01B4
    1dd4:	30 91 b5 01 	lds	r19, 0x01B5
    1dd8:	40 91 b6 01 	lds	r20, 0x01B6
    1ddc:	50 91 b7 01 	lds	r21, 0x01B7
    1de0:	06 b6       	in	r0, 0x36	; 54
    1de2:	01 fe       	sbrs	r0, 1
    1de4:	0f c0       	rjmp	.+30     	; 0x0x1e04
    1de6:	81 b7       	in	r24, 0x31	; 49
    1de8:	92 b7       	in	r25, 0x32	; 50
    1dea:	28 0f       	add	r18, r24
    1dec:	31 1d       	adc	r19, r1
    1dee:	41 1d       	adc	r20, r1
    1df0:	51 1d       	adc	r21, r1
    1df2:	2f 5f       	subi	r18, 0xFF	; 255
    1df4:	3f 4f       	sbci	r19, 0xFF	; 255
    1df6:	4f 4f       	sbci	r20, 0xFF	; 255
    1df8:	5f 4f       	sbci	r21, 0xFF	; 255
    1dfa:	29 0f       	add	r18, r25
    1dfc:	31 1d       	adc	r19, r1
    1dfe:	41 1d       	adc	r20, r1
    1e00:	51 1d       	adc	r21, r1
    1e02:	04 c0       	rjmp	.+8      	; 0x0x1e0c
    1e04:	28 0f       	add	r18, r24
    1e06:	31 1d       	adc	r19, r1
    1e08:	41 1d       	adc	r20, r1
    1e0a:	51 1d       	adc	r21, r1
    1e0c:	8e 2f       	mov	r24, r30
    1e0e:	99 27       	eor	r25, r25
    1e10:	8f bf       	out	0x3f, r24	; 63
    1e12:	20 93 45 01 	sts	0x0145, r18
    1e16:	30 93 46 01 	sts	0x0146, r19
    1e1a:	40 93 47 01 	sts	0x0147, r20
    1e1e:	50 93 48 01 	sts	0x0148, r21
    1e22:	cb 01       	movw	r24, r22
    1e24:	aa 27       	eor	r26, r26
    1e26:	bb 27       	eor	r27, r27
    1e28:	80 93 49 01 	sts	0x0149, r24
    1e2c:	90 93 4a 01 	sts	0x014A, r25
    1e30:	a0 93 4b 01 	sts	0x014B, r26
    1e34:	b0 93 4c 01 	sts	0x014C, r27
    1e38:	80 91 4d 01 	lds	r24, 0x014D
    1e3c:	83 60       	ori	r24, 0x03	; 3
    1e3e:	80 93 4d 01 	sts	0x014D, r24
    1e42:	9f b7       	in	r25, 0x3f	; 63
    1e44:	f8 94       	cli
    1e46:	80 91 cc 01 	lds	r24, 0x01CC
    1e4a:	8f 3f       	cpi	r24, 0xFF	; 255
    1e4c:	99 f4       	brne	.+38     	; 0x0x1e74
    1e4e:	80 91 d9 01 	lds	r24, 0x01D9
    1e52:	81 30       	cpi	r24, 0x01	; 1
    1e54:	09 f0       	breq	.+2      	; 0x0x1e58
    1e56:	d6 c6       	rjmp	.+3500   	; 0x0x2c04
    1e58:	0d c0       	rjmp	.+26     	; 0x0x1e74
    1e5a:	81 e0       	ldi	r24, 0x01	; 1
    1e5c:	80 93 ca 01 	sts	0x01CA, r24
    1e60:	07 c0       	rjmp	.+14     	; 0x0x1e70
    1e62:	e0 91 d9 01 	lds	r30, 0x01D9
    1e66:	ff 27       	eor	r31, r31
    1e68:	e5 53       	subi	r30, 0x35	; 53
    1e6a:	fe 4f       	sbci	r31, 0xFE	; 254
    1e6c:	81 e0       	ldi	r24, 0x01	; 1
    1e6e:	80 83       	st	Z, r24
    1e70:	80 93 d9 01 	sts	0x01D9, r24
    1e74:	89 2f       	mov	r24, r25
    1e76:	99 27       	eor	r25, r25
    1e78:	8f bf       	out	0x3f, r24	; 63
    1e7a:	81 2f       	mov	r24, r17
    1e7c:	99 27       	eor	r25, r25
    1e7e:	30 c6       	rjmp	.+3168   	; 0x0x2ae0
    1e80:	8f b7       	in	r24, 0x3f	; 63
    1e82:	f8 94       	cli
    1e84:	99 27       	eor	r25, r25
    1e86:	20 91 0d 01 	lds	r18, 0x010D
    1e8a:	8f bf       	out	0x3f, r24	; 63
    1e8c:	22 23       	and	r18, r18
    1e8e:	09 f4       	brne	.+2      	; 0x0x1e92
    1e90:	10 c7       	rjmp	.+3616   	; 0x0x2cb2
    1e92:	6f b7       	in	r22, 0x3f	; 63
    1e94:	f8 94       	cli
    1e96:	82 b7       	in	r24, 0x32	; 50
    1e98:	20 91 b4 01 	lds	r18, 0x01B4
    1e9c:	30 91 b5 01 	lds	r19, 0x01B5
    1ea0:	40 91 b6 01 	lds	r20, 0x01B6
    1ea4:	50 91 b7 01 	lds	r21, 0x01B7
    1ea8:	06 b6       	in	r0, 0x36	; 54
    1eaa:	01 fe       	sbrs	r0, 1
    1eac:	0f c0       	rjmp	.+30     	; 0x0x1ecc
    1eae:	81 b7       	in	r24, 0x31	; 49
    1eb0:	92 b7       	in	r25, 0x32	; 50
    1eb2:	28 0f       	add	r18, r24
    1eb4:	31 1d       	adc	r19, r1
    1eb6:	41 1d       	adc	r20, r1
    1eb8:	51 1d       	adc	r21, r1
    1eba:	2f 5f       	subi	r18, 0xFF	; 255
    1ebc:	3f 4f       	sbci	r19, 0xFF	; 255
    1ebe:	4f 4f       	sbci	r20, 0xFF	; 255
    1ec0:	5f 4f       	sbci	r21, 0xFF	; 255
    1ec2:	29 0f       	add	r18, r25
    1ec4:	31 1d       	adc	r19, r1
    1ec6:	41 1d       	adc	r20, r1
    1ec8:	51 1d       	adc	r21, r1
    1eca:	04 c0       	rjmp	.+8      	; 0x0x1ed4
    1ecc:	28 0f       	add	r18, r24
    1ece:	31 1d       	adc	r19, r1
    1ed0:	41 1d       	adc	r20, r1
    1ed2:	51 1d       	adc	r21, r1
    1ed4:	86 2f       	mov	r24, r22
    1ed6:	99 27       	eor	r25, r25
    1ed8:	8f bf       	out	0x3f, r24	; 63
    1eda:	20 93 3c 01 	sts	0x013C, r18
    1ede:	30 93 3d 01 	sts	0x013D, r19
    1ee2:	40 93 3e 01 	sts	0x013E, r20
    1ee6:	50 93 3f 01 	sts	0x013F, r21
    1eea:	88 e8       	ldi	r24, 0x88	; 136
    1eec:	93 e1       	ldi	r25, 0x13	; 19
    1eee:	a0 e0       	ldi	r26, 0x00	; 0
    1ef0:	b0 e0       	ldi	r27, 0x00	; 0
    1ef2:	80 93 40 01 	sts	0x0140, r24
    1ef6:	90 93 41 01 	sts	0x0141, r25
    1efa:	a0 93 42 01 	sts	0x0142, r26
    1efe:	b0 93 43 01 	sts	0x0143, r27
    1f02:	80 91 44 01 	lds	r24, 0x0144
    1f06:	8e 7f       	andi	r24, 0xFE	; 254
    1f08:	82 60       	ori	r24, 0x02	; 2
    1f0a:	80 93 44 01 	sts	0x0144, r24
    1f0e:	9f b7       	in	r25, 0x3f	; 63
    1f10:	f8 94       	cli
    1f12:	80 91 cc 01 	lds	r24, 0x01CC
    1f16:	8f 3f       	cpi	r24, 0xFF	; 255
    1f18:	09 f0       	breq	.+2      	; 0x0x1f1c
    1f1a:	e0 c5       	rjmp	.+3008   	; 0x0x2adc
    1f1c:	80 91 d9 01 	lds	r24, 0x01D9
    1f20:	81 30       	cpi	r24, 0x01	; 1
    1f22:	09 f0       	breq	.+2      	; 0x0x1f26
    1f24:	75 c6       	rjmp	.+3306   	; 0x0x2c10
    1f26:	da c5       	rjmp	.+2996   	; 0x0x2adc
    1f28:	81 e0       	ldi	r24, 0x01	; 1
    1f2a:	cc c5       	rjmp	.+2968   	; 0x0x2ac4
    1f2c:	e0 91 d9 01 	lds	r30, 0x01D9
    1f30:	ff 27       	eor	r31, r31
    1f32:	e5 53       	subi	r30, 0x35	; 53
    1f34:	fe 4f       	sbci	r31, 0xFE	; 254
    1f36:	81 e0       	ldi	r24, 0x01	; 1
    1f38:	ce c5       	rjmp	.+2972   	; 0x0x2ad6
    1f3a:	0f b7       	in	r16, 0x3f	; 63
    1f3c:	f8 94       	cli
    1f3e:	80 91 94 01 	lds	r24, 0x0194
    1f42:	81 fd       	sbrc	r24, 1
    1f44:	06 c0       	rjmp	.+12     	; 0x0x1f52
    1f46:	80 91 53 01 	lds	r24, 0x0153
    1f4a:	90 91 54 01 	lds	r25, 0x0154
    1f4e:	89 2b       	or	r24, r25
    1f50:	71 f5       	brne	.+92     	; 0x0x1fae
    1f52:	80 91 0d 01 	lds	r24, 0x010D
    1f56:	84 50       	subi	r24, 0x04	; 4
    1f58:	82 30       	cpi	r24, 0x02	; 2
    1f5a:	08 f0       	brcs	.+2      	; 0x0x1f5e
    1f5c:	ad c0       	rjmp	.+346    	; 0x0x20b8
    1f5e:	80 91 04 01 	lds	r24, 0x0104
    1f62:	84 30       	cpi	r24, 0x04	; 4
    1f64:	19 f0       	breq	.+6      	; 0x0x1f6c
    1f66:	85 e0       	ldi	r24, 0x05	; 5
    1f68:	80 93 04 01 	sts	0x0104, r24
    1f6c:	81 e0       	ldi	r24, 0x01	; 1
    1f6e:	80 93 0d 01 	sts	0x010D, r24
    1f72:	9f b7       	in	r25, 0x3f	; 63
    1f74:	f8 94       	cli
    1f76:	80 91 cd 01 	lds	r24, 0x01CD
    1f7a:	8f 3f       	cpi	r24, 0xFF	; 255
    1f7c:	99 f4       	brne	.+38     	; 0x0x1fa4
    1f7e:	80 91 d9 01 	lds	r24, 0x01D9
    1f82:	82 30       	cpi	r24, 0x02	; 2
    1f84:	09 f0       	breq	.+2      	; 0x0x1f88
    1f86:	4a c6       	rjmp	.+3220   	; 0x0x2c1c
    1f88:	0d c0       	rjmp	.+26     	; 0x0x1fa4
    1f8a:	82 e0       	ldi	r24, 0x02	; 2
    1f8c:	80 93 ca 01 	sts	0x01CA, r24
    1f90:	07 c0       	rjmp	.+14     	; 0x0x1fa0
    1f92:	e0 91 d9 01 	lds	r30, 0x01D9
    1f96:	ff 27       	eor	r31, r31
    1f98:	e5 53       	subi	r30, 0x35	; 53
    1f9a:	fe 4f       	sbci	r31, 0xFE	; 254
    1f9c:	82 e0       	ldi	r24, 0x02	; 2
    1f9e:	80 83       	st	Z, r24
    1fa0:	80 93 d9 01 	sts	0x01D9, r24
    1fa4:	89 2f       	mov	r24, r25
    1fa6:	99 27       	eor	r25, r25
    1fa8:	8f bf       	out	0x3f, r24	; 63
    1faa:	21 e0       	ldi	r18, 0x01	; 1
    1fac:	86 c0       	rjmp	.+268    	; 0x0x20ba
    1fae:	90 e0       	ldi	r25, 0x00	; 0
    1fb0:	80 91 8d 01 	lds	r24, 0x018D
    1fb4:	8f 31       	cpi	r24, 0x1F	; 31
    1fb6:	08 f0       	brcs	.+2      	; 0x0x1fba
    1fb8:	91 e0       	ldi	r25, 0x01	; 1
    1fba:	99 23       	and	r25, r25
    1fbc:	09 f4       	brne	.+2      	; 0x0x1fc0
    1fbe:	7c c0       	rjmp	.+248    	; 0x0x20b8
    1fc0:	90 e0       	ldi	r25, 0x00	; 0
    1fc2:	80 91 91 01 	lds	r24, 0x0191
    1fc6:	83 30       	cpi	r24, 0x03	; 3
    1fc8:	09 f4       	brne	.+2      	; 0x0x1fcc
    1fca:	91 e0       	ldi	r25, 0x01	; 1
    1fcc:	99 23       	and	r25, r25
    1fce:	09 f0       	breq	.+2      	; 0x0x1fd2
    1fd0:	73 c0       	rjmp	.+230    	; 0x0x20b8
    1fd2:	6f e3       	ldi	r22, 0x3F	; 63
    1fd4:	80 e0       	ldi	r24, 0x00	; 0
    1fd6:	0e 94 bd 01 	call	0x37a	; 0x0x37a
    1fda:	60 e0       	ldi	r22, 0x00	; 0
    1fdc:	8b e0       	ldi	r24, 0x0B	; 11
    1fde:	0e 94 bd 01 	call	0x37a	; 0x0x37a
    1fe2:	81 e0       	ldi	r24, 0x01	; 1
    1fe4:	80 93 91 01 	sts	0x0191, r24
    1fe8:	6f 98       	cbi	0x0d, 7	; 13
    1fea:	b8 9a       	sbi	0x17, 0	; 23
    1fec:	c0 98       	cbi	0x18, 0	; 24
    1fee:	80 91 04 01 	lds	r24, 0x0104
    1ff2:	84 30       	cpi	r24, 0x04	; 4
    1ff4:	19 f0       	breq	.+6      	; 0x0x1ffc
    1ff6:	85 e0       	ldi	r24, 0x05	; 5
    1ff8:	80 93 04 01 	sts	0x0104, r24
    1ffc:	10 93 0d 01 	sts	0x010D, r17
    2000:	60 91 53 01 	lds	r22, 0x0153
    2004:	70 91 54 01 	lds	r23, 0x0154
    2008:	ef b7       	in	r30, 0x3f	; 63
    200a:	f8 94       	cli
    200c:	82 b7       	in	r24, 0x32	; 50
    200e:	20 91 b4 01 	lds	r18, 0x01B4
    2012:	30 91 b5 01 	lds	r19, 0x01B5
    2016:	40 91 b6 01 	lds	r20, 0x01B6
    201a:	50 91 b7 01 	lds	r21, 0x01B7
    201e:	06 b6       	in	r0, 0x36	; 54
    2020:	01 fe       	sbrs	r0, 1
    2022:	0f c0       	rjmp	.+30     	; 0x0x2042
    2024:	81 b7       	in	r24, 0x31	; 49
    2026:	92 b7       	in	r25, 0x32	; 50
    2028:	28 0f       	add	r18, r24
    202a:	31 1d       	adc	r19, r1
    202c:	41 1d       	adc	r20, r1
    202e:	51 1d       	adc	r21, r1
    2030:	2f 5f       	subi	r18, 0xFF	; 255
    2032:	3f 4f       	sbci	r19, 0xFF	; 255
    2034:	4f 4f       	sbci	r20, 0xFF	; 255
    2036:	5f 4f       	sbci	r21, 0xFF	; 255
    2038:	29 0f       	add	r18, r25
    203a:	31 1d       	adc	r19, r1
    203c:	41 1d       	adc	r20, r1
    203e:	51 1d       	adc	r21, r1
    2040:	04 c0       	rjmp	.+8      	; 0x0x204a
    2042:	28 0f       	add	r18, r24
    2044:	31 1d       	adc	r19, r1
    2046:	41 1d       	adc	r20, r1
    2048:	51 1d       	adc	r21, r1
    204a:	8e 2f       	mov	r24, r30
    204c:	99 27       	eor	r25, r25
    204e:	8f bf       	out	0x3f, r24	; 63
    2050:	20 93 45 01 	sts	0x0145, r18
    2054:	30 93 46 01 	sts	0x0146, r19
    2058:	40 93 47 01 	sts	0x0147, r20
    205c:	50 93 48 01 	sts	0x0148, r21
    2060:	cb 01       	movw	r24, r22
    2062:	aa 27       	eor	r26, r26
    2064:	bb 27       	eor	r27, r27
    2066:	80 93 49 01 	sts	0x0149, r24
    206a:	90 93 4a 01 	sts	0x014A, r25
    206e:	a0 93 4b 01 	sts	0x014B, r26
    2072:	b0 93 4c 01 	sts	0x014C, r27
    2076:	80 91 4d 01 	lds	r24, 0x014D
    207a:	83 60       	ori	r24, 0x03	; 3
    207c:	80 93 4d 01 	sts	0x014D, r24
    2080:	9f b7       	in	r25, 0x3f	; 63
    2082:	f8 94       	cli
    2084:	80 91 cc 01 	lds	r24, 0x01CC
    2088:	8f 3f       	cpi	r24, 0xFF	; 255
    208a:	99 f4       	brne	.+38     	; 0x0x20b2
    208c:	80 91 d9 01 	lds	r24, 0x01D9
    2090:	81 30       	cpi	r24, 0x01	; 1
    2092:	09 f0       	breq	.+2      	; 0x0x2096
    2094:	c9 c5       	rjmp	.+2962   	; 0x0x2c28
    2096:	0d c0       	rjmp	.+26     	; 0x0x20b2
    2098:	81 e0       	ldi	r24, 0x01	; 1
    209a:	80 93 ca 01 	sts	0x01CA, r24
    209e:	07 c0       	rjmp	.+14     	; 0x0x20ae
    20a0:	e0 91 d9 01 	lds	r30, 0x01D9
    20a4:	ff 27       	eor	r31, r31
    20a6:	e5 53       	subi	r30, 0x35	; 53
    20a8:	fe 4f       	sbci	r31, 0xFE	; 254
    20aa:	81 e0       	ldi	r24, 0x01	; 1
    20ac:	80 83       	st	Z, r24
    20ae:	80 93 d9 01 	sts	0x01D9, r24
    20b2:	89 2f       	mov	r24, r25
    20b4:	99 27       	eor	r25, r25
    20b6:	8f bf       	out	0x3f, r24	; 63
    20b8:	20 e0       	ldi	r18, 0x00	; 0
    20ba:	80 2f       	mov	r24, r16
    20bc:	99 27       	eor	r25, r25
    20be:	8f bf       	out	0x3f, r24	; 63
    20c0:	22 23       	and	r18, r18
    20c2:	09 f4       	brne	.+2      	; 0x0x20c6
    20c4:	f6 c5       	rjmp	.+3052   	; 0x0x2cb2
    20c6:	6b e3       	ldi	r22, 0x3B	; 59
    20c8:	80 e0       	ldi	r24, 0x00	; 0
    20ca:	0e 94 bd 01 	call	0x37a	; 0x0x37a
    20ce:	80 ed       	ldi	r24, 0xD0	; 208
    20d0:	97 e0       	ldi	r25, 0x07	; 7
    20d2:	01 97       	sbiw	r24, 0x01	; 1
    20d4:	01 96       	adiw	r24, 0x01	; 1
    20d6:	01 97       	sbiw	r24, 0x01	; 1
    20d8:	e1 f7       	brne	.-8      	; 0x0x20d2
    20da:	69 e3       	ldi	r22, 0x39	; 57
    20dc:	80 e0       	ldi	r24, 0x00	; 0
    20de:	0e 94 bd 01 	call	0x37a	; 0x0x37a
    20e2:	88 ec       	ldi	r24, 0xC8	; 200
    20e4:	90 e0       	ldi	r25, 0x00	; 0
    20e6:	01 97       	sbiw	r24, 0x01	; 1
    20e8:	01 96       	adiw	r24, 0x01	; 1
    20ea:	01 97       	sbiw	r24, 0x01	; 1
    20ec:	e1 f7       	brne	.-8      	; 0x0x20e6
    20ee:	0f b7       	in	r16, 0x3f	; 63
    20f0:	f8 94       	cli
    20f2:	11 27       	eor	r17, r17
    20f4:	82 e0       	ldi	r24, 0x02	; 2
    20f6:	80 93 91 01 	sts	0x0191, r24
    20fa:	10 92 8c 01 	sts	0x018C, r1
    20fe:	10 92 8b 01 	sts	0x018B, r1
    2102:	0e 94 80 05 	call	0xb00	; 0x0xb00
    2106:	bb 98       	cbi	0x17, 3	; 23
    2108:	ba 98       	cbi	0x17, 2	; 23
    210a:	80 ec       	ldi	r24, 0xC0	; 192
    210c:	8d b9       	out	0x0d, r24	; 13
    210e:	b8 98       	cbi	0x17, 0	; 23
    2110:	7a c0       	rjmp	.+244    	; 0x0x2206
    2112:	8f b7       	in	r24, 0x3f	; 63
    2114:	f8 94       	cli
    2116:	99 27       	eor	r25, r25
    2118:	20 91 8f 01 	lds	r18, 0x018F
    211c:	30 91 90 01 	lds	r19, 0x0190
    2120:	8f bf       	out	0x3f, r24	; 63
    2122:	80 91 58 01 	lds	r24, 0x0158
    2126:	e8 2f       	mov	r30, r24
    2128:	ff 27       	eor	r31, r31
    212a:	ee 0f       	add	r30, r30
    212c:	ff 1f       	adc	r31, r31
    212e:	e3 56       	subi	r30, 0x63	; 99
    2130:	fe 4f       	sbci	r31, 0xFE	; 254
    2132:	31 83       	std	Z+1, r19	; 0x01
    2134:	20 83       	st	Z, r18
    2136:	8f 5f       	subi	r24, 0xFF	; 255
    2138:	80 93 58 01 	sts	0x0158, r24
    213c:	89 30       	cpi	r24, 0x09	; 9
    213e:	10 f0       	brcs	.+4      	; 0x0x2144
    2140:	10 92 58 01 	sts	0x0158, r1
    2144:	80 91 8d 01 	lds	r24, 0x018D
    2148:	8f 31       	cpi	r24, 0x1F	; 31
    214a:	18 f4       	brcc	.+6      	; 0x0x2152
    214c:	8f 5f       	subi	r24, 0xFF	; 255
    214e:	80 93 8d 01 	sts	0x018D, r24
    2152:	de 01       	movw	r26, r28
    2154:	11 96       	adiw	r26, 0x01	; 1
    2156:	ed e9       	ldi	r30, 0x9D	; 157
    2158:	f1 e0       	ldi	r31, 0x01	; 1
    215a:	82 e1       	ldi	r24, 0x12	; 18
    215c:	01 90       	ld	r0, Z+
    215e:	0d 92       	st	X+, r0
    2160:	81 50       	subi	r24, 0x01	; 1
    2162:	e1 f7       	brne	.-8      	; 0x0x215c
    2164:	60 e0       	ldi	r22, 0x00	; 0
    2166:	8e 01       	movw	r16, r28
    2168:	0f 5f       	subi	r16, 0xFF	; 255
    216a:	1f 4f       	sbci	r17, 0xFF	; 255
    216c:	41 e0       	ldi	r20, 0x01	; 1
    216e:	50 e0       	ldi	r21, 0x00	; 0
    2170:	de 01       	movw	r26, r28
    2172:	13 96       	adiw	r26, 0x03	; 3
    2174:	e5 2f       	mov	r30, r21
    2176:	ff 27       	eor	r31, r31
    2178:	ee 0f       	add	r30, r30
    217a:	ff 1f       	adc	r31, r31
    217c:	e0 0f       	add	r30, r16
    217e:	f1 1f       	adc	r31, r17
    2180:	2d 91       	ld	r18, X+
    2182:	3c 91       	ld	r19, X
    2184:	11 97       	sbiw	r26, 0x01	; 1
    2186:	80 81       	ld	r24, Z
    2188:	91 81       	ldd	r25, Z+1	; 0x01
    218a:	82 17       	cp	r24, r18
    218c:	93 07       	cpc	r25, r19
    218e:	08 f4       	brcc	.+2      	; 0x0x2192
    2190:	54 2f       	mov	r21, r20
    2192:	4f 5f       	subi	r20, 0xFF	; 255
    2194:	12 96       	adiw	r26, 0x02	; 2
    2196:	49 30       	cpi	r20, 0x09	; 9
    2198:	69 f7       	brne	.-38     	; 0x0x2174
    219a:	e5 2f       	mov	r30, r21
    219c:	ff 27       	eor	r31, r31
    219e:	63 30       	cpi	r22, 0x03	; 3
    21a0:	41 f0       	breq	.+16     	; 0x0x21b2
    21a2:	ee 0f       	add	r30, r30
    21a4:	ff 1f       	adc	r31, r31
    21a6:	e0 0f       	add	r30, r16
    21a8:	f1 1f       	adc	r31, r17
    21aa:	11 82       	std	Z+1, r1	; 0x01
    21ac:	10 82       	st	Z, r1
    21ae:	6f 5f       	subi	r22, 0xFF	; 255
    21b0:	dd cf       	rjmp	.-70     	; 0x0x216c
    21b2:	60 91 05 01 	lds	r22, 0x0105
    21b6:	70 91 06 01 	lds	r23, 0x0106
    21ba:	88 27       	eor	r24, r24
    21bc:	99 27       	eor	r25, r25
    21be:	35 e0       	ldi	r19, 0x05	; 5
    21c0:	66 0f       	add	r22, r22
    21c2:	77 1f       	adc	r23, r23
    21c4:	88 1f       	adc	r24, r24
    21c6:	99 1f       	adc	r25, r25
    21c8:	3a 95       	dec	r19
    21ca:	d1 f7       	brne	.-12     	; 0x0x21c0
    21cc:	ee 0f       	add	r30, r30
    21ce:	ff 1f       	adc	r31, r31
    21d0:	e0 0f       	add	r30, r16
    21d2:	f1 1f       	adc	r31, r17
    21d4:	20 81       	ld	r18, Z
    21d6:	31 81       	ldd	r19, Z+1	; 0x01
    21d8:	44 27       	eor	r20, r20
    21da:	55 27       	eor	r21, r21
    21dc:	22 0f       	add	r18, r18
    21de:	33 1f       	adc	r19, r19
    21e0:	44 1f       	adc	r20, r20
    21e2:	55 1f       	adc	r21, r21
    21e4:	62 0f       	add	r22, r18
    21e6:	73 1f       	adc	r23, r19
    21e8:	84 1f       	adc	r24, r20
    21ea:	95 1f       	adc	r25, r21
    21ec:	0f b7       	in	r16, 0x3f	; 63
    21ee:	f8 94       	cli
    21f0:	11 27       	eor	r17, r17
    21f2:	22 e2       	ldi	r18, 0x22	; 34
    21f4:	30 e0       	ldi	r19, 0x00	; 0
    21f6:	40 e0       	ldi	r20, 0x00	; 0
    21f8:	50 e0       	ldi	r21, 0x00	; 0
    21fa:	0e 94 eb 37 	call	0x6fd6	; 0x0x6fd6
    21fe:	30 93 06 01 	sts	0x0106, r19
    2202:	20 93 05 01 	sts	0x0105, r18
    2206:	0f bf       	out	0x3f, r16	; 63
    2208:	54 c5       	rjmp	.+2728   	; 0x0x2cb2
    220a:	2f b7       	in	r18, 0x3f	; 63
    220c:	f8 94       	cli
    220e:	33 27       	eor	r19, r19
    2210:	40 91 59 01 	lds	r20, 0x0159
    2214:	50 91 5a 01 	lds	r21, 0x015A
    2218:	80 91 dd 01 	lds	r24, 0x01DD
    221c:	8d 7f       	andi	r24, 0xFD	; 253
    221e:	80 93 dd 01 	sts	0x01DD, r24
    2222:	82 e0       	ldi	r24, 0x02	; 2
    2224:	80 93 91 01 	sts	0x0191, r24
    2228:	10 92 8c 01 	sts	0x018C, r1
    222c:	10 92 8b 01 	sts	0x018B, r1
    2230:	2f bf       	out	0x3f, r18	; 63
    2232:	80 91 0a 01 	lds	r24, 0x010A
    2236:	88 23       	and	r24, r24
    2238:	09 f0       	breq	.+2      	; 0x0x223c
    223a:	3b c5       	rjmp	.+2678   	; 0x0x2cb2
    223c:	80 91 50 01 	lds	r24, 0x0150
    2240:	90 91 51 01 	lds	r25, 0x0151
    2244:	84 17       	cp	r24, r20
    2246:	95 07       	cpc	r25, r21
    2248:	09 f0       	breq	.+2      	; 0x0x224c
    224a:	33 c5       	rjmp	.+2662   	; 0x0x2cb2
    224c:	10 92 51 01 	sts	0x0151, r1
    2250:	10 92 50 01 	sts	0x0150, r1
    2254:	46 c3       	rjmp	.+1676   	; 0x0x28e2
    2256:	8f b7       	in	r24, 0x3f	; 63
    2258:	f8 94       	cli
    225a:	28 2f       	mov	r18, r24
    225c:	33 27       	eor	r19, r19
    225e:	80 91 91 01 	lds	r24, 0x0191
    2262:	85 30       	cpi	r24, 0x05	; 5
    2264:	09 f0       	breq	.+2      	; 0x0x2268
    2266:	24 c5       	rjmp	.+2632   	; 0x0x2cb0
    2268:	40 91 02 01 	lds	r20, 0x0102
    226c:	50 91 03 01 	lds	r21, 0x0103
    2270:	5c 8f       	std	Y+28, r21	; 0x1c
    2272:	4b 8f       	std	Y+27, r20	; 0x1b
    2274:	2f bf       	out	0x3f, r18	; 63
    2276:	7a 01       	movw	r14, r20
    2278:	87 e0       	ldi	r24, 0x07	; 7
    227a:	90 e0       	ldi	r25, 0x00	; 0
    227c:	e8 0e       	add	r14, r24
    227e:	f9 1e       	adc	r15, r25
    2280:	fa 01       	movw	r30, r20
    2282:	a4 81       	ldd	r26, Z+4	; 0x04
    2284:	80 81       	ld	r24, Z
    2286:	41 81       	ldd	r20, Z+1	; 0x01
    2288:	2f b7       	in	r18, 0x3f	; 63
    228a:	f8 94       	cli
    228c:	33 27       	eor	r19, r19
    228e:	60 91 08 01 	lds	r22, 0x0108
    2292:	70 91 09 01 	lds	r23, 0x0109
    2296:	2f bf       	out	0x3f, r18	; 63
    2298:	99 27       	eor	r25, r25
    229a:	98 2f       	mov	r25, r24
    229c:	88 27       	eor	r24, r24
    229e:	55 27       	eor	r21, r21
    22a0:	84 2b       	or	r24, r20
    22a2:	95 2b       	or	r25, r21
    22a4:	86 17       	cp	r24, r22
    22a6:	97 07       	cpc	r25, r23
    22a8:	61 f0       	breq	.+24     	; 0x0x22c2
    22aa:	80 81       	ld	r24, Z
    22ac:	21 81       	ldd	r18, Z+1	; 0x01
    22ae:	99 27       	eor	r25, r25
    22b0:	98 2f       	mov	r25, r24
    22b2:	88 27       	eor	r24, r24
    22b4:	33 27       	eor	r19, r19
    22b6:	82 2b       	or	r24, r18
    22b8:	93 2b       	or	r25, r19
    22ba:	8f 5f       	subi	r24, 0xFF	; 255
    22bc:	9f 4f       	sbci	r25, 0xFF	; 255
    22be:	09 f0       	breq	.+2      	; 0x0x22c2
    22c0:	3a c2       	rjmp	.+1140   	; 0x0x2736
    22c2:	eb 8d       	ldd	r30, Y+27	; 0x1b
    22c4:	fc 8d       	ldd	r31, Y+28	; 0x1c
    22c6:	86 81       	ldd	r24, Z+6	; 0x06
    22c8:	82 39       	cpi	r24, 0x92	; 146
    22ca:	09 f0       	breq	.+2      	; 0x0x22ce
    22cc:	34 c2       	rjmp	.+1128   	; 0x0x2736
    22ce:	ac 30       	cpi	r26, 0x0C	; 12
    22d0:	09 f0       	breq	.+2      	; 0x0x22d4
    22d2:	31 c2       	rjmp	.+1122   	; 0x0x2736
    22d4:	6f b7       	in	r22, 0x3f	; 63
    22d6:	f8 94       	cli
    22d8:	82 b7       	in	r24, 0x32	; 50
    22da:	20 91 b4 01 	lds	r18, 0x01B4
    22de:	30 91 b5 01 	lds	r19, 0x01B5
    22e2:	40 91 b6 01 	lds	r20, 0x01B6
    22e6:	50 91 b7 01 	lds	r21, 0x01B7
    22ea:	06 b6       	in	r0, 0x36	; 54
    22ec:	01 fe       	sbrs	r0, 1
    22ee:	0f c0       	rjmp	.+30     	; 0x0x230e
    22f0:	81 b7       	in	r24, 0x31	; 49
    22f2:	92 b7       	in	r25, 0x32	; 50
    22f4:	28 0f       	add	r18, r24
    22f6:	31 1d       	adc	r19, r1
    22f8:	41 1d       	adc	r20, r1
    22fa:	51 1d       	adc	r21, r1
    22fc:	2f 5f       	subi	r18, 0xFF	; 255
    22fe:	3f 4f       	sbci	r19, 0xFF	; 255
    2300:	4f 4f       	sbci	r20, 0xFF	; 255
    2302:	5f 4f       	sbci	r21, 0xFF	; 255
    2304:	29 0f       	add	r18, r25
    2306:	31 1d       	adc	r19, r1
    2308:	41 1d       	adc	r20, r1
    230a:	51 1d       	adc	r21, r1
    230c:	04 c0       	rjmp	.+8      	; 0x0x2316
    230e:	28 0f       	add	r18, r24
    2310:	31 1d       	adc	r19, r1
    2312:	41 1d       	adc	r20, r1
    2314:	51 1d       	adc	r21, r1
    2316:	86 2f       	mov	r24, r22
    2318:	99 27       	eor	r25, r25
    231a:	8f bf       	out	0x3f, r24	; 63
    231c:	80 91 c0 01 	lds	r24, 0x01C0
    2320:	90 91 c1 01 	lds	r25, 0x01C1
    2324:	a0 91 c2 01 	lds	r26, 0x01C2
    2328:	b0 91 c3 01 	lds	r27, 0x01C3
    232c:	28 1b       	sub	r18, r24
    232e:	39 0b       	sbc	r19, r25
    2330:	4a 0b       	sbc	r20, r26
    2332:	5b 0b       	sbc	r21, r27
    2334:	2b 8b       	std	Y+19, r18	; 0x13
    2336:	3c 8b       	std	Y+20, r19	; 0x14
    2338:	4d 8b       	std	Y+21, r20	; 0x15
    233a:	5e 8b       	std	Y+22, r21	; 0x16
    233c:	20 93 c0 01 	sts	0x01C0, r18
    2340:	30 93 c1 01 	sts	0x01C1, r19
    2344:	40 93 c2 01 	sts	0x01C2, r20
    2348:	50 93 c3 01 	sts	0x01C3, r21
    234c:	f7 01       	movw	r30, r14
    234e:	84 81       	ldd	r24, Z+4	; 0x04
    2350:	15 81       	ldd	r17, Z+5	; 0x05
    2352:	46 80       	ldd	r4, Z+6	; 0x06
    2354:	57 80       	ldd	r5, Z+7	; 0x07
    2356:	70 84       	ldd	r7, Z+8	; 0x08
    2358:	31 84       	ldd	r3, Z+9	; 0x09
    235a:	62 84       	ldd	r6, Z+10	; 0x0a
    235c:	e3 84       	ldd	r14, Z+11	; 0x0b
    235e:	ea 8e       	std	Y+26, r14	; 0x1a
    2360:	99 24       	eor	r9, r9
    2362:	aa 24       	eor	r10, r10
    2364:	bb 24       	eor	r11, r11
    2366:	cc 24       	eor	r12, r12
    2368:	dd 24       	eor	r13, r13
    236a:	ee 24       	eor	r14, r14
    236c:	ff 24       	eor	r15, r15
    236e:	08 e3       	ldi	r16, 0x38	; 56
    2370:	28 2f       	mov	r18, r24
    2372:	39 2d       	mov	r19, r9
    2374:	4a 2d       	mov	r20, r10
    2376:	5b 2d       	mov	r21, r11
    2378:	6c 2d       	mov	r22, r12
    237a:	7d 2d       	mov	r23, r13
    237c:	8e 2d       	mov	r24, r14
    237e:	9f 2d       	mov	r25, r15
    2380:	0e 94 42 37 	call	0x6e84	; 0x0x6e84
    2384:	2f ab       	std	Y+55, r18	; 0x37
    2386:	38 af       	std	Y+56, r19	; 0x38
    2388:	49 af       	std	Y+57, r20	; 0x39
    238a:	5a af       	std	Y+58, r21	; 0x3a
    238c:	6b af       	std	Y+59, r22	; 0x3b
    238e:	7c af       	std	Y+60, r23	; 0x3c
    2390:	8d af       	std	Y+61, r24	; 0x3d
    2392:	9e af       	std	Y+62, r25	; 0x3e
    2394:	00 e3       	ldi	r16, 0x30	; 48
    2396:	21 2f       	mov	r18, r17
    2398:	39 2d       	mov	r19, r9
    239a:	4a 2d       	mov	r20, r10
    239c:	5b 2d       	mov	r21, r11
    239e:	6c 2d       	mov	r22, r12
    23a0:	7d 2d       	mov	r23, r13
    23a2:	8e 2d       	mov	r24, r14
    23a4:	9f 2d       	mov	r25, r15
    23a6:	0e 94 42 37 	call	0x6e84	; 0x0x6e84
    23aa:	08 2f       	mov	r16, r24
    23ac:	19 2f       	mov	r17, r25
    23ae:	ff a9       	ldd	r31, Y+55	; 0x37
    23b0:	f2 2b       	or	r31, r18
    23b2:	ff af       	std	Y+63, r31	; 0x3f
    23b4:	28 ad       	ldd	r18, Y+56	; 0x38
    23b6:	23 2b       	or	r18, r19
    23b8:	21 96       	adiw	r28, 0x01	; 1
    23ba:	2f af       	std	Y+63, r18	; 0x3f
    23bc:	21 97       	sbiw	r28, 0x01	; 1
    23be:	39 ad       	ldd	r19, Y+57	; 0x39
    23c0:	34 2b       	or	r19, r20
    23c2:	22 96       	adiw	r28, 0x02	; 2
    23c4:	3f af       	std	Y+63, r19	; 0x3f
    23c6:	22 97       	sbiw	r28, 0x02	; 2
    23c8:	4a ad       	ldd	r20, Y+58	; 0x3a
    23ca:	45 2b       	or	r20, r21
    23cc:	23 96       	adiw	r28, 0x03	; 3
    23ce:	4f af       	std	Y+63, r20	; 0x3f
    23d0:	23 97       	sbiw	r28, 0x03	; 3
    23d2:	5b ad       	ldd	r21, Y+59	; 0x3b
    23d4:	56 2b       	or	r21, r22
    23d6:	24 96       	adiw	r28, 0x04	; 4
    23d8:	5f af       	std	Y+63, r21	; 0x3f
    23da:	24 97       	sbiw	r28, 0x04	; 4
    23dc:	8c ad       	ldd	r24, Y+60	; 0x3c
    23de:	87 2b       	or	r24, r23
    23e0:	25 96       	adiw	r28, 0x05	; 5
    23e2:	8f af       	std	Y+63, r24	; 0x3f
    23e4:	25 97       	sbiw	r28, 0x05	; 5
    23e6:	9d ad       	ldd	r25, Y+61	; 0x3d
    23e8:	90 2b       	or	r25, r16
    23ea:	26 96       	adiw	r28, 0x06	; 6
    23ec:	9f af       	std	Y+63, r25	; 0x3f
    23ee:	26 97       	sbiw	r28, 0x06	; 6
    23f0:	ae ad       	ldd	r26, Y+62	; 0x3e
    23f2:	a1 2b       	or	r26, r17
    23f4:	27 96       	adiw	r28, 0x07	; 7
    23f6:	af af       	std	Y+63, r26	; 0x3f
    23f8:	27 97       	sbiw	r28, 0x07	; 7
    23fa:	aa 24       	eor	r10, r10
    23fc:	bb 24       	eor	r11, r11
    23fe:	cc 24       	eor	r12, r12
    2400:	dd 24       	eor	r13, r13
    2402:	ee 24       	eor	r14, r14
    2404:	ff 24       	eor	r15, r15
    2406:	08 e1       	ldi	r16, 0x18	; 24
    2408:	27 2d       	mov	r18, r7
    240a:	39 2d       	mov	r19, r9
    240c:	4a 2d       	mov	r20, r10
    240e:	5b 2d       	mov	r21, r11
    2410:	6c 2d       	mov	r22, r12
    2412:	7d 2d       	mov	r23, r13
    2414:	8e 2d       	mov	r24, r14
    2416:	9f 2d       	mov	r25, r15
    2418:	0e 94 42 37 	call	0x6e84	; 0x0x6e84
    241c:	bf ad       	ldd	r27, Y+63	; 0x3f
    241e:	b2 2b       	or	r27, r18
    2420:	28 96       	adiw	r28, 0x08	; 8
    2422:	bf af       	std	Y+63, r27	; 0x3f
    2424:	28 97       	sbiw	r28, 0x08	; 8
    2426:	21 96       	adiw	r28, 0x01	; 1
    2428:	ef ad       	ldd	r30, Y+63	; 0x3f
    242a:	21 97       	sbiw	r28, 0x01	; 1
    242c:	e3 2b       	or	r30, r19
    242e:	29 96       	adiw	r28, 0x09	; 9
    2430:	ef af       	std	Y+63, r30	; 0x3f
    2432:	29 97       	sbiw	r28, 0x09	; 9
    2434:	22 96       	adiw	r28, 0x02	; 2
    2436:	ff ad       	ldd	r31, Y+63	; 0x3f
    2438:	22 97       	sbiw	r28, 0x02	; 2
    243a:	f4 2b       	or	r31, r20
    243c:	2a 96       	adiw	r28, 0x0a	; 10
    243e:	ff af       	std	Y+63, r31	; 0x3f
    2440:	2a 97       	sbiw	r28, 0x0a	; 10
    2442:	23 96       	adiw	r28, 0x03	; 3
    2444:	2f ad       	ldd	r18, Y+63	; 0x3f
    2446:	23 97       	sbiw	r28, 0x03	; 3
    2448:	25 2b       	or	r18, r21
    244a:	2b 96       	adiw	r28, 0x0b	; 11
    244c:	2f af       	std	Y+63, r18	; 0x3f
    244e:	2b 97       	sbiw	r28, 0x0b	; 11
    2450:	24 96       	adiw	r28, 0x04	; 4
    2452:	3f ad       	ldd	r19, Y+63	; 0x3f
    2454:	24 97       	sbiw	r28, 0x04	; 4
    2456:	36 2b       	or	r19, r22
    2458:	2c 96       	adiw	r28, 0x0c	; 12
    245a:	3f af       	std	Y+63, r19	; 0x3f
    245c:	2c 97       	sbiw	r28, 0x0c	; 12
    245e:	25 96       	adiw	r28, 0x05	; 5
    2460:	4f ad       	ldd	r20, Y+63	; 0x3f
    2462:	25 97       	sbiw	r28, 0x05	; 5
    2464:	47 2b       	or	r20, r23
    2466:	2d 96       	adiw	r28, 0x0d	; 13
    2468:	4f af       	std	Y+63, r20	; 0x3f
    246a:	2d 97       	sbiw	r28, 0x0d	; 13
    246c:	26 96       	adiw	r28, 0x06	; 6
    246e:	5f ad       	ldd	r21, Y+63	; 0x3f
    2470:	26 97       	sbiw	r28, 0x06	; 6
    2472:	58 2b       	or	r21, r24
    2474:	2e 96       	adiw	r28, 0x0e	; 14
    2476:	5f af       	std	Y+63, r21	; 0x3f
    2478:	2e 97       	sbiw	r28, 0x0e	; 14
    247a:	27 96       	adiw	r28, 0x07	; 7
    247c:	8f ad       	ldd	r24, Y+63	; 0x3f
    247e:	27 97       	sbiw	r28, 0x07	; 7
    2480:	89 2b       	or	r24, r25
    2482:	2f 96       	adiw	r28, 0x0f	; 15
    2484:	8f af       	std	Y+63, r24	; 0x3f
    2486:	2f 97       	sbiw	r28, 0x0f	; 15
    2488:	aa 24       	eor	r10, r10
    248a:	bb 24       	eor	r11, r11
    248c:	cc 24       	eor	r12, r12
    248e:	dd 24       	eor	r13, r13
    2490:	ee 24       	eor	r14, r14
    2492:	ff 24       	eor	r15, r15
    2494:	08 e0       	ldi	r16, 0x08	; 8
    2496:	26 2d       	mov	r18, r6
    2498:	39 2d       	mov	r19, r9
    249a:	4a 2d       	mov	r20, r10
    249c:	5b 2d       	mov	r21, r11
    249e:	6c 2d       	mov	r22, r12
    24a0:	7d 2d       	mov	r23, r13
    24a2:	8e 2d       	mov	r24, r14
    24a4:	9f 2d       	mov	r25, r15
    24a6:	0e 94 42 37 	call	0x6e84	; 0x0x6e84
    24aa:	a2 2e       	mov	r10, r18
    24ac:	b3 2e       	mov	r11, r19
    24ae:	c4 2e       	mov	r12, r20
    24b0:	d5 2e       	mov	r13, r21
    24b2:	e6 2e       	mov	r14, r22
    24b4:	f7 2e       	mov	r15, r23
    24b6:	08 2f       	mov	r16, r24
    24b8:	19 2f       	mov	r17, r25
    24ba:	28 96       	adiw	r28, 0x08	; 8
    24bc:	9f ad       	ldd	r25, Y+63	; 0x3f
    24be:	28 97       	sbiw	r28, 0x08	; 8
    24c0:	9a 29       	or	r25, r10
    24c2:	60 96       	adiw	r28, 0x10	; 16
    24c4:	9f af       	std	Y+63, r25	; 0x3f
    24c6:	60 97       	sbiw	r28, 0x10	; 16
    24c8:	29 96       	adiw	r28, 0x09	; 9
    24ca:	af ad       	ldd	r26, Y+63	; 0x3f
    24cc:	29 97       	sbiw	r28, 0x09	; 9
    24ce:	ab 29       	or	r26, r11
    24d0:	61 96       	adiw	r28, 0x11	; 17
    24d2:	af af       	std	Y+63, r26	; 0x3f
    24d4:	61 97       	sbiw	r28, 0x11	; 17
    24d6:	2a 96       	adiw	r28, 0x0a	; 10
    24d8:	bf ad       	ldd	r27, Y+63	; 0x3f
    24da:	2a 97       	sbiw	r28, 0x0a	; 10
    24dc:	bc 29       	or	r27, r12
    24de:	62 96       	adiw	r28, 0x12	; 18
    24e0:	bf af       	std	Y+63, r27	; 0x3f
    24e2:	62 97       	sbiw	r28, 0x12	; 18
    24e4:	2b 96       	adiw	r28, 0x0b	; 11
    24e6:	ef ad       	ldd	r30, Y+63	; 0x3f
    24e8:	2b 97       	sbiw	r28, 0x0b	; 11
    24ea:	ed 29       	or	r30, r13
    24ec:	63 96       	adiw	r28, 0x13	; 19
    24ee:	ef af       	std	Y+63, r30	; 0x3f
    24f0:	63 97       	sbiw	r28, 0x13	; 19
    24f2:	2c 96       	adiw	r28, 0x0c	; 12
    24f4:	ff ad       	ldd	r31, Y+63	; 0x3f
    24f6:	2c 97       	sbiw	r28, 0x0c	; 12
    24f8:	fe 29       	or	r31, r14
    24fa:	64 96       	adiw	r28, 0x14	; 20
    24fc:	ff af       	std	Y+63, r31	; 0x3f
    24fe:	64 97       	sbiw	r28, 0x14	; 20
    2500:	2d 96       	adiw	r28, 0x0d	; 13
    2502:	2f ad       	ldd	r18, Y+63	; 0x3f
    2504:	2d 97       	sbiw	r28, 0x0d	; 13
    2506:	2f 29       	or	r18, r15
    2508:	65 96       	adiw	r28, 0x15	; 21
    250a:	2f af       	std	Y+63, r18	; 0x3f
    250c:	65 97       	sbiw	r28, 0x15	; 21
    250e:	2e 96       	adiw	r28, 0x0e	; 14
    2510:	3f ad       	ldd	r19, Y+63	; 0x3f
    2512:	2e 97       	sbiw	r28, 0x0e	; 14
    2514:	30 2b       	or	r19, r16
    2516:	66 96       	adiw	r28, 0x16	; 22
    2518:	3f af       	std	Y+63, r19	; 0x3f
    251a:	66 97       	sbiw	r28, 0x16	; 22
    251c:	2f 96       	adiw	r28, 0x0f	; 15
    251e:	4f ad       	ldd	r20, Y+63	; 0x3f
    2520:	2f 97       	sbiw	r28, 0x0f	; 15
    2522:	41 2b       	or	r20, r17
    2524:	67 96       	adiw	r28, 0x17	; 23
    2526:	4f af       	std	Y+63, r20	; 0x3f
    2528:	67 97       	sbiw	r28, 0x17	; 23
    252a:	aa 24       	eor	r10, r10
    252c:	bb 24       	eor	r11, r11
    252e:	cc 24       	eor	r12, r12
    2530:	dd 24       	eor	r13, r13
    2532:	ee 24       	eor	r14, r14
    2534:	ff 24       	eor	r15, r15
    2536:	00 e2       	ldi	r16, 0x20	; 32
    2538:	25 2d       	mov	r18, r5
    253a:	39 2d       	mov	r19, r9
    253c:	4a 2d       	mov	r20, r10
    253e:	5b 2d       	mov	r21, r11
    2540:	6c 2d       	mov	r22, r12
    2542:	7d 2d       	mov	r23, r13
    2544:	8e 2d       	mov	r24, r14
    2546:	9f 2d       	mov	r25, r15
    2548:	0e 94 42 37 	call	0x6e84	; 0x0x6e84
    254c:	68 96       	adiw	r28, 0x18	; 24
    254e:	2f af       	std	Y+63, r18	; 0x3f
    2550:	68 97       	sbiw	r28, 0x18	; 24
    2552:	69 96       	adiw	r28, 0x19	; 25
    2554:	3f af       	std	Y+63, r19	; 0x3f
    2556:	69 97       	sbiw	r28, 0x19	; 25
    2558:	6a 96       	adiw	r28, 0x1a	; 26
    255a:	4f af       	std	Y+63, r20	; 0x3f
    255c:	6a 97       	sbiw	r28, 0x1a	; 26
    255e:	6b 96       	adiw	r28, 0x1b	; 27
    2560:	5f af       	std	Y+63, r21	; 0x3f
    2562:	6b 97       	sbiw	r28, 0x1b	; 27
    2564:	6c 96       	adiw	r28, 0x1c	; 28
    2566:	6f af       	std	Y+63, r22	; 0x3f
    2568:	6c 97       	sbiw	r28, 0x1c	; 28
    256a:	6d 96       	adiw	r28, 0x1d	; 29
    256c:	7f af       	std	Y+63, r23	; 0x3f
    256e:	6d 97       	sbiw	r28, 0x1d	; 29
    2570:	6e 96       	adiw	r28, 0x1e	; 30
    2572:	8f af       	std	Y+63, r24	; 0x3f
    2574:	6e 97       	sbiw	r28, 0x1e	; 30
    2576:	6f 96       	adiw	r28, 0x1f	; 31
    2578:	9f af       	std	Y+63, r25	; 0x3f
    257a:	6f 97       	sbiw	r28, 0x1f	; 31
    257c:	08 e2       	ldi	r16, 0x28	; 40
    257e:	24 2d       	mov	r18, r4
    2580:	39 2d       	mov	r19, r9
    2582:	4a 2d       	mov	r20, r10
    2584:	5b 2d       	mov	r21, r11
    2586:	6c 2d       	mov	r22, r12
    2588:	7d 2d       	mov	r23, r13
    258a:	8e 2d       	mov	r24, r14
    258c:	9f 2d       	mov	r25, r15
    258e:	0e 94 42 37 	call	0x6e84	; 0x0x6e84
    2592:	a2 2e       	mov	r10, r18
    2594:	b3 2e       	mov	r11, r19
    2596:	c4 2e       	mov	r12, r20
    2598:	d5 2e       	mov	r13, r21
    259a:	e6 2e       	mov	r14, r22
    259c:	f7 2e       	mov	r15, r23
    259e:	08 2f       	mov	r16, r24
    25a0:	19 2f       	mov	r17, r25
    25a2:	68 96       	adiw	r28, 0x18	; 24
    25a4:	5f ad       	ldd	r21, Y+63	; 0x3f
    25a6:	68 97       	sbiw	r28, 0x18	; 24
    25a8:	5a 29       	or	r21, r10
    25aa:	a0 96       	adiw	r28, 0x20	; 32
    25ac:	5f af       	std	Y+63, r21	; 0x3f
    25ae:	a0 97       	sbiw	r28, 0x20	; 32
    25b0:	69 96       	adiw	r28, 0x19	; 25
    25b2:	8f ad       	ldd	r24, Y+63	; 0x3f
    25b4:	69 97       	sbiw	r28, 0x19	; 25
    25b6:	8b 29       	or	r24, r11
    25b8:	a1 96       	adiw	r28, 0x21	; 33
    25ba:	8f af       	std	Y+63, r24	; 0x3f
    25bc:	a1 97       	sbiw	r28, 0x21	; 33
    25be:	6a 96       	adiw	r28, 0x1a	; 26
    25c0:	9f ad       	ldd	r25, Y+63	; 0x3f
    25c2:	6a 97       	sbiw	r28, 0x1a	; 26
    25c4:	9c 29       	or	r25, r12
    25c6:	a2 96       	adiw	r28, 0x22	; 34
    25c8:	9f af       	std	Y+63, r25	; 0x3f
    25ca:	a2 97       	sbiw	r28, 0x22	; 34
    25cc:	6b 96       	adiw	r28, 0x1b	; 27
    25ce:	af ad       	ldd	r26, Y+63	; 0x3f
    25d0:	6b 97       	sbiw	r28, 0x1b	; 27
    25d2:	ad 29       	or	r26, r13
    25d4:	a3 96       	adiw	r28, 0x23	; 35
    25d6:	af af       	std	Y+63, r26	; 0x3f
    25d8:	a3 97       	sbiw	r28, 0x23	; 35
    25da:	6c 96       	adiw	r28, 0x1c	; 28
    25dc:	bf ad       	ldd	r27, Y+63	; 0x3f
    25de:	6c 97       	sbiw	r28, 0x1c	; 28
    25e0:	be 29       	or	r27, r14
    25e2:	a4 96       	adiw	r28, 0x24	; 36
    25e4:	bf af       	std	Y+63, r27	; 0x3f
    25e6:	a4 97       	sbiw	r28, 0x24	; 36
    25e8:	6d 96       	adiw	r28, 0x1d	; 29
    25ea:	ef ad       	ldd	r30, Y+63	; 0x3f
    25ec:	6d 97       	sbiw	r28, 0x1d	; 29
    25ee:	ef 29       	or	r30, r15
    25f0:	a5 96       	adiw	r28, 0x25	; 37
    25f2:	ef af       	std	Y+63, r30	; 0x3f
    25f4:	a5 97       	sbiw	r28, 0x25	; 37
    25f6:	6e 96       	adiw	r28, 0x1e	; 30
    25f8:	ff ad       	ldd	r31, Y+63	; 0x3f
    25fa:	6e 97       	sbiw	r28, 0x1e	; 30
    25fc:	f0 2b       	or	r31, r16
    25fe:	a6 96       	adiw	r28, 0x26	; 38
    2600:	ff af       	std	Y+63, r31	; 0x3f
    2602:	a6 97       	sbiw	r28, 0x26	; 38
    2604:	6f 96       	adiw	r28, 0x1f	; 31
    2606:	2f ad       	ldd	r18, Y+63	; 0x3f
    2608:	6f 97       	sbiw	r28, 0x1f	; 31
    260a:	21 2b       	or	r18, r17
    260c:	a7 96       	adiw	r28, 0x27	; 39
    260e:	2f af       	std	Y+63, r18	; 0x3f
    2610:	a7 97       	sbiw	r28, 0x27	; 39
    2612:	aa 24       	eor	r10, r10
    2614:	bb 24       	eor	r11, r11
    2616:	cc 24       	eor	r12, r12
    2618:	dd 24       	eor	r13, r13
    261a:	ee 24       	eor	r14, r14
    261c:	ff 24       	eor	r15, r15
    261e:	00 e1       	ldi	r16, 0x10	; 16
    2620:	23 2d       	mov	r18, r3
    2622:	39 2d       	mov	r19, r9
    2624:	4a 2d       	mov	r20, r10
    2626:	5b 2d       	mov	r21, r11
    2628:	6c 2d       	mov	r22, r12
    262a:	7d 2d       	mov	r23, r13
    262c:	8e 2d       	mov	r24, r14
    262e:	9f 2d       	mov	r25, r15
    2630:	0e 94 42 37 	call	0x6e84	; 0x0x6e84
    2634:	a0 96       	adiw	r28, 0x20	; 32
    2636:	2f ac       	ldd	r2, Y+63	; 0x3f
    2638:	a0 97       	sbiw	r28, 0x20	; 32
    263a:	22 2a       	or	r2, r18
    263c:	a1 96       	adiw	r28, 0x21	; 33
    263e:	3f ac       	ldd	r3, Y+63	; 0x3f
    2640:	a1 97       	sbiw	r28, 0x21	; 33
    2642:	33 2a       	or	r3, r19
    2644:	a2 96       	adiw	r28, 0x22	; 34
    2646:	4f ac       	ldd	r4, Y+63	; 0x3f
    2648:	a2 97       	sbiw	r28, 0x22	; 34
    264a:	44 2a       	or	r4, r20
    264c:	a3 96       	adiw	r28, 0x23	; 35
    264e:	5f ac       	ldd	r5, Y+63	; 0x3f
    2650:	a3 97       	sbiw	r28, 0x23	; 35
    2652:	55 2a       	or	r5, r21
    2654:	a4 96       	adiw	r28, 0x24	; 36
    2656:	6f ac       	ldd	r6, Y+63	; 0x3f
    2658:	a4 97       	sbiw	r28, 0x24	; 36
    265a:	66 2a       	or	r6, r22
    265c:	a5 96       	adiw	r28, 0x25	; 37
    265e:	7f ac       	ldd	r7, Y+63	; 0x3f
    2660:	a5 97       	sbiw	r28, 0x25	; 37
    2662:	77 2a       	or	r7, r23
    2664:	a6 96       	adiw	r28, 0x26	; 38
    2666:	8f ac       	ldd	r8, Y+63	; 0x3f
    2668:	a6 97       	sbiw	r28, 0x26	; 38
    266a:	88 2a       	or	r8, r24
    266c:	a7 96       	adiw	r28, 0x27	; 39
    266e:	9f ac       	ldd	r9, Y+63	; 0x3f
    2670:	a7 97       	sbiw	r28, 0x27	; 39
    2672:	99 2a       	or	r9, r25
    2674:	2a 8d       	ldd	r18, Y+26	; 0x1a
    2676:	30 e0       	ldi	r19, 0x00	; 0
    2678:	40 e0       	ldi	r20, 0x00	; 0
    267a:	50 e0       	ldi	r21, 0x00	; 0
    267c:	60 e0       	ldi	r22, 0x00	; 0
    267e:	70 e0       	ldi	r23, 0x00	; 0
    2680:	80 e0       	ldi	r24, 0x00	; 0
    2682:	90 e0       	ldi	r25, 0x00	; 0
    2684:	a2 2c       	mov	r10, r2
    2686:	a2 2a       	or	r10, r18
    2688:	b3 2c       	mov	r11, r3
    268a:	b3 2a       	or	r11, r19
    268c:	c4 2c       	mov	r12, r4
    268e:	c4 2a       	or	r12, r20
    2690:	d5 2c       	mov	r13, r5
    2692:	d5 2a       	or	r13, r21
    2694:	e6 2c       	mov	r14, r6
    2696:	e6 2a       	or	r14, r22
    2698:	f7 2c       	mov	r15, r7
    269a:	f7 2a       	or	r15, r23
    269c:	08 2d       	mov	r16, r8
    269e:	08 2b       	or	r16, r24
    26a0:	19 2d       	mov	r17, r9
    26a2:	19 2b       	or	r17, r25
    26a4:	60 96       	adiw	r28, 0x10	; 16
    26a6:	2f ad       	ldd	r18, Y+63	; 0x3f
    26a8:	60 97       	sbiw	r28, 0x10	; 16
    26aa:	2a 29       	or	r18, r10
    26ac:	61 96       	adiw	r28, 0x11	; 17
    26ae:	3f ad       	ldd	r19, Y+63	; 0x3f
    26b0:	61 97       	sbiw	r28, 0x11	; 17
    26b2:	3b 29       	or	r19, r11
    26b4:	62 96       	adiw	r28, 0x12	; 18
    26b6:	4f ad       	ldd	r20, Y+63	; 0x3f
    26b8:	62 97       	sbiw	r28, 0x12	; 18
    26ba:	4c 29       	or	r20, r12
    26bc:	63 96       	adiw	r28, 0x13	; 19
    26be:	5f ad       	ldd	r21, Y+63	; 0x3f
    26c0:	63 97       	sbiw	r28, 0x13	; 19
    26c2:	5d 29       	or	r21, r13
    26c4:	64 96       	adiw	r28, 0x14	; 20
    26c6:	6f ad       	ldd	r22, Y+63	; 0x3f
    26c8:	64 97       	sbiw	r28, 0x14	; 20
    26ca:	6e 29       	or	r22, r14
    26cc:	65 96       	adiw	r28, 0x15	; 21
    26ce:	7f ad       	ldd	r23, Y+63	; 0x3f
    26d0:	65 97       	sbiw	r28, 0x15	; 21
    26d2:	7f 29       	or	r23, r15
    26d4:	66 96       	adiw	r28, 0x16	; 22
    26d6:	8f ad       	ldd	r24, Y+63	; 0x3f
    26d8:	66 97       	sbiw	r28, 0x16	; 22
    26da:	80 2b       	or	r24, r16
    26dc:	67 96       	adiw	r28, 0x17	; 23
    26de:	9f ad       	ldd	r25, Y+63	; 0x3f
    26e0:	67 97       	sbiw	r28, 0x17	; 23
    26e2:	91 2b       	or	r25, r17
    26e4:	29 38       	cpi	r18, 0x89	; 137
    26e6:	71 f4       	brne	.+28     	; 0x0x2704
    26e8:	31 34       	cpi	r19, 0x41	; 65
    26ea:	61 f4       	brne	.+24     	; 0x0x2704
    26ec:	43 3e       	cpi	r20, 0xE3	; 227
    26ee:	51 f4       	brne	.+20     	; 0x0x2704
    26f0:	56 39       	cpi	r21, 0x96	; 150
    26f2:	41 f4       	brne	.+16     	; 0x0x2704
    26f4:	62 32       	cpi	r22, 0x22	; 34
    26f6:	31 f4       	brne	.+12     	; 0x0x2704
    26f8:	7e 3b       	cpi	r23, 0xBE	; 190
    26fa:	21 f4       	brne	.+8      	; 0x0x2704
    26fc:	8b 32       	cpi	r24, 0x2B	; 43
    26fe:	11 f4       	brne	.+4      	; 0x0x2704
    2700:	95 35       	cpi	r25, 0x55	; 85
    2702:	79 f0       	breq	.+30     	; 0x0x2722
    2704:	8b 89       	ldd	r24, Y+19	; 0x13
    2706:	9c 89       	ldd	r25, Y+20	; 0x14
    2708:	ad 89       	ldd	r26, Y+21	; 0x15
    270a:	be 89       	ldd	r27, Y+22	; 0x16
    270c:	80 55       	subi	r24, 0x50	; 80
    270e:	93 4c       	sbci	r25, 0xC3	; 195
    2710:	a0 40       	sbci	r26, 0x00	; 0
    2712:	b0 40       	sbci	r27, 0x00	; 0
    2714:	30 f4       	brcc	.+12     	; 0x0x2722
    2716:	8f b7       	in	r24, 0x3f	; 63
    2718:	f8 94       	cli
    271a:	99 27       	eor	r25, r25
    271c:	2b b3       	in	r18, 0x1b	; 27
    271e:	34 e0       	ldi	r19, 0x04	; 4
    2720:	05 c0       	rjmp	.+10     	; 0x0x272c
    2722:	8f b7       	in	r24, 0x3f	; 63
    2724:	f8 94       	cli
    2726:	99 27       	eor	r25, r25
    2728:	2b b3       	in	r18, 0x1b	; 27
    272a:	32 e0       	ldi	r19, 0x02	; 2
    272c:	23 27       	eor	r18, r19
    272e:	2b bb       	out	0x1b, r18	; 27
    2730:	8f bf       	out	0x3f, r24	; 63
    2732:	10 92 0c 01 	sts	0x010C, r1
    2736:	3f b7       	in	r19, 0x3f	; 63
    2738:	f8 94       	cli
    273a:	4b 8d       	ldd	r20, Y+27	; 0x1b
    273c:	5c 8d       	ldd	r21, Y+28	; 0x1c
    273e:	41 15       	cp	r20, r1
    2740:	51 05       	cpc	r21, r1
    2742:	21 f0       	breq	.+8      	; 0x0x274c
    2744:	50 93 03 01 	sts	0x0103, r21
    2748:	40 93 02 01 	sts	0x0102, r20
    274c:	80 91 91 01 	lds	r24, 0x0191
    2750:	85 30       	cpi	r24, 0x05	; 5
    2752:	39 f4       	brne	.+14     	; 0x0x2762
    2754:	82 e0       	ldi	r24, 0x02	; 2
    2756:	80 93 91 01 	sts	0x0191, r24
    275a:	10 92 8c 01 	sts	0x018C, r1
    275e:	10 92 8b 01 	sts	0x018B, r1
    2762:	20 91 0d 01 	lds	r18, 0x010D
    2766:	22 30       	cpi	r18, 0x02	; 2
    2768:	09 f0       	breq	.+2      	; 0x0x276c
    276a:	87 c0       	rjmp	.+270    	; 0x0x287a
    276c:	80 91 04 01 	lds	r24, 0x0104
    2770:	84 30       	cpi	r24, 0x04	; 4
    2772:	19 f0       	breq	.+6      	; 0x0x277a
    2774:	85 e0       	ldi	r24, 0x05	; 5
    2776:	80 93 04 01 	sts	0x0104, r24
    277a:	81 e0       	ldi	r24, 0x01	; 1
    277c:	80 93 0d 01 	sts	0x010D, r24
    2780:	9f b7       	in	r25, 0x3f	; 63
    2782:	f8 94       	cli
    2784:	80 91 cd 01 	lds	r24, 0x01CD
    2788:	8f 3f       	cpi	r24, 0xFF	; 255
    278a:	a1 f4       	brne	.+40     	; 0x0x27b4
    278c:	80 91 d9 01 	lds	r24, 0x01D9
    2790:	82 30       	cpi	r24, 0x02	; 2
    2792:	09 f0       	breq	.+2      	; 0x0x2796
    2794:	4f c2       	rjmp	.+1182   	; 0x0x2c34
    2796:	0e c0       	rjmp	.+28     	; 0x0x27b4
    2798:	82 e0       	ldi	r24, 0x02	; 2
    279a:	80 93 ca 01 	sts	0x01CA, r24
    279e:	80 93 d9 01 	sts	0x01D9, r24
    27a2:	08 c0       	rjmp	.+16     	; 0x0x27b4
    27a4:	e0 91 d9 01 	lds	r30, 0x01D9
    27a8:	ff 27       	eor	r31, r31
    27aa:	e5 53       	subi	r30, 0x35	; 53
    27ac:	fe 4f       	sbci	r31, 0xFE	; 254
    27ae:	20 83       	st	Z, r18
    27b0:	20 93 d9 01 	sts	0x01D9, r18
    27b4:	89 2f       	mov	r24, r25
    27b6:	99 27       	eor	r25, r25
    27b8:	8f bf       	out	0x3f, r24	; 63
    27ba:	5f c0       	rjmp	.+190    	; 0x0x287a
    27bc:	2f b7       	in	r18, 0x3f	; 63
    27be:	f8 94       	cli
    27c0:	33 27       	eor	r19, r19
    27c2:	80 91 8e 01 	lds	r24, 0x018E
    27c6:	80 93 07 01 	sts	0x0107, r24
    27ca:	83 e0       	ldi	r24, 0x03	; 3
    27cc:	80 93 0f 01 	sts	0x010F, r24
    27d0:	2f bf       	out	0x3f, r18	; 63
    27d2:	80 91 07 01 	lds	r24, 0x0107
    27d6:	88 23       	and	r24, r24
    27d8:	09 f0       	breq	.+2      	; 0x0x27dc
    27da:	6b c2       	rjmp	.+1238   	; 0x0x2cb2
    27dc:	82 e0       	ldi	r24, 0x02	; 2
    27de:	80 93 b3 01 	sts	0x01B3, r24
    27e2:	10 92 ba 01 	sts	0x01BA, r1
    27e6:	3f b7       	in	r19, 0x3f	; 63
    27e8:	f8 94       	cli
    27ea:	90 91 d7 01 	lds	r25, 0x01D7
    27ee:	89 2f       	mov	r24, r25
    27f0:	8e 7f       	andi	r24, 0xFE	; 254
    27f2:	80 93 d7 01 	sts	0x01D7, r24
    27f6:	87 b1       	in	r24, 0x07	; 7
    27f8:	20 e0       	ldi	r18, 0x00	; 0
    27fa:	82 95       	swap	r24
    27fc:	86 95       	lsr	r24
    27fe:	86 95       	lsr	r24
    2800:	83 70       	andi	r24, 0x03	; 3
    2802:	09 f0       	breq	.+2      	; 0x0x2806
    2804:	21 e0       	ldi	r18, 0x01	; 1
    2806:	81 e0       	ldi	r24, 0x01	; 1
    2808:	28 27       	eor	r18, r24
    280a:	22 0f       	add	r18, r18
    280c:	9c 7f       	andi	r25, 0xFC	; 252
    280e:	92 2b       	or	r25, r18
    2810:	93 78       	andi	r25, 0x83	; 131
    2812:	90 93 d7 01 	sts	0x01D7, r25
    2816:	17 b8       	out	0x07, r1	; 7
    2818:	80 91 97 01 	lds	r24, 0x0197
    281c:	90 91 98 01 	lds	r25, 0x0198
    2820:	51 e0       	ldi	r21, 0x01	; 1
    2822:	86 38       	cpi	r24, 0x86	; 134
    2824:	95 07       	cpc	r25, r21
    2826:	18 f0       	brcs	.+6      	; 0x0x282e
    2828:	87 e0       	ldi	r24, 0x07	; 7
    282a:	90 e0       	ldi	r25, 0x00	; 0
    282c:	1f c0       	rjmp	.+62     	; 0x0x286c
    282e:	83 3c       	cpi	r24, 0xC3	; 195
    2830:	91 05       	cpc	r25, r1
    2832:	18 f0       	brcs	.+6      	; 0x0x283a
    2834:	86 e0       	ldi	r24, 0x06	; 6
    2836:	90 e0       	ldi	r25, 0x00	; 0
    2838:	19 c0       	rjmp	.+50     	; 0x0x286c
    283a:	81 36       	cpi	r24, 0x61	; 97
    283c:	91 05       	cpc	r25, r1
    283e:	18 f0       	brcs	.+6      	; 0x0x2846
    2840:	85 e0       	ldi	r24, 0x05	; 5
    2842:	90 e0       	ldi	r25, 0x00	; 0
    2844:	13 c0       	rjmp	.+38     	; 0x0x286c
    2846:	80 33       	cpi	r24, 0x30	; 48
    2848:	91 05       	cpc	r25, r1
    284a:	18 f0       	brcs	.+6      	; 0x0x2852
    284c:	84 e0       	ldi	r24, 0x04	; 4
    284e:	90 e0       	ldi	r25, 0x00	; 0
    2850:	0d c0       	rjmp	.+26     	; 0x0x286c
    2852:	88 31       	cpi	r24, 0x18	; 24
    2854:	91 05       	cpc	r25, r1
    2856:	18 f0       	brcs	.+6      	; 0x0x285e
    2858:	83 e0       	ldi	r24, 0x03	; 3
    285a:	90 e0       	ldi	r25, 0x00	; 0
    285c:	07 c0       	rjmp	.+14     	; 0x0x286c
    285e:	0c 97       	sbiw	r24, 0x0c	; 12
    2860:	18 f0       	brcs	.+6      	; 0x0x2868
    2862:	82 e0       	ldi	r24, 0x02	; 2
    2864:	90 e0       	ldi	r25, 0x00	; 0
    2866:	02 c0       	rjmp	.+4      	; 0x0x286c
    2868:	80 e0       	ldi	r24, 0x00	; 0
    286a:	90 e0       	ldi	r25, 0x00	; 0
    286c:	87 70       	andi	r24, 0x07	; 7
    286e:	98 7d       	andi	r25, 0xD8	; 216
    2870:	98 2b       	or	r25, r24
    2872:	98 6d       	ori	r25, 0xD8	; 216
    2874:	89 2f       	mov	r24, r25
    2876:	99 27       	eor	r25, r25
    2878:	86 b9       	out	0x06, r24	; 6
    287a:	83 2f       	mov	r24, r19
    287c:	99 27       	eor	r25, r25
    287e:	30 c1       	rjmp	.+608    	; 0x0x2ae0
    2880:	10 92 b3 01 	sts	0x01B3, r1
    2884:	16 c2       	rjmp	.+1068   	; 0x0x2cb2
    2886:	21 e0       	ldi	r18, 0x01	; 1
    2888:	e0 e5       	ldi	r30, 0x50	; 80
    288a:	f1 e0       	ldi	r31, 0x01	; 1
    288c:	90 91 c9 01 	lds	r25, 0x01C9
    2890:	82 2f       	mov	r24, r18
    2892:	89 23       	and	r24, r25
    2894:	39 f0       	breq	.+14     	; 0x0x28a4
    2896:	11 82       	std	Z+1, r1	; 0x01
    2898:	10 82       	st	Z, r1
    289a:	82 2f       	mov	r24, r18
    289c:	80 95       	com	r24
    289e:	98 23       	and	r25, r24
    28a0:	90 93 c9 01 	sts	0x01C9, r25
    28a4:	32 96       	adiw	r30, 0x02	; 2
    28a6:	81 e0       	ldi	r24, 0x01	; 1
    28a8:	e0 36       	cpi	r30, 0x60	; 96
    28aa:	f8 07       	cpc	r31, r24
    28ac:	09 f4       	brne	.+2      	; 0x0x28b0
    28ae:	01 c2       	rjmp	.+1026   	; 0x0x2cb2
    28b0:	22 0f       	add	r18, r18
    28b2:	ec cf       	rjmp	.-40     	; 0x0x288c
    28b4:	e0 91 0a 01 	lds	r30, 0x010A
    28b8:	ff 27       	eor	r31, r31
    28ba:	ee 0f       	add	r30, r30
    28bc:	ff 1f       	adc	r31, r31
    28be:	e0 5b       	subi	r30, 0xB0	; 176
    28c0:	fe 4f       	sbci	r31, 0xFE	; 254
    28c2:	11 82       	std	Z+1, r1	; 0x01
    28c4:	10 82       	st	Z, r1
    28c6:	10 92 0a 01 	sts	0x010A, r1
    28ca:	a0 91 50 01 	lds	r26, 0x0150
    28ce:	b0 91 51 01 	lds	r27, 0x0151
    28d2:	b8 8f       	std	Y+24, r27	; 0x18
    28d4:	af 8b       	std	Y+23, r26	; 0x17
    28d6:	ab 2b       	or	r26, r27
    28d8:	21 f0       	breq	.+8      	; 0x0x28e2
    28da:	80 91 c9 01 	lds	r24, 0x01C9
    28de:	80 ff       	sbrs	r24, 0
    28e0:	bb c1       	rjmp	.+886    	; 0x0x2c58
    28e2:	81 e0       	ldi	r24, 0x01	; 1
    28e4:	80 93 0a 01 	sts	0x010A, r24
    28e8:	e4 c1       	rjmp	.+968    	; 0x0x2cb2
    28ea:	80 91 91 01 	lds	r24, 0x0191
    28ee:	88 23       	and	r24, r24
    28f0:	49 f4       	brne	.+18     	; 0x0x2904
    28f2:	9f bf       	out	0x3f, r25	; 63
    28f4:	9f b7       	in	r25, 0x3f	; 63
    28f6:	f8 94       	cli
    28f8:	80 91 d6 01 	lds	r24, 0x01D6
    28fc:	8f 3f       	cpi	r24, 0xFF	; 255
    28fe:	09 f0       	breq	.+2      	; 0x0x2902
    2900:	ed c0       	rjmp	.+474    	; 0x0x2adc
    2902:	d9 c0       	rjmp	.+434    	; 0x0x2ab6
    2904:	80 91 dd 01 	lds	r24, 0x01DD
    2908:	82 60       	ori	r24, 0x02	; 2
    290a:	80 93 dd 01 	sts	0x01DD, r24
    290e:	ef 89       	ldd	r30, Y+23	; 0x17
    2910:	f8 8d       	ldd	r31, Y+24	; 0x18
    2912:	44 83       	std	Z+4, r20	; 0x04
    2914:	f0 93 5a 01 	sts	0x015A, r31
    2918:	e0 93 59 01 	sts	0x0159, r30
    291c:	9f bf       	out	0x3f, r25	; 63
    291e:	ff b7       	in	r31, 0x3f	; 63
    2920:	f9 8f       	std	Y+25, r31	; 0x19
    2922:	f8 94       	cli
    2924:	80 91 94 01 	lds	r24, 0x0194
    2928:	82 60       	ori	r24, 0x02	; 2
    292a:	80 93 94 01 	sts	0x0194, r24
    292e:	20 91 0d 01 	lds	r18, 0x010D
    2932:	24 30       	cpi	r18, 0x04	; 4
    2934:	e9 f4       	brne	.+58     	; 0x0x2970
    2936:	9f b7       	in	r25, 0x3f	; 63
    2938:	f8 94       	cli
    293a:	80 91 cf 01 	lds	r24, 0x01CF
    293e:	8f 3f       	cpi	r24, 0xFF	; 255
    2940:	a1 f4       	brne	.+40     	; 0x0x296a
    2942:	80 91 d9 01 	lds	r24, 0x01D9
    2946:	84 30       	cpi	r24, 0x04	; 4
    2948:	09 f0       	breq	.+2      	; 0x0x294c
    294a:	7a c1       	rjmp	.+756    	; 0x0x2c40
    294c:	0e c0       	rjmp	.+28     	; 0x0x296a
    294e:	84 e0       	ldi	r24, 0x04	; 4
    2950:	80 93 ca 01 	sts	0x01CA, r24
    2954:	80 93 d9 01 	sts	0x01D9, r24
    2958:	08 c0       	rjmp	.+16     	; 0x0x296a
    295a:	e0 91 d9 01 	lds	r30, 0x01D9
    295e:	ff 27       	eor	r31, r31
    2960:	e5 53       	subi	r30, 0x35	; 53
    2962:	fe 4f       	sbci	r31, 0xFE	; 254
    2964:	20 83       	st	Z, r18
    2966:	20 93 d9 01 	sts	0x01D9, r18
    296a:	89 2f       	mov	r24, r25
    296c:	99 27       	eor	r25, r25
    296e:	8f bf       	out	0x3f, r24	; 63
    2970:	80 91 94 01 	lds	r24, 0x0194
    2974:	80 fd       	sbrc	r24, 0
    2976:	60 c0       	rjmp	.+192    	; 0x0x2a38
    2978:	20 90 87 01 	lds	r2, 0x0187
    297c:	30 90 88 01 	lds	r3, 0x0188
    2980:	40 90 89 01 	lds	r4, 0x0189
    2984:	50 90 8a 01 	lds	r5, 0x018A
    2988:	66 24       	eor	r6, r6
    298a:	77 24       	eor	r7, r7
    298c:	88 24       	eor	r8, r8
    298e:	fe e4       	ldi	r31, 0x4E	; 78
    2990:	af 2e       	mov	r10, r31
    2992:	e3 e8       	ldi	r30, 0x83	; 131
    2994:	be 2e       	mov	r11, r30
    2996:	cc 24       	eor	r12, r12
    2998:	dd 24       	eor	r13, r13
    299a:	ee 24       	eor	r14, r14
    299c:	ff 24       	eor	r15, r15
    299e:	00 e0       	ldi	r16, 0x00	; 0
    29a0:	10 e0       	ldi	r17, 0x00	; 0
    29a2:	22 2d       	mov	r18, r2
    29a4:	33 2d       	mov	r19, r3
    29a6:	44 2d       	mov	r20, r4
    29a8:	55 2d       	mov	r21, r5
    29aa:	66 2d       	mov	r22, r6
    29ac:	77 2d       	mov	r23, r7
    29ae:	88 2d       	mov	r24, r8
    29b0:	90 e0       	ldi	r25, 0x00	; 0
    29b2:	0e 94 c1 35 	call	0x6b82	; 0x0x6b82
    29b6:	a8 96       	adiw	r28, 0x28	; 40
    29b8:	2f af       	std	Y+63, r18	; 0x3f
    29ba:	a8 97       	sbiw	r28, 0x28	; 40
    29bc:	a9 96       	adiw	r28, 0x29	; 41
    29be:	3f af       	std	Y+63, r19	; 0x3f
    29c0:	a9 97       	sbiw	r28, 0x29	; 41
    29c2:	aa 96       	adiw	r28, 0x2a	; 42
    29c4:	4f af       	std	Y+63, r20	; 0x3f
    29c6:	aa 97       	sbiw	r28, 0x2a	; 42
    29c8:	ab 96       	adiw	r28, 0x2b	; 43
    29ca:	5f af       	std	Y+63, r21	; 0x3f
    29cc:	ab 97       	sbiw	r28, 0x2b	; 43
    29ce:	ac 96       	adiw	r28, 0x2c	; 44
    29d0:	6f af       	std	Y+63, r22	; 0x3f
    29d2:	ac 97       	sbiw	r28, 0x2c	; 44
    29d4:	ad 96       	adiw	r28, 0x2d	; 45
    29d6:	7f af       	std	Y+63, r23	; 0x3f
    29d8:	ad 97       	sbiw	r28, 0x2d	; 45
    29da:	ae 96       	adiw	r28, 0x2e	; 46
    29dc:	8f af       	std	Y+63, r24	; 0x3f
    29de:	ae 97       	sbiw	r28, 0x2e	; 46
    29e0:	af 96       	adiw	r28, 0x2f	; 47
    29e2:	9f af       	std	Y+63, r25	; 0x3f
    29e4:	af 97       	sbiw	r28, 0x2f	; 47
    29e6:	82 2e       	mov	r8, r18
    29e8:	93 2e       	mov	r9, r19
    29ea:	a4 2e       	mov	r10, r20
    29ec:	b5 2e       	mov	r11, r21
    29ee:	24 01       	movw	r4, r8
    29f0:	35 01       	movw	r6, r10
    29f2:	00 e2       	ldi	r16, 0x20	; 32
    29f4:	0e 94 bf 36 	call	0x6d7e	; 0x0x6d7e
    29f8:	a2 2e       	mov	r10, r18
    29fa:	b3 2e       	mov	r11, r19
    29fc:	c4 2e       	mov	r12, r20
    29fe:	d5 2e       	mov	r13, r21
    2a00:	d3 01       	movw	r26, r6
    2a02:	c2 01       	movw	r24, r4
    2a04:	b6 95       	lsr	r27
    2a06:	a7 95       	ror	r26
    2a08:	97 95       	ror	r25
    2a0a:	87 95       	ror	r24
    2a0c:	8a 0d       	add	r24, r10
    2a0e:	9b 1d       	adc	r25, r11
    2a10:	ac 1d       	adc	r26, r12
    2a12:	bd 1d       	adc	r27, r13
    2a14:	b7 ff       	sbrs	r27, 7
    2a16:	04 c0       	rjmp	.+8      	; 0x0x2a20
    2a18:	bf 77       	andi	r27, 0x7F	; 127
    2a1a:	01 96       	adiw	r24, 0x01	; 1
    2a1c:	a1 1d       	adc	r26, r1
    2a1e:	b1 1d       	adc	r27, r1
    2a20:	80 93 87 01 	sts	0x0187, r24
    2a24:	90 93 88 01 	sts	0x0188, r25
    2a28:	a0 93 89 01 	sts	0x0189, r26
    2a2c:	b0 93 8a 01 	sts	0x018A, r27
    2a30:	8f 71       	andi	r24, 0x1F	; 31
    2a32:	90 70       	andi	r25, 0x00	; 0
    2a34:	01 96       	adiw	r24, 0x01	; 1
    2a36:	02 c0       	rjmp	.+4      	; 0x0x2a3c
    2a38:	81 e0       	ldi	r24, 0x01	; 1
    2a3a:	90 e0       	ldi	r25, 0x00	; 0
    2a3c:	90 93 b9 01 	sts	0x01B9, r25
    2a40:	80 93 b8 01 	sts	0x01B8, r24
    2a44:	af 89       	ldd	r26, Y+23	; 0x17
    2a46:	b8 8d       	ldd	r27, Y+24	; 0x18
    2a48:	95 96       	adiw	r26, 0x25	; 37
    2a4a:	ef 89       	ldd	r30, Y+23	; 0x17
    2a4c:	f8 8d       	ldd	r31, Y+24	; 0x18
    2a4e:	85 a1       	ldd	r24, Z+37	; 0x25
    2a50:	26 a1       	ldd	r18, Z+38	; 0x26
    2a52:	99 27       	eor	r25, r25
    2a54:	78 2f       	mov	r23, r24
    2a56:	66 27       	eor	r22, r22
    2a58:	33 27       	eor	r19, r19
    2a5a:	62 2b       	or	r22, r18
    2a5c:	73 2b       	or	r23, r19
    2a5e:	77 fd       	sbrc	r23, 7
    2a60:	05 c0       	rjmp	.+10     	; 0x0x2a6c
    2a62:	60 91 53 01 	lds	r22, 0x0153
    2a66:	70 91 54 01 	lds	r23, 0x0154
    2a6a:	02 c0       	rjmp	.+4      	; 0x0x2a70
    2a6c:	60 95       	com	r22
    2a6e:	70 95       	com	r23
    2a70:	fd 01       	movw	r30, r26
    2a72:	11 82       	std	Z+1, r1	; 0x01
    2a74:	1c 92       	st	X, r1
    2a76:	61 15       	cp	r22, r1
    2a78:	71 05       	cpc	r23, r1
    2a7a:	29 f4       	brne	.+10     	; 0x0x2a86
    2a7c:	66 e0       	ldi	r22, 0x06	; 6
    2a7e:	70 e0       	ldi	r23, 0x00	; 0
    2a80:	80 e0       	ldi	r24, 0x00	; 0
    2a82:	90 e0       	ldi	r25, 0x00	; 0
    2a84:	10 c0       	rjmp	.+32     	; 0x0x2aa6
    2a86:	88 27       	eor	r24, r24
    2a88:	99 27       	eor	r25, r25
    2a8a:	26 e6       	ldi	r18, 0x66	; 102
    2a8c:	32 e0       	ldi	r19, 0x02	; 2
    2a8e:	40 e0       	ldi	r20, 0x00	; 0
    2a90:	50 e0       	ldi	r21, 0x00	; 0
    2a92:	0e 94 cc 37 	call	0x6f98	; 0x0x6f98
    2a96:	67 2f       	mov	r22, r23
    2a98:	78 2f       	mov	r23, r24
    2a9a:	89 2f       	mov	r24, r25
    2a9c:	99 27       	eor	r25, r25
    2a9e:	6a 5e       	subi	r22, 0xEA	; 234
    2aa0:	7f 4f       	sbci	r23, 0xFF	; 255
    2aa2:	8f 4f       	sbci	r24, 0xFF	; 255
    2aa4:	9f 4f       	sbci	r25, 0xFF	; 255
    2aa6:	70 93 b0 01 	sts	0x01B0, r23
    2aaa:	60 93 af 01 	sts	0x01AF, r22
    2aae:	f9 8d       	ldd	r31, Y+25	; 0x19
    2ab0:	8f 2f       	mov	r24, r31
    2ab2:	99 27       	eor	r25, r25
    2ab4:	15 c0       	rjmp	.+42     	; 0x0x2ae0
    2ab6:	80 91 d9 01 	lds	r24, 0x01D9
    2aba:	8b 30       	cpi	r24, 0x0B	; 11
    2abc:	09 f0       	breq	.+2      	; 0x0x2ac0
    2abe:	c6 c0       	rjmp	.+396    	; 0x0x2c4c
    2ac0:	0d c0       	rjmp	.+26     	; 0x0x2adc
    2ac2:	8b e0       	ldi	r24, 0x0B	; 11
    2ac4:	80 93 ca 01 	sts	0x01CA, r24
    2ac8:	07 c0       	rjmp	.+14     	; 0x0x2ad8
    2aca:	e0 91 d9 01 	lds	r30, 0x01D9
    2ace:	ff 27       	eor	r31, r31
    2ad0:	e5 53       	subi	r30, 0x35	; 53
    2ad2:	fe 4f       	sbci	r31, 0xFE	; 254
    2ad4:	8b e0       	ldi	r24, 0x0B	; 11
    2ad6:	80 83       	st	Z, r24
    2ad8:	80 93 d9 01 	sts	0x01D9, r24
    2adc:	89 2f       	mov	r24, r25
    2ade:	99 27       	eor	r25, r25
    2ae0:	8f bf       	out	0x3f, r24	; 63
    2ae2:	e7 c0       	rjmp	.+462    	; 0x0x2cb2
    2ae4:	80 91 ca 01 	lds	r24, 0x01CA
    2ae8:	8f 3f       	cpi	r24, 0xFF	; 255
    2aea:	11 f0       	breq	.+4      	; 0x0x2af0
    2aec:	0c 94 74 07 	jmp	0xee8	; 0x0xee8
    2af0:	0c 94 6e 07 	jmp	0xedc	; 0x0xedc
    2af4:	80 91 ca 01 	lds	r24, 0x01CA
    2af8:	8f 3f       	cpi	r24, 0xFF	; 255
    2afa:	11 f0       	breq	.+4      	; 0x0x2b00
    2afc:	0c 94 d2 09 	jmp	0x13a4	; 0x0x13a4
    2b00:	0c 94 cc 09 	jmp	0x1398	; 0x0x1398
    2b04:	70 93 04 01 	sts	0x0104, r23
    2b08:	80 91 0f 01 	lds	r24, 0x010F
    2b0c:	88 23       	and	r24, r24
    2b0e:	11 f4       	brne	.+4      	; 0x0x2b14
    2b10:	0c 94 c3 0a 	jmp	0x1586	; 0x0x1586
    2b14:	0c 94 e1 0a 	jmp	0x15c2	; 0x0x15c2
    2b18:	90 93 b3 01 	sts	0x01B3, r25
    2b1c:	10 92 ba 01 	sts	0x01BA, r1
    2b20:	3f b7       	in	r19, 0x3f	; 63
    2b22:	f8 94       	cli
    2b24:	90 91 d7 01 	lds	r25, 0x01D7
    2b28:	89 2f       	mov	r24, r25
    2b2a:	8e 7f       	andi	r24, 0xFE	; 254
    2b2c:	80 93 d7 01 	sts	0x01D7, r24
    2b30:	87 b1       	in	r24, 0x07	; 7
    2b32:	20 e0       	ldi	r18, 0x00	; 0
    2b34:	82 95       	swap	r24
    2b36:	86 95       	lsr	r24
    2b38:	86 95       	lsr	r24
    2b3a:	83 70       	andi	r24, 0x03	; 3
    2b3c:	09 f0       	breq	.+2      	; 0x0x2b40
    2b3e:	21 e0       	ldi	r18, 0x01	; 1
    2b40:	27 27       	eor	r18, r23
    2b42:	21 70       	andi	r18, 0x01	; 1
    2b44:	22 0f       	add	r18, r18
    2b46:	9c 7f       	andi	r25, 0xFC	; 252
    2b48:	92 2b       	or	r25, r18
    2b4a:	93 78       	andi	r25, 0x83	; 131
    2b4c:	90 93 d7 01 	sts	0x01D7, r25
    2b50:	17 b8       	out	0x07, r1	; 7
    2b52:	80 91 97 01 	lds	r24, 0x0197
    2b56:	90 91 98 01 	lds	r25, 0x0198
    2b5a:	21 e0       	ldi	r18, 0x01	; 1
    2b5c:	86 38       	cpi	r24, 0x86	; 134
    2b5e:	92 07       	cpc	r25, r18
    2b60:	10 f4       	brcc	.+4      	; 0x0x2b66
    2b62:	0c 94 e6 0a 	jmp	0x15cc	; 0x0x15cc
    2b66:	87 e0       	ldi	r24, 0x07	; 7
    2b68:	90 e0       	ldi	r25, 0x00	; 0
    2b6a:	0c 94 05 0b 	jmp	0x160a	; 0x0x160a
    2b6e:	80 91 ca 01 	lds	r24, 0x01CA
    2b72:	8f 3f       	cpi	r24, 0xFF	; 255
    2b74:	11 f0       	breq	.+4      	; 0x0x2b7a
    2b76:	0c 94 24 0b 	jmp	0x1648	; 0x0x1648
    2b7a:	0c 94 20 0b 	jmp	0x1640	; 0x0x1640
    2b7e:	20 93 b3 01 	sts	0x01B3, r18
    2b82:	10 92 ba 01 	sts	0x01BA, r1
    2b86:	3f b7       	in	r19, 0x3f	; 63
    2b88:	f8 94       	cli
    2b8a:	90 91 d7 01 	lds	r25, 0x01D7
    2b8e:	89 2f       	mov	r24, r25
    2b90:	8e 7f       	andi	r24, 0xFE	; 254
    2b92:	80 93 d7 01 	sts	0x01D7, r24
    2b96:	87 b1       	in	r24, 0x07	; 7
    2b98:	20 e0       	ldi	r18, 0x00	; 0
    2b9a:	82 95       	swap	r24
    2b9c:	86 95       	lsr	r24
    2b9e:	86 95       	lsr	r24
    2ba0:	83 70       	andi	r24, 0x03	; 3
    2ba2:	09 f0       	breq	.+2      	; 0x0x2ba6
    2ba4:	21 e0       	ldi	r18, 0x01	; 1
    2ba6:	81 e0       	ldi	r24, 0x01	; 1
    2ba8:	28 27       	eor	r18, r24
    2baa:	22 0f       	add	r18, r18
    2bac:	9c 7f       	andi	r25, 0xFC	; 252
    2bae:	92 2b       	or	r25, r18
    2bb0:	93 78       	andi	r25, 0x83	; 131
    2bb2:	90 93 d7 01 	sts	0x01D7, r25
    2bb6:	17 b8       	out	0x07, r1	; 7
    2bb8:	80 91 97 01 	lds	r24, 0x0197
    2bbc:	90 91 98 01 	lds	r25, 0x0198
    2bc0:	41 e0       	ldi	r20, 0x01	; 1
    2bc2:	86 38       	cpi	r24, 0x86	; 134
    2bc4:	94 07       	cpc	r25, r20
    2bc6:	10 f4       	brcc	.+4      	; 0x0x2bcc
    2bc8:	0c 94 79 0b 	jmp	0x16f2	; 0x0x16f2
    2bcc:	87 e0       	ldi	r24, 0x07	; 7
    2bce:	90 e0       	ldi	r25, 0x00	; 0
    2bd0:	0c 94 98 0b 	jmp	0x1730	; 0x0x1730
    2bd4:	80 91 ca 01 	lds	r24, 0x01CA
    2bd8:	8f 3f       	cpi	r24, 0xFF	; 255
    2bda:	11 f0       	breq	.+4      	; 0x0x2be0
    2bdc:	0c 94 b7 0b 	jmp	0x176e	; 0x0x176e
    2be0:	0c 94 b3 0b 	jmp	0x1766	; 0x0x1766
    2be4:	80 91 ca 01 	lds	r24, 0x01CA
    2be8:	8f 3f       	cpi	r24, 0xFF	; 255
    2bea:	11 f0       	breq	.+4      	; 0x0x2bf0
    2bec:	0c 94 0a 0d 	jmp	0x1a14	; 0x0x1a14
    2bf0:	0c 94 06 0d 	jmp	0x1a0c	; 0x0x1a0c
    2bf4:	80 91 ca 01 	lds	r24, 0x01CA
    2bf8:	8f 3f       	cpi	r24, 0xFF	; 255
    2bfa:	11 f0       	breq	.+4      	; 0x0x2c00
    2bfc:	0c 94 f3 0d 	jmp	0x1be6	; 0x0x1be6
    2c00:	0c 94 f0 0d 	jmp	0x1be0	; 0x0x1be0
    2c04:	80 91 ca 01 	lds	r24, 0x01CA
    2c08:	8f 3f       	cpi	r24, 0xFF	; 255
    2c0a:	09 f0       	breq	.+2      	; 0x0x2c0e
    2c0c:	2a c9       	rjmp	.-3500   	; 0x0x1e62
    2c0e:	25 c9       	rjmp	.-3510   	; 0x0x1e5a
    2c10:	80 91 ca 01 	lds	r24, 0x01CA
    2c14:	8f 3f       	cpi	r24, 0xFF	; 255
    2c16:	09 f0       	breq	.+2      	; 0x0x2c1a
    2c18:	89 c9       	rjmp	.-3310   	; 0x0x1f2c
    2c1a:	86 c9       	rjmp	.-3316   	; 0x0x1f28
    2c1c:	80 91 ca 01 	lds	r24, 0x01CA
    2c20:	8f 3f       	cpi	r24, 0xFF	; 255
    2c22:	09 f0       	breq	.+2      	; 0x0x2c26
    2c24:	b6 c9       	rjmp	.-3220   	; 0x0x1f92
    2c26:	b1 c9       	rjmp	.-3230   	; 0x0x1f8a
    2c28:	80 91 ca 01 	lds	r24, 0x01CA
    2c2c:	8f 3f       	cpi	r24, 0xFF	; 255
    2c2e:	09 f0       	breq	.+2      	; 0x0x2c32
    2c30:	37 ca       	rjmp	.-2962   	; 0x0x20a0
    2c32:	32 ca       	rjmp	.-2972   	; 0x0x2098
    2c34:	80 91 ca 01 	lds	r24, 0x01CA
    2c38:	8f 3f       	cpi	r24, 0xFF	; 255
    2c3a:	09 f0       	breq	.+2      	; 0x0x2c3e
    2c3c:	b3 cd       	rjmp	.-1178   	; 0x0x27a4
    2c3e:	ac cd       	rjmp	.-1192   	; 0x0x2798
    2c40:	80 91 ca 01 	lds	r24, 0x01CA
    2c44:	8f 3f       	cpi	r24, 0xFF	; 255
    2c46:	09 f0       	breq	.+2      	; 0x0x2c4a
    2c48:	88 ce       	rjmp	.-752    	; 0x0x295a
    2c4a:	81 ce       	rjmp	.-766    	; 0x0x294e
    2c4c:	80 91 ca 01 	lds	r24, 0x01CA
    2c50:	8f 3f       	cpi	r24, 0xFF	; 255
    2c52:	09 f0       	breq	.+2      	; 0x0x2c56
    2c54:	3a cf       	rjmp	.-396    	; 0x0x2aca
    2c56:	35 cf       	rjmp	.-406    	; 0x0x2ac2
    2c58:	af 89       	ldd	r26, Y+23	; 0x17
    2c5a:	b8 8d       	ldd	r27, Y+24	; 0x18
    2c5c:	8c 91       	ld	r24, X
    2c5e:	fd 01       	movw	r30, r26
    2c60:	21 81       	ldd	r18, Z+1	; 0x01
    2c62:	99 27       	eor	r25, r25
    2c64:	98 2f       	mov	r25, r24
    2c66:	88 27       	eor	r24, r24
    2c68:	33 27       	eor	r19, r19
    2c6a:	82 2b       	or	r24, r18
    2c6c:	93 2b       	or	r25, r19
    2c6e:	44 81       	ldd	r20, Z+4	; 0x04
    2c70:	81 83       	std	Z+1, r24	; 0x01
    2c72:	89 2f       	mov	r24, r25
    2c74:	99 27       	eor	r25, r25
    2c76:	80 83       	st	Z, r24
    2c78:	2f b7       	in	r18, 0x3f	; 63
    2c7a:	f8 94       	cli
    2c7c:	33 27       	eor	r19, r19
    2c7e:	80 91 08 01 	lds	r24, 0x0108
    2c82:	90 91 09 01 	lds	r25, 0x0109
    2c86:	2f bf       	out	0x3f, r18	; 63
    2c88:	83 83       	std	Z+3, r24	; 0x03
    2c8a:	89 2f       	mov	r24, r25
    2c8c:	99 27       	eor	r25, r25
    2c8e:	82 83       	std	Z+2, r24	; 0x02
    2c90:	82 e2       	ldi	r24, 0x22	; 34
    2c92:	85 83       	std	Z+5, r24	; 0x05
    2c94:	8f b7       	in	r24, 0x3f	; 63
    2c96:	f8 94       	cli
    2c98:	98 2f       	mov	r25, r24
    2c9a:	80 91 dd 01 	lds	r24, 0x01DD
    2c9e:	81 fd       	sbrc	r24, 1
    2ca0:	28 ce       	rjmp	.-944    	; 0x0x28f2
    2ca2:	23 ce       	rjmp	.-954    	; 0x0x28ea
    2ca4:	71 e0       	ldi	r23, 0x01	; 1
    2ca6:	0c 94 b4 06 	jmp	0xd68	; 0x0xd68
    2caa:	71 e0       	ldi	r23, 0x01	; 1
    2cac:	0c 94 12 09 	jmp	0x1224	; 0x0x1224
    2cb0:	2f bf       	out	0x3f, r18	; 63
    2cb2:	c2 59       	subi	r28, 0x92	; 146
    2cb4:	df 4f       	sbci	r29, 0xFF	; 255
    2cb6:	0f b6       	in	r0, 0x3f	; 63
    2cb8:	f8 94       	cli
    2cba:	de bf       	out	0x3e, r29	; 62
    2cbc:	0f be       	out	0x3f, r0	; 63
    2cbe:	cd bf       	out	0x3d, r28	; 61
    2cc0:	df 91       	pop	r29
    2cc2:	cf 91       	pop	r28
    2cc4:	1f 91       	pop	r17
    2cc6:	0f 91       	pop	r16
    2cc8:	ff 90       	pop	r15
    2cca:	ef 90       	pop	r14
    2ccc:	df 90       	pop	r13
    2cce:	cf 90       	pop	r12
    2cd0:	bf 90       	pop	r11
    2cd2:	af 90       	pop	r10
    2cd4:	9f 90       	pop	r9
    2cd6:	8f 90       	pop	r8
    2cd8:	7f 90       	pop	r7
    2cda:	6f 90       	pop	r6
    2cdc:	5f 90       	pop	r5
    2cde:	4f 90       	pop	r4
    2ce0:	3f 90       	pop	r3
    2ce2:	2f 90       	pop	r2
    2ce4:	08 95       	ret
    2ce6:	ca e8       	ldi	r28, 0x8A	; 138
    2ce8:	d0 e1       	ldi	r29, 0x10	; 16
    2cea:	de bf       	out	0x3e, r29	; 62
    2cec:	cd bf       	out	0x3d, r28	; 61
    2cee:	2f b7       	in	r18, 0x3f	; 63
    2cf0:	2f a3       	std	Y+39, r18	; 0x27
    2cf2:	f8 94       	cli
    2cf4:	4c e0       	ldi	r20, 0x0C	; 12
    2cf6:	50 e0       	ldi	r21, 0x00	; 0
    2cf8:	6f ef       	ldi	r22, 0xFF	; 255
    2cfa:	70 e0       	ldi	r23, 0x00	; 0
    2cfc:	8b ec       	ldi	r24, 0xCB	; 203
    2cfe:	91 e0       	ldi	r25, 0x01	; 1
    2d00:	0e 94 c5 37 	call	0x6f8a	; 0x0x6f8a
    2d04:	8f ef       	ldi	r24, 0xFF	; 255
    2d06:	80 93 ca 01 	sts	0x01CA, r24
    2d0a:	80 93 d9 01 	sts	0x01D9, r24
    2d0e:	81 e0       	ldi	r24, 0x01	; 1
    2d10:	8e bd       	out	0x2e, r24	; 46
    2d12:	88 e0       	ldi	r24, 0x08	; 8
    2d14:	80 bf       	out	0x30, r24	; 48
    2d16:	83 e0       	ldi	r24, 0x03	; 3
    2d18:	83 bf       	out	0x33, r24	; 51
    2d1a:	8c b5       	in	r24, 0x2c	; 44
    2d1c:	9d b5       	in	r25, 0x2d	; 45
    2d1e:	4a e7       	ldi	r20, 0x7A	; 122
    2d20:	2c b5       	in	r18, 0x2c	; 44
    2d22:	3d b5       	in	r19, 0x2d	; 45
    2d24:	28 17       	cp	r18, r24
    2d26:	39 07       	cpc	r19, r25
    2d28:	08 f4       	brcc	.+2      	; 0x0x2d2c
    2d2a:	41 50       	subi	r20, 0x01	; 1
    2d2c:	44 23       	and	r20, r20
    2d2e:	11 f0       	breq	.+4      	; 0x0x2d34
    2d30:	c9 01       	movw	r24, r18
    2d32:	f6 cf       	rjmp	.-20     	; 0x0x2d20
    2d34:	92 b7       	in	r25, 0x32	; 50
    2d36:	82 b7       	in	r24, 0x32	; 50
    2d38:	89 17       	cp	r24, r25
    2d3a:	e9 f3       	breq	.-6      	; 0x0x2d36
    2d3c:	2c b5       	in	r18, 0x2c	; 44
    2d3e:	3d b5       	in	r19, 0x2d	; 45
    2d40:	92 b7       	in	r25, 0x32	; 50
    2d42:	82 b7       	in	r24, 0x32	; 50
    2d44:	89 17       	cp	r24, r25
    2d46:	e9 f3       	breq	.-6      	; 0x0x2d42
    2d48:	8c b5       	in	r24, 0x2c	; 44
    2d4a:	9d b5       	in	r25, 0x2d	; 45
    2d4c:	82 1b       	sub	r24, r18
    2d4e:	93 0b       	sbc	r25, r19
    2d50:	40 96       	adiw	r24, 0x10	; 16
    2d52:	05 e0       	ldi	r16, 0x05	; 5
    2d54:	96 95       	lsr	r25
    2d56:	87 95       	ror	r24
    2d58:	0a 95       	dec	r16
    2d5a:	e1 f7       	brne	.-8      	; 0x0x2d54
    2d5c:	90 93 98 01 	sts	0x0198, r25
    2d60:	80 93 97 01 	sts	0x0197, r24
    2d64:	13 be       	out	0x33, r1	; 51
    2d66:	83 b7       	in	r24, 0x33	; 51
    2d68:	8e bd       	out	0x2e, r24	; 46
    2d6a:	8e b5       	in	r24, 0x2e	; 46
    2d6c:	80 bf       	out	0x30, r24	; 48
    2d6e:	12 be       	out	0x32, r1	; 50
    2d70:	1d bc       	out	0x2d, r1	; 45
    2d72:	1c bc       	out	0x2c, r1	; 44
    2d74:	8f ef       	ldi	r24, 0xFF	; 255
    2d76:	86 bf       	out	0x36, r24	; 54
    2d78:	86 b7       	in	r24, 0x36	; 54
    2d7a:	80 93 7c 00 	sts	0x007C, r24
    2d7e:	80 b7       	in	r24, 0x30	; 48
    2d80:	99 27       	eor	r25, r25
    2d82:	87 70       	andi	r24, 0x07	; 7
    2d84:	90 70       	andi	r25, 0x00	; 0
    2d86:	89 2b       	or	r24, r25
    2d88:	d1 f7       	brne	.-12     	; 0x0x2d7e
    2d8a:	d2 9a       	sbi	0x1a, 2	; 26
    2d8c:	d1 9a       	sbi	0x1a, 1	; 26
    2d8e:	d0 9a       	sbi	0x1a, 0	; 26
    2d90:	da 9a       	sbi	0x1b, 2	; 27
    2d92:	d9 9a       	sbi	0x1b, 1	; 27
    2d94:	d8 9a       	sbi	0x1b, 0	; 27
    2d96:	15 ba       	out	0x15, r1	; 21
    2d98:	8f ef       	ldi	r24, 0xFF	; 255
    2d9a:	84 bb       	out	0x14, r24	; 20
    2d9c:	d4 98       	cbi	0x1a, 4	; 26
    2d9e:	dc 98       	cbi	0x1b, 4	; 27
    2da0:	16 b8       	out	0x06, r1	; 6
    2da2:	d6 98       	cbi	0x1a, 6	; 26
    2da4:	8c 9a       	sbi	0x11, 4	; 17
    2da6:	8e 9a       	sbi	0x11, 6	; 17
    2da8:	8f 9a       	sbi	0x11, 7	; 17
    2daa:	94 9a       	sbi	0x12, 4	; 18
    2dac:	97 9a       	sbi	0x12, 7	; 18
    2dae:	96 9a       	sbi	0x12, 6	; 18
    2db0:	6f e3       	ldi	r22, 0x3F	; 63
    2db2:	80 e0       	ldi	r24, 0x00	; 0
    2db4:	0e 94 bd 01 	call	0x37a	; 0x0x37a
    2db8:	60 e0       	ldi	r22, 0x00	; 0
    2dba:	8b e0       	ldi	r24, 0x0B	; 11
    2dbc:	0e 94 bd 01 	call	0x37a	; 0x0x37a
    2dc0:	b9 98       	cbi	0x17, 1	; 23
    2dc2:	bf 98       	cbi	0x17, 7	; 23
    2dc4:	bb 98       	cbi	0x17, 3	; 23
    2dc6:	ba 98       	cbi	0x17, 2	; 23
    2dc8:	80 e2       	ldi	r24, 0x20	; 32
    2dca:	85 bf       	out	0x35, r24	; 53
    2dcc:	80 91 ca 01 	lds	r24, 0x01CA
    2dd0:	8f 3f       	cpi	r24, 0xFF	; 255
    2dd2:	e9 f0       	breq	.+58     	; 0x0x2e0e
    2dd4:	90 91 ca 01 	lds	r25, 0x01CA
    2dd8:	e0 91 ca 01 	lds	r30, 0x01CA
    2ddc:	ff 27       	eor	r31, r31
    2dde:	e5 53       	subi	r30, 0x35	; 53
    2de0:	fe 4f       	sbci	r31, 0xFE	; 254
    2de2:	80 81       	ld	r24, Z
    2de4:	80 93 ca 01 	sts	0x01CA, r24
    2de8:	80 91 ca 01 	lds	r24, 0x01CA
    2dec:	8f 3f       	cpi	r24, 0xFF	; 255
    2dee:	11 f4       	brne	.+4      	; 0x0x2df4
    2df0:	80 93 d9 01 	sts	0x01D9, r24
    2df4:	29 2f       	mov	r18, r25
    2df6:	33 27       	eor	r19, r19
    2df8:	f9 01       	movw	r30, r18
    2dfa:	e5 53       	subi	r30, 0x35	; 53
    2dfc:	fe 4f       	sbci	r31, 0xFE	; 254
    2dfe:	8f ef       	ldi	r24, 0xFF	; 255
    2e00:	80 83       	st	Z, r24
    2e02:	2f 3f       	cpi	r18, 0xFF	; 255
    2e04:	21 f0       	breq	.+8      	; 0x0x2e0e
    2e06:	82 2f       	mov	r24, r18
    2e08:	0e 94 e6 05 	call	0xbcc	; 0x0xbcc
    2e0c:	df cf       	rjmp	.-66     	; 0x0x2dcc
    2e0e:	80 91 00 01 	lds	r24, 0x0100
    2e12:	90 91 01 01 	lds	r25, 0x0101
    2e16:	01 96       	adiw	r24, 0x01	; 1
    2e18:	aa 27       	eor	r26, r26
    2e1a:	bb 27       	eor	r27, r27
    2e1c:	80 93 87 01 	sts	0x0187, r24
    2e20:	90 93 88 01 	sts	0x0188, r25
    2e24:	a0 93 89 01 	sts	0x0189, r26
    2e28:	b0 93 8a 01 	sts	0x018A, r27
    2e2c:	10 92 57 01 	sts	0x0157, r1
    2e30:	80 91 dd 01 	lds	r24, 0x01DD
    2e34:	81 60       	ori	r24, 0x01	; 1
    2e36:	80 93 dd 01 	sts	0x01DD, r24
    2e3a:	6b 98       	cbi	0x0d, 3	; 13
    2e3c:	6a 98       	cbi	0x0d, 2	; 13
    2e3e:	6f 9a       	sbi	0x0d, 7	; 13
    2e40:	6e 9a       	sbi	0x0d, 6	; 13
    2e42:	6a e3       	ldi	r22, 0x3A	; 58
    2e44:	80 e0       	ldi	r24, 0x00	; 0
    2e46:	0e 94 bd 01 	call	0x37a	; 0x0x37a
    2e4a:	6b e3       	ldi	r22, 0x3B	; 59
    2e4c:	80 e0       	ldi	r24, 0x00	; 0
    2e4e:	0e 94 bd 01 	call	0x37a	; 0x0x37a
    2e52:	80 ed       	ldi	r24, 0xD0	; 208
    2e54:	97 e0       	ldi	r25, 0x07	; 7
    2e56:	01 97       	sbiw	r24, 0x01	; 1
    2e58:	01 96       	adiw	r24, 0x01	; 1
    2e5a:	01 97       	sbiw	r24, 0x01	; 1
    2e5c:	e1 f7       	brne	.-8      	; 0x0x2e56
    2e5e:	80 e8       	ldi	r24, 0x80	; 128
    2e60:	80 93 92 01 	sts	0x0192, r24
    2e64:	60 e8       	ldi	r22, 0x80	; 128
    2e66:	8b e0       	ldi	r24, 0x0B	; 11
    2e68:	0e 94 bd 01 	call	0x37a	; 0x0x37a
    2e6c:	60 e9       	ldi	r22, 0x90	; 144
    2e6e:	84 e0       	ldi	r24, 0x04	; 4
    2e70:	0e 94 bd 01 	call	0x37a	; 0x0x37a
    2e74:	60 e0       	ldi	r22, 0x00	; 0
    2e76:	8f e0       	ldi	r24, 0x0F	; 15
    2e78:	0e 94 bd 01 	call	0x37a	; 0x0x37a
    2e7c:	6f e6       	ldi	r22, 0x6F	; 111
    2e7e:	80 e1       	ldi	r24, 0x10	; 16
    2e80:	0e 94 bd 01 	call	0x37a	; 0x0x37a
    2e84:	65 e5       	ldi	r22, 0x55	; 85
    2e86:	81 e1       	ldi	r24, 0x11	; 17
    2e88:	0e 94 bd 01 	call	0x37a	; 0x0x37a
    2e8c:	61 e0       	ldi	r22, 0x01	; 1
    2e8e:	83 e1       	ldi	r24, 0x13	; 19
    2e90:	0e 94 bd 01 	call	0x37a	; 0x0x37a
    2e94:	11 e0       	ldi	r17, 0x01	; 1
    2e96:	e1 2e       	mov	r14, r17
    2e98:	f1 2c       	mov	r15, r1
    2e9a:	00 ec       	ldi	r16, 0xC0	; 192
    2e9c:	12 e0       	ldi	r17, 0x02	; 2
    2e9e:	f8 01       	movw	r30, r16
    2ea0:	c8 95       	lpm
    2ea2:	60 2d       	mov	r22, r0
    2ea4:	8e 2d       	mov	r24, r14
    2ea6:	0e 94 bd 01 	call	0x37a	; 0x0x37a
    2eaa:	08 94       	sec
    2eac:	e1 1c       	adc	r14, r1
    2eae:	f1 1c       	adc	r15, r1
    2eb0:	0f 5f       	subi	r16, 0xFF	; 255
    2eb2:	1f 4f       	sbci	r17, 0xFF	; 255
    2eb4:	fd e0       	ldi	r31, 0x0D	; 13
    2eb6:	ef 16       	cp	r14, r31
    2eb8:	f1 04       	cpc	r15, r1
    2eba:	89 f7       	brne	.-30     	; 0x0x2e9e
    2ebc:	01 ed       	ldi	r16, 0xD1	; 209
    2ebe:	12 e0       	ldi	r17, 0x02	; 2
    2ec0:	f8 01       	movw	r30, r16
    2ec2:	c8 95       	lpm
    2ec4:	60 2d       	mov	r22, r0
    2ec6:	82 e1       	ldi	r24, 0x12	; 18
    2ec8:	0e 94 bd 01 	call	0x37a	; 0x0x37a
    2ecc:	09 50       	subi	r16, 0x09	; 9
    2ece:	10 40       	sbci	r17, 0x00	; 0
    2ed0:	f8 01       	movw	r30, r16
    2ed2:	c8 95       	lpm
    2ed4:	80 2d       	mov	r24, r0
    2ed6:	80 93 96 01 	sts	0x0196, r24
    2eda:	06 5f       	subi	r16, 0xF6	; 246
    2edc:	1f 4f       	sbci	r17, 0xFF	; 255
    2ede:	f8 01       	movw	r30, r16
    2ee0:	c8 95       	lpm
    2ee2:	80 2d       	mov	r24, r0
    2ee4:	80 93 c8 01 	sts	0x01C8, r24
    2ee8:	08 50       	subi	r16, 0x08	; 8
    2eea:	10 40       	sbci	r17, 0x00	; 0
    2eec:	f8 01       	movw	r30, r16
    2eee:	c8 95       	lpm
    2ef0:	80 2d       	mov	r24, r0
    2ef2:	80 93 92 01 	sts	0x0192, r24
    2ef6:	60 e0       	ldi	r22, 0x00	; 0
    2ef8:	8b e0       	ldi	r24, 0x0B	; 11
    2efa:	0e 94 bd 01 	call	0x37a	; 0x0x37a
    2efe:	6f e3       	ldi	r22, 0x3F	; 63
    2f00:	82 e4       	ldi	r24, 0x42	; 66
    2f02:	0e 94 bd 01 	call	0x37a	; 0x0x37a
    2f06:	61 e1       	ldi	r22, 0x11	; 17
    2f08:	80 e0       	ldi	r24, 0x00	; 0
    2f0a:	0e 94 bd 01 	call	0x37a	; 0x0x37a
    2f0e:	66 ea       	ldi	r22, 0xA6	; 166
    2f10:	8e e0       	ldi	r24, 0x0E	; 14
    2f12:	0e 94 bd 01 	call	0x37a	; 0x0x37a
    2f16:	94 98       	cbi	0x12, 4	; 18
    2f18:	8c e1       	ldi	r24, 0x1C	; 28
    2f1a:	20 e0       	ldi	r18, 0x00	; 0
    2f1c:	30 e0       	ldi	r19, 0x00	; 0
    2f1e:	87 ff       	sbrs	r24, 7
    2f20:	02 c0       	rjmp	.+4      	; 0x0x2f26
    2f22:	97 9a       	sbi	0x12, 7	; 18
    2f24:	01 c0       	rjmp	.+2      	; 0x0x2f28
    2f26:	97 98       	cbi	0x12, 7	; 18
    2f28:	96 98       	cbi	0x12, 6	; 18
    2f2a:	96 9a       	sbi	0x12, 6	; 18
    2f2c:	2f 5f       	subi	r18, 0xFF	; 255
    2f2e:	3f 4f       	sbci	r19, 0xFF	; 255
    2f30:	27 30       	cpi	r18, 0x07	; 7
    2f32:	31 05       	cpc	r19, r1
    2f34:	11 f0       	breq	.+4      	; 0x0x2f3a
    2f36:	88 0f       	add	r24, r24
    2f38:	f2 cf       	rjmp	.-28     	; 0x0x2f1e
    2f3a:	97 98       	cbi	0x12, 7	; 18
    2f3c:	96 98       	cbi	0x12, 6	; 18
    2f3e:	96 9a       	sbi	0x12, 6	; 18
    2f40:	8f 98       	cbi	0x11, 7	; 17
    2f42:	94 9a       	sbi	0x12, 4	; 18
    2f44:	80 e0       	ldi	r24, 0x00	; 0
    2f46:	96 98       	cbi	0x12, 6	; 18
    2f48:	99 27       	eor	r25, r25
    2f4a:	87 9b       	sbis	0x10, 7	; 16
    2f4c:	04 c0       	rjmp	.+8      	; 0x0x2f56
    2f4e:	88 0f       	add	r24, r24
    2f50:	99 1f       	adc	r25, r25
    2f52:	81 60       	ori	r24, 0x01	; 1
    2f54:	01 c0       	rjmp	.+2      	; 0x0x2f58
    2f56:	88 0f       	add	r24, r24
    2f58:	96 9a       	sbi	0x12, 6	; 18
    2f5a:	21 50       	subi	r18, 0x01	; 1
    2f5c:	30 40       	sbci	r19, 0x00	; 0
    2f5e:	ff ef       	ldi	r31, 0xFF	; 255
    2f60:	2f 3f       	cpi	r18, 0xFF	; 255
    2f62:	3f 07       	cpc	r19, r31
    2f64:	81 f7       	brne	.-32     	; 0x0x2f46
    2f66:	94 9a       	sbi	0x12, 4	; 18
    2f68:	8f 9a       	sbi	0x11, 7	; 17
    2f6a:	97 9a       	sbi	0x12, 7	; 18
    2f6c:	83 ff       	sbrs	r24, 3
    2f6e:	d3 cf       	rjmp	.-90     	; 0x0x2f16
    2f70:	66 e2       	ldi	r22, 0x26	; 38
    2f72:	8e e0       	ldi	r24, 0x0E	; 14
    2f74:	0e 94 bd 01 	call	0x37a	; 0x0x37a
    2f78:	61 ee       	ldi	r22, 0xE1	; 225
    2f7a:	80 e0       	ldi	r24, 0x00	; 0
    2f7c:	0e 94 bd 01 	call	0x37a	; 0x0x37a
    2f80:	60 91 c8 01 	lds	r22, 0x01C8
    2f84:	89 e0       	ldi	r24, 0x09	; 9
    2f86:	0e 94 bd 01 	call	0x37a	; 0x0x37a
    2f8a:	60 e0       	ldi	r22, 0x00	; 0
    2f8c:	8b e0       	ldi	r24, 0x0B	; 11
    2f8e:	0e 94 bd 01 	call	0x37a	; 0x0x37a
    2f92:	66 ea       	ldi	r22, 0xA6	; 166
    2f94:	8e e0       	ldi	r24, 0x0E	; 14
    2f96:	0e 94 bd 01 	call	0x37a	; 0x0x37a
    2f9a:	94 98       	cbi	0x12, 4	; 18
    2f9c:	8c e1       	ldi	r24, 0x1C	; 28
    2f9e:	20 e0       	ldi	r18, 0x00	; 0
    2fa0:	30 e0       	ldi	r19, 0x00	; 0
    2fa2:	87 ff       	sbrs	r24, 7
    2fa4:	02 c0       	rjmp	.+4      	; 0x0x2faa
    2fa6:	97 9a       	sbi	0x12, 7	; 18
    2fa8:	01 c0       	rjmp	.+2      	; 0x0x2fac
    2faa:	97 98       	cbi	0x12, 7	; 18
    2fac:	96 98       	cbi	0x12, 6	; 18
    2fae:	96 9a       	sbi	0x12, 6	; 18
    2fb0:	2f 5f       	subi	r18, 0xFF	; 255
    2fb2:	3f 4f       	sbci	r19, 0xFF	; 255
    2fb4:	27 30       	cpi	r18, 0x07	; 7
    2fb6:	31 05       	cpc	r19, r1
    2fb8:	11 f0       	breq	.+4      	; 0x0x2fbe
    2fba:	88 0f       	add	r24, r24
    2fbc:	f2 cf       	rjmp	.-28     	; 0x0x2fa2
    2fbe:	97 98       	cbi	0x12, 7	; 18
    2fc0:	96 98       	cbi	0x12, 6	; 18
    2fc2:	96 9a       	sbi	0x12, 6	; 18
    2fc4:	8f 98       	cbi	0x11, 7	; 17
    2fc6:	94 9a       	sbi	0x12, 4	; 18
    2fc8:	80 e0       	ldi	r24, 0x00	; 0
    2fca:	96 98       	cbi	0x12, 6	; 18
    2fcc:	99 27       	eor	r25, r25
    2fce:	87 9b       	sbis	0x10, 7	; 16
    2fd0:	04 c0       	rjmp	.+8      	; 0x0x2fda
    2fd2:	88 0f       	add	r24, r24
    2fd4:	99 1f       	adc	r25, r25
    2fd6:	81 60       	ori	r24, 0x01	; 1
    2fd8:	01 c0       	rjmp	.+2      	; 0x0x2fdc
    2fda:	88 0f       	add	r24, r24
    2fdc:	96 9a       	sbi	0x12, 6	; 18
    2fde:	21 50       	subi	r18, 0x01	; 1
    2fe0:	30 40       	sbci	r19, 0x00	; 0
    2fe2:	4f ef       	ldi	r20, 0xFF	; 255
    2fe4:	2f 3f       	cpi	r18, 0xFF	; 255
    2fe6:	34 07       	cpc	r19, r20
    2fe8:	81 f7       	brne	.-32     	; 0x0x2fca
    2fea:	94 9a       	sbi	0x12, 4	; 18
    2fec:	8f 9a       	sbi	0x11, 7	; 17
    2fee:	97 9a       	sbi	0x12, 7	; 18
    2ff0:	83 ff       	sbrs	r24, 3
    2ff2:	d3 cf       	rjmp	.-90     	; 0x0x2f9a
    2ff4:	66 e2       	ldi	r22, 0x26	; 38
    2ff6:	8e e0       	ldi	r24, 0x0E	; 14
    2ff8:	0e 94 bd 01 	call	0x37a	; 0x0x37a
    2ffc:	0e 94 80 05 	call	0xb00	; 0x0xb00
    3000:	6f e3       	ldi	r22, 0x3F	; 63
    3002:	80 e0       	ldi	r24, 0x00	; 0
    3004:	0e 94 bd 01 	call	0x37a	; 0x0x37a
    3008:	60 e0       	ldi	r22, 0x00	; 0
    300a:	8b e0       	ldi	r24, 0x0B	; 11
    300c:	0e 94 bd 01 	call	0x37a	; 0x0x37a
    3010:	ed e9       	ldi	r30, 0x9D	; 157
    3012:	f1 e0       	ldi	r31, 0x01	; 1
    3014:	80 e2       	ldi	r24, 0x20	; 32
    3016:	91 e0       	ldi	r25, 0x01	; 1
    3018:	81 93       	st	Z+, r24
    301a:	91 93       	st	Z+, r25
    301c:	51 e0       	ldi	r21, 0x01	; 1
    301e:	ef 3a       	cpi	r30, 0xAF	; 175
    3020:	f5 07       	cpc	r31, r21
    3022:	d1 f7       	brne	.-12     	; 0x0x3018
    3024:	80 b7       	in	r24, 0x30	; 48
    3026:	88 60       	ori	r24, 0x08	; 8
    3028:	80 bf       	out	0x30, r24	; 48
    302a:	8b e0       	ldi	r24, 0x0B	; 11
    302c:	83 bf       	out	0x33, r24	; 51
    302e:	86 ee       	ldi	r24, 0xE6	; 230
    3030:	81 bf       	out	0x31, r24	; 49
    3032:	87 b7       	in	r24, 0x37	; 55
    3034:	82 60       	ori	r24, 0x02	; 2
    3036:	87 bf       	out	0x37, r24	; 55
    3038:	8f b7       	in	r24, 0x3f	; 63
    303a:	f8 94       	cli
    303c:	28 2f       	mov	r18, r24
    303e:	33 27       	eor	r19, r19
    3040:	e2 2f       	mov	r30, r18
    3042:	91 b7       	in	r25, 0x31	; 49
    3044:	82 b7       	in	r24, 0x32	; 50
    3046:	46 b7       	in	r20, 0x36	; 54
    3048:	98 17       	cp	r25, r24
    304a:	11 f4       	brne	.+4      	; 0x0x3050
    304c:	0c 94 14 20 	jmp	0x4028	; 0x0x4028
    3050:	41 ff       	sbrs	r20, 1
    3052:	02 c0       	rjmp	.+4      	; 0x0x3058
    3054:	0c 94 14 20 	jmp	0x4028	; 0x0x4028
    3058:	80 91 bb 01 	lds	r24, 0x01BB
    305c:	88 23       	and	r24, r24
    305e:	09 f4       	brne	.+2      	; 0x0x3062
    3060:	60 c0       	rjmp	.+192    	; 0x0x3122
    3062:	6f b7       	in	r22, 0x3f	; 63
    3064:	f8 94       	cli
    3066:	82 b7       	in	r24, 0x32	; 50
    3068:	20 91 b4 01 	lds	r18, 0x01B4
    306c:	30 91 b5 01 	lds	r19, 0x01B5
    3070:	40 91 b6 01 	lds	r20, 0x01B6
    3074:	50 91 b7 01 	lds	r21, 0x01B7
    3078:	06 b6       	in	r0, 0x36	; 54
    307a:	01 fe       	sbrs	r0, 1
    307c:	0f c0       	rjmp	.+30     	; 0x0x309c
    307e:	81 b7       	in	r24, 0x31	; 49
    3080:	92 b7       	in	r25, 0x32	; 50
    3082:	28 0f       	add	r18, r24
    3084:	31 1d       	adc	r19, r1
    3086:	41 1d       	adc	r20, r1
    3088:	51 1d       	adc	r21, r1
    308a:	2f 5f       	subi	r18, 0xFF	; 255
    308c:	3f 4f       	sbci	r19, 0xFF	; 255
    308e:	4f 4f       	sbci	r20, 0xFF	; 255
    3090:	5f 4f       	sbci	r21, 0xFF	; 255
    3092:	29 0f       	add	r18, r25
    3094:	31 1d       	adc	r19, r1
    3096:	41 1d       	adc	r20, r1
    3098:	51 1d       	adc	r21, r1
    309a:	04 c0       	rjmp	.+8      	; 0x0x30a4
    309c:	28 0f       	add	r18, r24
    309e:	31 1d       	adc	r19, r1
    30a0:	41 1d       	adc	r20, r1
    30a2:	51 1d       	adc	r21, r1
    30a4:	86 2f       	mov	r24, r22
    30a6:	99 27       	eor	r25, r25
    30a8:	8f bf       	out	0x3f, r24	; 63
    30aa:	e0 90 99 01 	lds	r14, 0x0199
    30ae:	f0 90 9a 01 	lds	r15, 0x019A
    30b2:	00 91 9b 01 	lds	r16, 0x019B
    30b6:	10 91 9c 01 	lds	r17, 0x019C
    30ba:	80 91 bc 01 	lds	r24, 0x01BC
    30be:	90 91 bd 01 	lds	r25, 0x01BD
    30c2:	a0 91 be 01 	lds	r26, 0x01BE
    30c6:	b0 91 bf 01 	lds	r27, 0x01BF
    30ca:	2e 19       	sub	r18, r14
    30cc:	3f 09       	sbc	r19, r15
    30ce:	40 0b       	sbc	r20, r16
    30d0:	51 0b       	sbc	r21, r17
    30d2:	28 17       	cp	r18, r24
    30d4:	39 07       	cpc	r19, r25
    30d6:	4a 07       	cpc	r20, r26
    30d8:	5b 07       	cpc	r21, r27
    30da:	20 f0       	brcs	.+8      	; 0x0x30e4
    30dc:	10 92 bb 01 	sts	0x01BB, r1
    30e0:	71 e0       	ldi	r23, 0x01	; 1
    30e2:	20 c0       	rjmp	.+64     	; 0x0x3124
    30e4:	a8 01       	movw	r20, r16
    30e6:	97 01       	movw	r18, r14
    30e8:	28 0f       	add	r18, r24
    30ea:	39 1f       	adc	r19, r25
    30ec:	4a 1f       	adc	r20, r26
    30ee:	5b 1f       	adc	r21, r27
    30f0:	80 91 b4 01 	lds	r24, 0x01B4
    30f4:	90 91 b5 01 	lds	r25, 0x01B5
    30f8:	a0 91 b6 01 	lds	r26, 0x01B6
    30fc:	b0 91 b7 01 	lds	r27, 0x01B7
    3100:	28 1b       	sub	r18, r24
    3102:	39 0b       	sbc	r19, r25
    3104:	4a 0b       	sbc	r20, r26
    3106:	5b 0b       	sbc	r21, r27
    3108:	27 3e       	cpi	r18, 0xE7	; 231
    310a:	31 05       	cpc	r19, r1
    310c:	41 05       	cpc	r20, r1
    310e:	51 05       	cpc	r21, r1
    3110:	40 f4       	brcc	.+16     	; 0x0x3122
    3112:	82 2f       	mov	r24, r18
    3114:	22 30       	cpi	r18, 0x02	; 2
    3116:	10 f0       	brcs	.+4      	; 0x0x311c
    3118:	70 e0       	ldi	r23, 0x00	; 0
    311a:	05 c0       	rjmp	.+10     	; 0x0x3126
    311c:	70 e0       	ldi	r23, 0x00	; 0
    311e:	82 e0       	ldi	r24, 0x02	; 2
    3120:	02 c0       	rjmp	.+4      	; 0x0x3126
    3122:	70 e0       	ldi	r23, 0x00	; 0
    3124:	86 ee       	ldi	r24, 0xE6	; 230
    3126:	68 2f       	mov	r22, r24
    3128:	61 50       	subi	r22, 0x01	; 1
    312a:	00 b6       	in	r0, 0x30	; 48
    312c:	01 fc       	sbrc	r0, 1
    312e:	fd cf       	rjmp	.-6      	; 0x0x312a
    3130:	0c 94 83 20 	jmp	0x4106	; 0x0x4106
    3134:	e0 91 d9 01 	lds	r30, 0x01D9
    3138:	ff 27       	eor	r31, r31
    313a:	e5 53       	subi	r30, 0x35	; 53
    313c:	fe 4f       	sbci	r31, 0xFE	; 254
    313e:	10 82       	st	Z, r1
    3140:	10 92 d9 01 	sts	0x01D9, r1
    3144:	89 2f       	mov	r24, r25
    3146:	99 27       	eor	r25, r25
    3148:	8f bf       	out	0x3f, r24	; 63
    314a:	80 91 ca 01 	lds	r24, 0x01CA
    314e:	8f 3f       	cpi	r24, 0xFF	; 255
    3150:	11 f4       	brne	.+4      	; 0x0x3156
    3152:	0c 94 60 28 	jmp	0x50c0	; 0x0x50c0
    3156:	90 91 ca 01 	lds	r25, 0x01CA
    315a:	e0 91 ca 01 	lds	r30, 0x01CA
    315e:	ff 27       	eor	r31, r31
    3160:	e5 53       	subi	r30, 0x35	; 53
    3162:	fe 4f       	sbci	r31, 0xFE	; 254
    3164:	80 81       	ld	r24, Z
    3166:	80 93 ca 01 	sts	0x01CA, r24
    316a:	80 91 ca 01 	lds	r24, 0x01CA
    316e:	8f 3f       	cpi	r24, 0xFF	; 255
    3170:	11 f4       	brne	.+4      	; 0x0x3176
    3172:	80 93 d9 01 	sts	0x01D9, r24
    3176:	29 2f       	mov	r18, r25
    3178:	33 27       	eor	r19, r19
    317a:	f9 01       	movw	r30, r18
    317c:	e5 53       	subi	r30, 0x35	; 53
    317e:	fe 4f       	sbci	r31, 0xFE	; 254
    3180:	8f ef       	ldi	r24, 0xFF	; 255
    3182:	80 83       	st	Z, r24
    3184:	12 2f       	mov	r17, r18
    3186:	2f 3f       	cpi	r18, 0xFF	; 255
    3188:	11 f4       	brne	.+4      	; 0x0x318e
    318a:	0c 94 60 28 	jmp	0x50c0	; 0x0x50c0
    318e:	25 30       	cpi	r18, 0x05	; 5
    3190:	11 f4       	brne	.+4      	; 0x0x3196
    3192:	0c 94 4d 23 	jmp	0x469a	; 0x0x469a
    3196:	26 30       	cpi	r18, 0x06	; 6
    3198:	98 f4       	brcc	.+38     	; 0x0x31c0
    319a:	22 30       	cpi	r18, 0x02	; 2
    319c:	11 f4       	brne	.+4      	; 0x0x31a2
    319e:	0c 94 b9 20 	jmp	0x4172	; 0x0x4172
    31a2:	23 30       	cpi	r18, 0x03	; 3
    31a4:	28 f4       	brcc	.+10     	; 0x0x31b0
    31a6:	22 23       	and	r18, r18
    31a8:	61 f1       	breq	.+88     	; 0x0x3202
    31aa:	21 30       	cpi	r18, 0x01	; 1
    31ac:	71 f6       	brne	.-100    	; 0x0x314a
    31ae:	68 c2       	rjmp	.+1232   	; 0x0x3680
    31b0:	23 30       	cpi	r18, 0x03	; 3
    31b2:	11 f4       	brne	.+4      	; 0x0x31b8
    31b4:	0c 94 fe 21 	jmp	0x43fc	; 0x0x43fc
    31b8:	24 30       	cpi	r18, 0x04	; 4
    31ba:	39 f6       	brne	.-114    	; 0x0x314a
    31bc:	0c 94 5f 22 	jmp	0x44be	; 0x0x44be
    31c0:	28 30       	cpi	r18, 0x08	; 8
    31c2:	11 f4       	brne	.+4      	; 0x0x31c8
    31c4:	0c 94 c1 26 	jmp	0x4d82	; 0x0x4d82
    31c8:	29 30       	cpi	r18, 0x09	; 9
    31ca:	48 f4       	brcc	.+18     	; 0x0x31de
    31cc:	26 30       	cpi	r18, 0x06	; 6
    31ce:	11 f4       	brne	.+4      	; 0x0x31d4
    31d0:	0c 94 ca 23 	jmp	0x4794	; 0x0x4794
    31d4:	27 30       	cpi	r18, 0x07	; 7
    31d6:	09 f0       	breq	.+2      	; 0x0x31da
    31d8:	b8 cf       	rjmp	.-144    	; 0x0x314a
    31da:	0c 94 f2 23 	jmp	0x47e4	; 0x0x47e4
    31de:	2a 30       	cpi	r18, 0x0A	; 10
    31e0:	49 f0       	breq	.+18     	; 0x0x31f4
    31e2:	2a 30       	cpi	r18, 0x0A	; 10
    31e4:	10 f4       	brcc	.+4      	; 0x0x31ea
    31e6:	0c 94 2a 27 	jmp	0x4e54	; 0x0x4e54
    31ea:	2b 30       	cpi	r18, 0x0B	; 11
    31ec:	09 f0       	breq	.+2      	; 0x0x31f0
    31ee:	ad cf       	rjmp	.-166    	; 0x0x314a
    31f0:	0c 94 46 27 	jmp	0x4e8c	; 0x0x4e8c
    31f4:	80 91 c9 01 	lds	r24, 0x01C9
    31f8:	88 23       	and	r24, r24
    31fa:	11 f0       	breq	.+4      	; 0x0x3200
    31fc:	0c 94 2e 27 	jmp	0x4e5c	; 0x0x4e5c
    3200:	a4 cf       	rjmp	.-184    	; 0x0x314a
    3202:	80 91 4e 01 	lds	r24, 0x014E
    3206:	88 23       	and	r24, r24
    3208:	09 f0       	breq	.+2      	; 0x0x320c
    320a:	43 c0       	rjmp	.+134    	; 0x0x3292
    320c:	e0 90 c4 01 	lds	r14, 0x01C4
    3210:	f0 90 c5 01 	lds	r15, 0x01C5
    3214:	00 91 c6 01 	lds	r16, 0x01C6
    3218:	10 91 c7 01 	lds	r17, 0x01C7
    321c:	6f b7       	in	r22, 0x3f	; 63
    321e:	f8 94       	cli
    3220:	77 27       	eor	r23, r23
    3222:	20 91 99 01 	lds	r18, 0x0199
    3226:	30 91 9a 01 	lds	r19, 0x019A
    322a:	40 91 9b 01 	lds	r20, 0x019B
    322e:	50 91 9c 01 	lds	r21, 0x019C
    3232:	80 91 bc 01 	lds	r24, 0x01BC
    3236:	90 91 bd 01 	lds	r25, 0x01BD
    323a:	a0 91 be 01 	lds	r26, 0x01BE
    323e:	b0 91 bf 01 	lds	r27, 0x01BF
    3242:	28 0f       	add	r18, r24
    3244:	39 1f       	adc	r19, r25
    3246:	4a 1f       	adc	r20, r26
    3248:	5b 1f       	adc	r21, r27
    324a:	6f bf       	out	0x3f, r22	; 63
    324c:	e0 92 c4 01 	sts	0x01C4, r14
    3250:	f0 92 c5 01 	sts	0x01C5, r15
    3254:	00 93 c6 01 	sts	0x01C6, r16
    3258:	10 93 c7 01 	sts	0x01C7, r17
    325c:	10 92 4e 01 	sts	0x014E, r1
    3260:	6f b7       	in	r22, 0x3f	; 63
    3262:	f8 94       	cli
    3264:	77 27       	eor	r23, r23
    3266:	81 e0       	ldi	r24, 0x01	; 1
    3268:	80 93 bb 01 	sts	0x01BB, r24
    326c:	20 93 99 01 	sts	0x0199, r18
    3270:	30 93 9a 01 	sts	0x019A, r19
    3274:	40 93 9b 01 	sts	0x019B, r20
    3278:	50 93 9c 01 	sts	0x019C, r21
    327c:	e0 92 bc 01 	sts	0x01BC, r14
    3280:	f0 92 bd 01 	sts	0x01BD, r15
    3284:	00 93 be 01 	sts	0x01BE, r16
    3288:	10 93 bf 01 	sts	0x01BF, r17
    328c:	6f bf       	out	0x3f, r22	; 63
    328e:	0e 94 f2 01 	call	0x3e4	; 0x0x3e4
    3292:	6f b7       	in	r22, 0x3f	; 63
    3294:	f8 94       	cli
    3296:	82 b7       	in	r24, 0x32	; 50
    3298:	20 91 b4 01 	lds	r18, 0x01B4
    329c:	30 91 b5 01 	lds	r19, 0x01B5
    32a0:	40 91 b6 01 	lds	r20, 0x01B6
    32a4:	50 91 b7 01 	lds	r21, 0x01B7
    32a8:	06 b6       	in	r0, 0x36	; 54
    32aa:	01 fe       	sbrs	r0, 1
    32ac:	0f c0       	rjmp	.+30     	; 0x0x32cc
    32ae:	81 b7       	in	r24, 0x31	; 49
    32b0:	92 b7       	in	r25, 0x32	; 50
    32b2:	28 0f       	add	r18, r24
    32b4:	31 1d       	adc	r19, r1
    32b6:	41 1d       	adc	r20, r1
    32b8:	51 1d       	adc	r21, r1
    32ba:	2f 5f       	subi	r18, 0xFF	; 255
    32bc:	3f 4f       	sbci	r19, 0xFF	; 255
    32be:	4f 4f       	sbci	r20, 0xFF	; 255
    32c0:	5f 4f       	sbci	r21, 0xFF	; 255
    32c2:	29 0f       	add	r18, r25
    32c4:	31 1d       	adc	r19, r1
    32c6:	41 1d       	adc	r20, r1
    32c8:	51 1d       	adc	r21, r1
    32ca:	04 c0       	rjmp	.+8      	; 0x0x32d4
    32cc:	28 0f       	add	r18, r24
    32ce:	31 1d       	adc	r19, r1
    32d0:	41 1d       	adc	r20, r1
    32d2:	51 1d       	adc	r21, r1
    32d4:	2b a3       	std	Y+35, r18	; 0x23
    32d6:	3c a3       	std	Y+36, r19	; 0x24
    32d8:	4d a3       	std	Y+37, r20	; 0x25
    32da:	5e a3       	std	Y+38, r21	; 0x26
    32dc:	86 2f       	mov	r24, r22
    32de:	99 27       	eor	r25, r25
    32e0:	8f bf       	out	0x3f, r24	; 63
    32e2:	70 e0       	ldi	r23, 0x00	; 0
    32e4:	89 e0       	ldi	r24, 0x09	; 9
    32e6:	78 9f       	mul	r23, r24
    32e8:	f0 01       	movw	r30, r0
    32ea:	11 24       	eor	r1, r1
    32ec:	e4 5c       	subi	r30, 0xC4	; 196
    32ee:	fe 4f       	sbci	r31, 0xFE	; 254
    32f0:	60 85       	ldd	r22, Z+8	; 0x08
    32f2:	61 ff       	sbrs	r22, 1
    32f4:	c0 c1       	rjmp	.+896    	; 0x0x3676
    32f6:	20 81       	ld	r18, Z
    32f8:	31 81       	ldd	r19, Z+1	; 0x01
    32fa:	42 81       	ldd	r20, Z+2	; 0x02
    32fc:	53 81       	ldd	r21, Z+3	; 0x03
    32fe:	e4 80       	ldd	r14, Z+4	; 0x04
    3300:	f5 80       	ldd	r15, Z+5	; 0x05
    3302:	06 81       	ldd	r16, Z+6	; 0x06
    3304:	17 81       	ldd	r17, Z+7	; 0x07
    3306:	8b a1       	ldd	r24, Y+35	; 0x23
    3308:	9c a1       	ldd	r25, Y+36	; 0x24
    330a:	ad a1       	ldd	r26, Y+37	; 0x25
    330c:	be a1       	ldd	r27, Y+38	; 0x26
    330e:	82 1b       	sub	r24, r18
    3310:	93 0b       	sbc	r25, r19
    3312:	a4 0b       	sbc	r26, r20
    3314:	b5 0b       	sbc	r27, r21
    3316:	8e 15       	cp	r24, r14
    3318:	9f 05       	cpc	r25, r15
    331a:	a0 07       	cpc	r26, r16
    331c:	b1 07       	cpc	r27, r17
    331e:	08 f4       	brcc	.+2      	; 0x0x3322
    3320:	aa c1       	rjmp	.+852    	; 0x0x3676
    3322:	60 ff       	sbrs	r22, 0
    3324:	03 c0       	rjmp	.+6      	; 0x0x332c
    3326:	6d 7f       	andi	r22, 0xFD	; 253
    3328:	60 87       	std	Z+8, r22	; 0x08
    332a:	08 c0       	rjmp	.+16     	; 0x0x333c
    332c:	2e 0d       	add	r18, r14
    332e:	3f 1d       	adc	r19, r15
    3330:	40 1f       	adc	r20, r16
    3332:	51 1f       	adc	r21, r17
    3334:	20 83       	st	Z, r18
    3336:	31 83       	std	Z+1, r19	; 0x01
    3338:	42 83       	std	Z+2, r20	; 0x02
    333a:	53 83       	std	Z+3, r21	; 0x03
    333c:	77 23       	and	r23, r23
    333e:	21 f0       	breq	.+8      	; 0x0x3348
    3340:	71 30       	cpi	r23, 0x01	; 1
    3342:	09 f0       	breq	.+2      	; 0x0x3346
    3344:	98 c1       	rjmp	.+816    	; 0x0x3676
    3346:	5c c1       	rjmp	.+696    	; 0x0x3600
    3348:	80 91 0c 01 	lds	r24, 0x010C
    334c:	88 23       	and	r24, r24
    334e:	11 f0       	breq	.+4      	; 0x0x3354
    3350:	0c 94 52 2a 	jmp	0x54a4	; 0x0x54a4
    3354:	40 e1       	ldi	r20, 0x10	; 16
    3356:	51 e0       	ldi	r21, 0x01	; 1
    3358:	80 91 14 01 	lds	r24, 0x0114
    335c:	80 93 04 00 	sts	0x0004, r24
    3360:	84 ec       	ldi	r24, 0xC4	; 196
    3362:	80 93 1a 01 	sts	0x011A, r24
    3366:	87 e0       	ldi	r24, 0x07	; 7
    3368:	80 93 19 01 	sts	0x0119, r24
    336c:	81 ea       	ldi	r24, 0xA1	; 161
    336e:	80 93 18 01 	sts	0x0118, r24
    3372:	83 ef       	ldi	r24, 0xF3	; 243
    3374:	80 93 17 01 	sts	0x0117, r24
    3378:	8f ef       	ldi	r24, 0xFF	; 255
    337a:	80 93 11 01 	sts	0x0111, r24
    337e:	80 93 10 01 	sts	0x0110, r24
    3382:	23 e9       	ldi	r18, 0x93	; 147
    3384:	20 93 16 01 	sts	0x0116, r18
    3388:	80 91 50 01 	lds	r24, 0x0150
    338c:	90 91 51 01 	lds	r25, 0x0151
    3390:	89 2b       	or	r24, r25
    3392:	11 f0       	breq	.+4      	; 0x0x3398
    3394:	0c 94 52 2a 	jmp	0x54a4	; 0x0x54a4
    3398:	50 93 51 01 	sts	0x0151, r21
    339c:	40 93 50 01 	sts	0x0150, r20
    33a0:	64 e0       	ldi	r22, 0x04	; 4
    33a2:	60 93 14 01 	sts	0x0114, r22
    33a6:	80 91 0a 01 	lds	r24, 0x010A
    33aa:	88 23       	and	r24, r24
    33ac:	09 f4       	brne	.+2      	; 0x0x33b0
    33ae:	f7 c0       	rjmp	.+494    	; 0x0x359e
    33b0:	10 92 0a 01 	sts	0x010A, r1
    33b4:	8f ef       	ldi	r24, 0xFF	; 255
    33b6:	9f ef       	ldi	r25, 0xFF	; 255
    33b8:	80 93 11 01 	sts	0x0111, r24
    33bc:	8f ef       	ldi	r24, 0xFF	; 255
    33be:	90 e0       	ldi	r25, 0x00	; 0
    33c0:	80 93 10 01 	sts	0x0110, r24
    33c4:	2f b7       	in	r18, 0x3f	; 63
    33c6:	f8 94       	cli
    33c8:	33 27       	eor	r19, r19
    33ca:	80 91 08 01 	lds	r24, 0x0108
    33ce:	90 91 09 01 	lds	r25, 0x0109
    33d2:	2f bf       	out	0x3f, r18	; 63
    33d4:	80 93 13 01 	sts	0x0113, r24
    33d8:	89 2f       	mov	r24, r25
    33da:	99 27       	eor	r25, r25
    33dc:	80 93 12 01 	sts	0x0112, r24
    33e0:	82 e2       	ldi	r24, 0x22	; 34
    33e2:	80 93 15 01 	sts	0x0115, r24
    33e6:	8f b7       	in	r24, 0x3f	; 63
    33e8:	f8 94       	cli
    33ea:	28 2f       	mov	r18, r24
    33ec:	33 27       	eor	r19, r19
    33ee:	90 91 dd 01 	lds	r25, 0x01DD
    33f2:	91 fd       	sbrc	r25, 1
    33f4:	04 c0       	rjmp	.+8      	; 0x0x33fe
    33f6:	80 91 91 01 	lds	r24, 0x0191
    33fa:	88 23       	and	r24, r24
    33fc:	51 f4       	brne	.+20     	; 0x0x3412
    33fe:	2f bf       	out	0x3f, r18	; 63
    3400:	81 e0       	ldi	r24, 0x01	; 1
    3402:	80 93 0a 01 	sts	0x010A, r24
    3406:	10 92 51 01 	sts	0x0151, r1
    340a:	10 92 50 01 	sts	0x0150, r1
    340e:	0c 94 52 2a 	jmp	0x54a4	; 0x0x54a4
    3412:	92 60       	ori	r25, 0x02	; 2
    3414:	90 93 dd 01 	sts	0x01DD, r25
    3418:	60 93 14 01 	sts	0x0114, r22
    341c:	50 93 5a 01 	sts	0x015A, r21
    3420:	40 93 59 01 	sts	0x0159, r20
    3424:	2f bf       	out	0x3f, r18	; 63
    3426:	8f b7       	in	r24, 0x3f	; 63
    3428:	8a a3       	std	Y+34, r24	; 0x22
    342a:	f8 94       	cli
    342c:	80 91 94 01 	lds	r24, 0x0194
    3430:	82 60       	ori	r24, 0x02	; 2
    3432:	80 93 94 01 	sts	0x0194, r24
    3436:	20 91 0d 01 	lds	r18, 0x010D
    343a:	24 30       	cpi	r18, 0x04	; 4
    343c:	f1 f4       	brne	.+60     	; 0x0x347a
    343e:	9f b7       	in	r25, 0x3f	; 63
    3440:	f8 94       	cli
    3442:	80 91 cf 01 	lds	r24, 0x01CF
    3446:	8f 3f       	cpi	r24, 0xFF	; 255
    3448:	a9 f4       	brne	.+42     	; 0x0x3474
    344a:	80 91 d9 01 	lds	r24, 0x01D9
    344e:	84 30       	cpi	r24, 0x04	; 4
    3450:	11 f0       	breq	.+4      	; 0x0x3456
    3452:	0c 94 59 29 	jmp	0x52b2	; 0x0x52b2
    3456:	0e c0       	rjmp	.+28     	; 0x0x3474
    3458:	84 e0       	ldi	r24, 0x04	; 4
    345a:	80 93 ca 01 	sts	0x01CA, r24
    345e:	80 93 d9 01 	sts	0x01D9, r24
    3462:	08 c0       	rjmp	.+16     	; 0x0x3474
    3464:	e0 91 d9 01 	lds	r30, 0x01D9
    3468:	ff 27       	eor	r31, r31
    346a:	e5 53       	subi	r30, 0x35	; 53
    346c:	fe 4f       	sbci	r31, 0xFE	; 254
    346e:	20 83       	st	Z, r18
    3470:	20 93 d9 01 	sts	0x01D9, r18
    3474:	89 2f       	mov	r24, r25
    3476:	99 27       	eor	r25, r25
    3478:	8f bf       	out	0x3f, r24	; 63
    347a:	80 91 94 01 	lds	r24, 0x0194
    347e:	80 fd       	sbrc	r24, 0
    3480:	50 c0       	rjmp	.+160    	; 0x0x3522
    3482:	20 90 87 01 	lds	r2, 0x0187
    3486:	30 90 88 01 	lds	r3, 0x0188
    348a:	40 90 89 01 	lds	r4, 0x0189
    348e:	50 90 8a 01 	lds	r5, 0x018A
    3492:	66 24       	eor	r6, r6
    3494:	77 24       	eor	r7, r7
    3496:	88 24       	eor	r8, r8
    3498:	ee e4       	ldi	r30, 0x4E	; 78
    349a:	ae 2e       	mov	r10, r30
    349c:	73 e8       	ldi	r23, 0x83	; 131
    349e:	b7 2e       	mov	r11, r23
    34a0:	cc 24       	eor	r12, r12
    34a2:	dd 24       	eor	r13, r13
    34a4:	ee 24       	eor	r14, r14
    34a6:	ff 24       	eor	r15, r15
    34a8:	00 e0       	ldi	r16, 0x00	; 0
    34aa:	10 e0       	ldi	r17, 0x00	; 0
    34ac:	22 2d       	mov	r18, r2
    34ae:	33 2d       	mov	r19, r3
    34b0:	44 2d       	mov	r20, r4
    34b2:	55 2d       	mov	r21, r5
    34b4:	66 2d       	mov	r22, r6
    34b6:	77 2d       	mov	r23, r7
    34b8:	88 2d       	mov	r24, r8
    34ba:	90 e0       	ldi	r25, 0x00	; 0
    34bc:	0e 94 c1 35 	call	0x6b82	; 0x0x6b82
    34c0:	2e a7       	std	Y+46, r18	; 0x2e
    34c2:	3f a7       	std	Y+47, r19	; 0x2f
    34c4:	48 ab       	std	Y+48, r20	; 0x30
    34c6:	59 ab       	std	Y+49, r21	; 0x31
    34c8:	6a ab       	std	Y+50, r22	; 0x32
    34ca:	7b ab       	std	Y+51, r23	; 0x33
    34cc:	8c ab       	std	Y+52, r24	; 0x34
    34ce:	9d ab       	std	Y+53, r25	; 0x35
    34d0:	82 2e       	mov	r8, r18
    34d2:	93 2e       	mov	r9, r19
    34d4:	a4 2e       	mov	r10, r20
    34d6:	b5 2e       	mov	r11, r21
    34d8:	24 01       	movw	r4, r8
    34da:	35 01       	movw	r6, r10
    34dc:	00 e2       	ldi	r16, 0x20	; 32
    34de:	0e 94 bf 36 	call	0x6d7e	; 0x0x6d7e
    34e2:	a2 2e       	mov	r10, r18
    34e4:	b3 2e       	mov	r11, r19
    34e6:	c4 2e       	mov	r12, r20
    34e8:	d5 2e       	mov	r13, r21
    34ea:	d3 01       	movw	r26, r6
    34ec:	c2 01       	movw	r24, r4
    34ee:	b6 95       	lsr	r27
    34f0:	a7 95       	ror	r26
    34f2:	97 95       	ror	r25
    34f4:	87 95       	ror	r24
    34f6:	8a 0d       	add	r24, r10
    34f8:	9b 1d       	adc	r25, r11
    34fa:	ac 1d       	adc	r26, r12
    34fc:	bd 1d       	adc	r27, r13
    34fe:	b7 ff       	sbrs	r27, 7
    3500:	04 c0       	rjmp	.+8      	; 0x0x350a
    3502:	bf 77       	andi	r27, 0x7F	; 127
    3504:	01 96       	adiw	r24, 0x01	; 1
    3506:	a1 1d       	adc	r26, r1
    3508:	b1 1d       	adc	r27, r1
    350a:	80 93 87 01 	sts	0x0187, r24
    350e:	90 93 88 01 	sts	0x0188, r25
    3512:	a0 93 89 01 	sts	0x0189, r26
    3516:	b0 93 8a 01 	sts	0x018A, r27
    351a:	8f 71       	andi	r24, 0x1F	; 31
    351c:	90 70       	andi	r25, 0x00	; 0
    351e:	01 96       	adiw	r24, 0x01	; 1
    3520:	02 c0       	rjmp	.+4      	; 0x0x3526
    3522:	81 e0       	ldi	r24, 0x01	; 1
    3524:	90 e0       	ldi	r25, 0x00	; 0
    3526:	90 93 b9 01 	sts	0x01B9, r25
    352a:	80 93 b8 01 	sts	0x01B8, r24
    352e:	80 91 35 01 	lds	r24, 0x0135
    3532:	99 27       	eor	r25, r25
    3534:	78 2f       	mov	r23, r24
    3536:	66 27       	eor	r22, r22
    3538:	80 91 36 01 	lds	r24, 0x0136
    353c:	99 27       	eor	r25, r25
    353e:	68 2b       	or	r22, r24
    3540:	79 2b       	or	r23, r25
    3542:	77 fd       	sbrc	r23, 7
    3544:	05 c0       	rjmp	.+10     	; 0x0x3550
    3546:	60 91 53 01 	lds	r22, 0x0153
    354a:	70 91 54 01 	lds	r23, 0x0154
    354e:	02 c0       	rjmp	.+4      	; 0x0x3554
    3550:	60 95       	com	r22
    3552:	70 95       	com	r23
    3554:	e5 e3       	ldi	r30, 0x35	; 53
    3556:	f1 e0       	ldi	r31, 0x01	; 1
    3558:	11 82       	std	Z+1, r1	; 0x01
    355a:	10 92 35 01 	sts	0x0135, r1
    355e:	61 15       	cp	r22, r1
    3560:	71 05       	cpc	r23, r1
    3562:	29 f4       	brne	.+10     	; 0x0x356e
    3564:	66 e0       	ldi	r22, 0x06	; 6
    3566:	70 e0       	ldi	r23, 0x00	; 0
    3568:	80 e0       	ldi	r24, 0x00	; 0
    356a:	90 e0       	ldi	r25, 0x00	; 0
    356c:	10 c0       	rjmp	.+32     	; 0x0x358e
    356e:	88 27       	eor	r24, r24
    3570:	99 27       	eor	r25, r25
    3572:	26 e6       	ldi	r18, 0x66	; 102
    3574:	32 e0       	ldi	r19, 0x02	; 2
    3576:	40 e0       	ldi	r20, 0x00	; 0
    3578:	50 e0       	ldi	r21, 0x00	; 0
    357a:	0e 94 cc 37 	call	0x6f98	; 0x0x6f98
    357e:	67 2f       	mov	r22, r23
    3580:	78 2f       	mov	r23, r24
    3582:	89 2f       	mov	r24, r25
    3584:	99 27       	eor	r25, r25
    3586:	6a 5e       	subi	r22, 0xEA	; 234
    3588:	7f 4f       	sbci	r23, 0xFF	; 255
    358a:	8f 4f       	sbci	r24, 0xFF	; 255
    358c:	9f 4f       	sbci	r25, 0xFF	; 255
    358e:	70 93 b0 01 	sts	0x01B0, r23
    3592:	60 93 af 01 	sts	0x01AF, r22
    3596:	aa a1       	ldd	r26, Y+34	; 0x22
    3598:	8a 2f       	mov	r24, r26
    359a:	99 27       	eor	r25, r25
    359c:	8f bf       	out	0x3f, r24	; 63
    359e:	81 e0       	ldi	r24, 0x01	; 1
    35a0:	80 93 0c 01 	sts	0x010C, r24
    35a4:	6f b7       	in	r22, 0x3f	; 63
    35a6:	f8 94       	cli
    35a8:	82 b7       	in	r24, 0x32	; 50
    35aa:	20 91 b4 01 	lds	r18, 0x01B4
    35ae:	30 91 b5 01 	lds	r19, 0x01B5
    35b2:	40 91 b6 01 	lds	r20, 0x01B6
    35b6:	50 91 b7 01 	lds	r21, 0x01B7
    35ba:	06 b6       	in	r0, 0x36	; 54
    35bc:	01 fe       	sbrs	r0, 1
    35be:	0f c0       	rjmp	.+30     	; 0x0x35de
    35c0:	81 b7       	in	r24, 0x31	; 49
    35c2:	92 b7       	in	r25, 0x32	; 50
    35c4:	28 0f       	add	r18, r24
    35c6:	31 1d       	adc	r19, r1
    35c8:	41 1d       	adc	r20, r1
    35ca:	51 1d       	adc	r21, r1
    35cc:	2f 5f       	subi	r18, 0xFF	; 255
    35ce:	3f 4f       	sbci	r19, 0xFF	; 255
    35d0:	4f 4f       	sbci	r20, 0xFF	; 255
    35d2:	5f 4f       	sbci	r21, 0xFF	; 255
    35d4:	29 0f       	add	r18, r25
    35d6:	31 1d       	adc	r19, r1
    35d8:	41 1d       	adc	r20, r1
    35da:	51 1d       	adc	r21, r1
    35dc:	04 c0       	rjmp	.+8      	; 0x0x35e6
    35de:	28 0f       	add	r18, r24
    35e0:	31 1d       	adc	r19, r1
    35e2:	41 1d       	adc	r20, r1
    35e4:	51 1d       	adc	r21, r1
    35e6:	86 2f       	mov	r24, r22
    35e8:	99 27       	eor	r25, r25
    35ea:	8f bf       	out	0x3f, r24	; 63
    35ec:	20 93 c0 01 	sts	0x01C0, r18
    35f0:	30 93 c1 01 	sts	0x01C1, r19
    35f4:	40 93 c2 01 	sts	0x01C2, r20
    35f8:	50 93 c3 01 	sts	0x01C3, r21
    35fc:	0c 94 52 2a 	jmp	0x54a4	; 0x0x54a4
    3600:	8f b7       	in	r24, 0x3f	; 63
    3602:	f8 94       	cli
    3604:	08 2f       	mov	r16, r24
    3606:	11 27       	eor	r17, r17
    3608:	f0 2e       	mov	r15, r16
    360a:	80 91 0d 01 	lds	r24, 0x010D
    360e:	84 30       	cpi	r24, 0x04	; 4
    3610:	b9 f0       	breq	.+46     	; 0x0x3640
    3612:	85 30       	cpi	r24, 0x05	; 5
    3614:	f9 f0       	breq	.+62     	; 0x0x3654
    3616:	81 30       	cpi	r24, 0x01	; 1
    3618:	51 f5       	brne	.+84     	; 0x0x366e
    361a:	90 e0       	ldi	r25, 0x00	; 0
    361c:	80 91 91 01 	lds	r24, 0x0191
    3620:	83 30       	cpi	r24, 0x03	; 3
    3622:	09 f4       	brne	.+2      	; 0x0x3626
    3624:	91 e0       	ldi	r25, 0x01	; 1
    3626:	99 23       	and	r25, r25
    3628:	11 f5       	brne	.+68     	; 0x0x366e
    362a:	80 91 04 01 	lds	r24, 0x0104
    362e:	84 30       	cpi	r24, 0x04	; 4
    3630:	19 f0       	breq	.+6      	; 0x0x3638
    3632:	85 e0       	ldi	r24, 0x05	; 5
    3634:	80 93 04 01 	sts	0x0104, r24
    3638:	81 e0       	ldi	r24, 0x01	; 1
    363a:	0e 94 f8 03 	call	0x7f0	; 0x0x7f0
    363e:	17 c0       	rjmp	.+46     	; 0x0x366e
    3640:	85 e0       	ldi	r24, 0x05	; 5
    3642:	80 93 0d 01 	sts	0x010D, r24
    3646:	10 92 d8 01 	sts	0x01D8, r1
    364a:	69 e3       	ldi	r22, 0x39	; 57
    364c:	80 e0       	ldi	r24, 0x00	; 0
    364e:	0e 94 bd 01 	call	0x37a	; 0x0x37a
    3652:	0d c0       	rjmp	.+26     	; 0x0x366e
    3654:	0e 94 80 05 	call	0xb00	; 0x0xb00
    3658:	83 e0       	ldi	r24, 0x03	; 3
    365a:	0e 94 f8 03 	call	0x7f0	; 0x0x7f0
    365e:	80 e5       	ldi	r24, 0x50	; 80
    3660:	90 e0       	ldi	r25, 0x00	; 0
    3662:	01 97       	sbiw	r24, 0x01	; 1
    3664:	01 96       	adiw	r24, 0x01	; 1
    3666:	01 97       	sbiw	r24, 0x01	; 1
    3668:	e1 f7       	brne	.-8      	; 0x0x3662
    366a:	0f bf       	out	0x3f, r16	; 63
    366c:	0f c7       	rjmp	.+3614   	; 0x0x448c
    366e:	0e 94 b4 02 	call	0x568	; 0x0x568
    3672:	ff be       	out	0x3f, r15	; 63
    3674:	0b c7       	rjmp	.+3606   	; 0x0x448c
    3676:	7f 5f       	subi	r23, 0xFF	; 255
    3678:	72 30       	cpi	r23, 0x02	; 2
    367a:	08 f4       	brcc	.+2      	; 0x0x367e
    367c:	33 ce       	rjmp	.-922    	; 0x0x32e4
    367e:	06 c7       	rjmp	.+3596   	; 0x0x448c
    3680:	6f b7       	in	r22, 0x3f	; 63
    3682:	f8 94       	cli
    3684:	82 b7       	in	r24, 0x32	; 50
    3686:	20 91 b4 01 	lds	r18, 0x01B4
    368a:	30 91 b5 01 	lds	r19, 0x01B5
    368e:	40 91 b6 01 	lds	r20, 0x01B6
    3692:	50 91 b7 01 	lds	r21, 0x01B7
    3696:	06 b6       	in	r0, 0x36	; 54
    3698:	01 fe       	sbrs	r0, 1
    369a:	0f c0       	rjmp	.+30     	; 0x0x36ba
    369c:	81 b7       	in	r24, 0x31	; 49
    369e:	92 b7       	in	r25, 0x32	; 50
    36a0:	28 0f       	add	r18, r24
    36a2:	31 1d       	adc	r19, r1
    36a4:	41 1d       	adc	r20, r1
    36a6:	51 1d       	adc	r21, r1
    36a8:	2f 5f       	subi	r18, 0xFF	; 255
    36aa:	3f 4f       	sbci	r19, 0xFF	; 255
    36ac:	4f 4f       	sbci	r20, 0xFF	; 255
    36ae:	5f 4f       	sbci	r21, 0xFF	; 255
    36b0:	29 0f       	add	r18, r25
    36b2:	31 1d       	adc	r19, r1
    36b4:	41 1d       	adc	r20, r1
    36b6:	51 1d       	adc	r21, r1
    36b8:	04 c0       	rjmp	.+8      	; 0x0x36c2
    36ba:	28 0f       	add	r18, r24
    36bc:	31 1d       	adc	r19, r1
    36be:	41 1d       	adc	r20, r1
    36c0:	51 1d       	adc	r21, r1
    36c2:	2d 8f       	std	Y+29, r18	; 0x1d
    36c4:	3e 8f       	std	Y+30, r19	; 0x1e
    36c6:	4f 8f       	std	Y+31, r20	; 0x1f
    36c8:	58 a3       	std	Y+32, r21	; 0x20
    36ca:	86 2f       	mov	r24, r22
    36cc:	99 27       	eor	r25, r25
    36ce:	8f bf       	out	0x3f, r24	; 63
    36d0:	8f b7       	in	r24, 0x3f	; 63
    36d2:	f8 94       	cli
    36d4:	99 27       	eor	r25, r25
    36d6:	10 92 bb 01 	sts	0x01BB, r1
    36da:	8f bf       	out	0x3f, r24	; 63
    36dc:	80 91 44 01 	lds	r24, 0x0144
    36e0:	81 ff       	sbrs	r24, 1
    36e2:	27 c0       	rjmp	.+78     	; 0x0x3732
    36e4:	80 91 3c 01 	lds	r24, 0x013C
    36e8:	90 91 3d 01 	lds	r25, 0x013D
    36ec:	a0 91 3e 01 	lds	r26, 0x013E
    36f0:	b0 91 3f 01 	lds	r27, 0x013F
    36f4:	2d 8d       	ldd	r18, Y+29	; 0x1d
    36f6:	3e 8d       	ldd	r19, Y+30	; 0x1e
    36f8:	4f 8d       	ldd	r20, Y+31	; 0x1f
    36fa:	58 a1       	ldd	r21, Y+32	; 0x20
    36fc:	28 1b       	sub	r18, r24
    36fe:	39 0b       	sbc	r19, r25
    3700:	4a 0b       	sbc	r20, r26
    3702:	5b 0b       	sbc	r21, r27
    3704:	e0 90 40 01 	lds	r14, 0x0140
    3708:	f0 90 41 01 	lds	r15, 0x0141
    370c:	00 91 42 01 	lds	r16, 0x0142
    3710:	10 91 43 01 	lds	r17, 0x0143
    3714:	e2 1a       	sub	r14, r18
    3716:	f3 0a       	sbc	r15, r19
    3718:	04 0b       	sbc	r16, r20
    371a:	15 0b       	sbc	r17, r21
    371c:	3f ef       	ldi	r19, 0xFF	; 255
    371e:	e3 16       	cp	r14, r19
    3720:	3f ef       	ldi	r19, 0xFF	; 255
    3722:	f3 06       	cpc	r15, r19
    3724:	3f ef       	ldi	r19, 0xFF	; 255
    3726:	03 07       	cpc	r16, r19
    3728:	3f e7       	ldi	r19, 0x7F	; 127
    372a:	13 07       	cpc	r17, r19
    372c:	11 f0       	breq	.+4      	; 0x0x3732
    372e:	61 e0       	ldi	r22, 0x01	; 1
    3730:	09 c0       	rjmp	.+18     	; 0x0x3744
    3732:	3f ef       	ldi	r19, 0xFF	; 255
    3734:	e3 2e       	mov	r14, r19
    3736:	3f ef       	ldi	r19, 0xFF	; 255
    3738:	f3 2e       	mov	r15, r19
    373a:	3f ef       	ldi	r19, 0xFF	; 255
    373c:	03 2f       	mov	r16, r19
    373e:	3f e7       	ldi	r19, 0x7F	; 127
    3740:	13 2f       	mov	r17, r19
    3742:	60 e0       	ldi	r22, 0x00	; 0
    3744:	80 91 4d 01 	lds	r24, 0x014D
    3748:	81 ff       	sbrs	r24, 1
    374a:	26 c0       	rjmp	.+76     	; 0x0x3798
    374c:	80 91 45 01 	lds	r24, 0x0145
    3750:	90 91 46 01 	lds	r25, 0x0146
    3754:	a0 91 47 01 	lds	r26, 0x0147
    3758:	b0 91 48 01 	lds	r27, 0x0148
    375c:	2d 8d       	ldd	r18, Y+29	; 0x1d
    375e:	3e 8d       	ldd	r19, Y+30	; 0x1e
    3760:	4f 8d       	ldd	r20, Y+31	; 0x1f
    3762:	58 a1       	ldd	r21, Y+32	; 0x20
    3764:	28 1b       	sub	r18, r24
    3766:	39 0b       	sbc	r19, r25
    3768:	4a 0b       	sbc	r20, r26
    376a:	5b 0b       	sbc	r21, r27
    376c:	da 01       	movw	r26, r20
    376e:	c9 01       	movw	r24, r18
    3770:	20 91 49 01 	lds	r18, 0x0149
    3774:	30 91 4a 01 	lds	r19, 0x014A
    3778:	40 91 4b 01 	lds	r20, 0x014B
    377c:	50 91 4c 01 	lds	r21, 0x014C
    3780:	28 1b       	sub	r18, r24
    3782:	39 0b       	sbc	r19, r25
    3784:	4a 0b       	sbc	r20, r26
    3786:	5b 0b       	sbc	r21, r27
    3788:	2e 15       	cp	r18, r14
    378a:	3f 05       	cpc	r19, r15
    378c:	40 07       	cpc	r20, r16
    378e:	51 07       	cpc	r21, r17
    3790:	1c f4       	brge	.+6      	; 0x0x3798
    3792:	79 01       	movw	r14, r18
    3794:	8a 01       	movw	r16, r20
    3796:	03 c0       	rjmp	.+6      	; 0x0x379e
    3798:	66 23       	and	r22, r22
    379a:	09 f4       	brne	.+2      	; 0x0x379e
    379c:	d6 cc       	rjmp	.-1620   	; 0x0x314a
    379e:	1e 14       	cp	r1, r14
    37a0:	1f 04       	cpc	r1, r15
    37a2:	10 06       	cpc	r1, r16
    37a4:	11 06       	cpc	r1, r17
    37a6:	0c f4       	brge	.+2      	; 0x0x37aa
    37a8:	0e c4       	rjmp	.+2076   	; 0x0x3fc6
    37aa:	70 e0       	ldi	r23, 0x00	; 0
    37ac:	89 e0       	ldi	r24, 0x09	; 9
    37ae:	78 9f       	mul	r23, r24
    37b0:	f0 01       	movw	r30, r0
    37b2:	11 24       	eor	r1, r1
    37b4:	e4 5c       	subi	r30, 0xC4	; 196
    37b6:	fe 4f       	sbci	r31, 0xFE	; 254
    37b8:	60 85       	ldd	r22, Z+8	; 0x08
    37ba:	61 ff       	sbrs	r22, 1
    37bc:	ff c3       	rjmp	.+2046   	; 0x0x3fbc
    37be:	20 81       	ld	r18, Z
    37c0:	31 81       	ldd	r19, Z+1	; 0x01
    37c2:	42 81       	ldd	r20, Z+2	; 0x02
    37c4:	53 81       	ldd	r21, Z+3	; 0x03
    37c6:	e4 80       	ldd	r14, Z+4	; 0x04
    37c8:	f5 80       	ldd	r15, Z+5	; 0x05
    37ca:	06 81       	ldd	r16, Z+6	; 0x06
    37cc:	17 81       	ldd	r17, Z+7	; 0x07
    37ce:	8d 8d       	ldd	r24, Y+29	; 0x1d
    37d0:	9e 8d       	ldd	r25, Y+30	; 0x1e
    37d2:	af 8d       	ldd	r26, Y+31	; 0x1f
    37d4:	b8 a1       	ldd	r27, Y+32	; 0x20
    37d6:	82 1b       	sub	r24, r18
    37d8:	93 0b       	sbc	r25, r19
    37da:	a4 0b       	sbc	r26, r20
    37dc:	b5 0b       	sbc	r27, r21
    37de:	8e 15       	cp	r24, r14
    37e0:	9f 05       	cpc	r25, r15
    37e2:	a0 07       	cpc	r26, r16
    37e4:	b1 07       	cpc	r27, r17
    37e6:	08 f4       	brcc	.+2      	; 0x0x37ea
    37e8:	e9 c3       	rjmp	.+2002   	; 0x0x3fbc
    37ea:	60 ff       	sbrs	r22, 0
    37ec:	03 c0       	rjmp	.+6      	; 0x0x37f4
    37ee:	6d 7f       	andi	r22, 0xFD	; 253
    37f0:	60 87       	std	Z+8, r22	; 0x08
    37f2:	08 c0       	rjmp	.+16     	; 0x0x3804
    37f4:	2e 0d       	add	r18, r14
    37f6:	3f 1d       	adc	r19, r15
    37f8:	40 1f       	adc	r20, r16
    37fa:	51 1f       	adc	r21, r17
    37fc:	20 83       	st	Z, r18
    37fe:	31 83       	std	Z+1, r19	; 0x01
    3800:	42 83       	std	Z+2, r20	; 0x02
    3802:	53 83       	std	Z+3, r21	; 0x03
    3804:	77 23       	and	r23, r23
    3806:	21 f0       	breq	.+8      	; 0x0x3810
    3808:	71 30       	cpi	r23, 0x01	; 1
    380a:	09 f0       	breq	.+2      	; 0x0x380e
    380c:	d7 c3       	rjmp	.+1966   	; 0x0x3fbc
    380e:	5c c1       	rjmp	.+696    	; 0x0x3ac8
    3810:	80 91 0c 01 	lds	r24, 0x010C
    3814:	88 23       	and	r24, r24
    3816:	11 f0       	breq	.+4      	; 0x0x381c
    3818:	0c 94 55 2a 	jmp	0x54aa	; 0x0x54aa
    381c:	40 e1       	ldi	r20, 0x10	; 16
    381e:	51 e0       	ldi	r21, 0x01	; 1
    3820:	80 91 14 01 	lds	r24, 0x0114
    3824:	80 93 04 00 	sts	0x0004, r24
    3828:	84 ec       	ldi	r24, 0xC4	; 196
    382a:	80 93 1a 01 	sts	0x011A, r24
    382e:	87 e0       	ldi	r24, 0x07	; 7
    3830:	80 93 19 01 	sts	0x0119, r24
    3834:	81 ea       	ldi	r24, 0xA1	; 161
    3836:	80 93 18 01 	sts	0x0118, r24
    383a:	83 ef       	ldi	r24, 0xF3	; 243
    383c:	80 93 17 01 	sts	0x0117, r24
    3840:	8f ef       	ldi	r24, 0xFF	; 255
    3842:	80 93 11 01 	sts	0x0111, r24
    3846:	80 93 10 01 	sts	0x0110, r24
    384a:	23 e9       	ldi	r18, 0x93	; 147
    384c:	20 93 16 01 	sts	0x0116, r18
    3850:	80 91 50 01 	lds	r24, 0x0150
    3854:	90 91 51 01 	lds	r25, 0x0151
    3858:	89 2b       	or	r24, r25
    385a:	11 f0       	breq	.+4      	; 0x0x3860
    385c:	0c 94 55 2a 	jmp	0x54aa	; 0x0x54aa
    3860:	50 93 51 01 	sts	0x0151, r21
    3864:	40 93 50 01 	sts	0x0150, r20
    3868:	64 e0       	ldi	r22, 0x04	; 4
    386a:	60 93 14 01 	sts	0x0114, r22
    386e:	80 91 0a 01 	lds	r24, 0x010A
    3872:	88 23       	and	r24, r24
    3874:	09 f4       	brne	.+2      	; 0x0x3878
    3876:	f7 c0       	rjmp	.+494    	; 0x0x3a66
    3878:	10 92 0a 01 	sts	0x010A, r1
    387c:	8f ef       	ldi	r24, 0xFF	; 255
    387e:	9f ef       	ldi	r25, 0xFF	; 255
    3880:	80 93 11 01 	sts	0x0111, r24
    3884:	8f ef       	ldi	r24, 0xFF	; 255
    3886:	90 e0       	ldi	r25, 0x00	; 0
    3888:	80 93 10 01 	sts	0x0110, r24
    388c:	2f b7       	in	r18, 0x3f	; 63
    388e:	f8 94       	cli
    3890:	33 27       	eor	r19, r19
    3892:	80 91 08 01 	lds	r24, 0x0108
    3896:	90 91 09 01 	lds	r25, 0x0109
    389a:	2f bf       	out	0x3f, r18	; 63
    389c:	80 93 13 01 	sts	0x0113, r24
    38a0:	89 2f       	mov	r24, r25
    38a2:	99 27       	eor	r25, r25
    38a4:	80 93 12 01 	sts	0x0112, r24
    38a8:	82 e2       	ldi	r24, 0x22	; 34
    38aa:	80 93 15 01 	sts	0x0115, r24
    38ae:	8f b7       	in	r24, 0x3f	; 63
    38b0:	f8 94       	cli
    38b2:	28 2f       	mov	r18, r24
    38b4:	33 27       	eor	r19, r19
    38b6:	90 91 dd 01 	lds	r25, 0x01DD
    38ba:	91 fd       	sbrc	r25, 1
    38bc:	04 c0       	rjmp	.+8      	; 0x0x38c6
    38be:	80 91 91 01 	lds	r24, 0x0191
    38c2:	88 23       	and	r24, r24
    38c4:	51 f4       	brne	.+20     	; 0x0x38da
    38c6:	2f bf       	out	0x3f, r18	; 63
    38c8:	81 e0       	ldi	r24, 0x01	; 1
    38ca:	80 93 0a 01 	sts	0x010A, r24
    38ce:	10 92 51 01 	sts	0x0151, r1
    38d2:	10 92 50 01 	sts	0x0150, r1
    38d6:	0c 94 55 2a 	jmp	0x54aa	; 0x0x54aa
    38da:	92 60       	ori	r25, 0x02	; 2
    38dc:	90 93 dd 01 	sts	0x01DD, r25
    38e0:	60 93 14 01 	sts	0x0114, r22
    38e4:	50 93 5a 01 	sts	0x015A, r21
    38e8:	40 93 59 01 	sts	0x0159, r20
    38ec:	2f bf       	out	0x3f, r18	; 63
    38ee:	3f b7       	in	r19, 0x3f	; 63
    38f0:	39 a3       	std	Y+33, r19	; 0x21
    38f2:	f8 94       	cli
    38f4:	80 91 94 01 	lds	r24, 0x0194
    38f8:	82 60       	ori	r24, 0x02	; 2
    38fa:	80 93 94 01 	sts	0x0194, r24
    38fe:	20 91 0d 01 	lds	r18, 0x010D
    3902:	24 30       	cpi	r18, 0x04	; 4
    3904:	f1 f4       	brne	.+60     	; 0x0x3942
    3906:	9f b7       	in	r25, 0x3f	; 63
    3908:	f8 94       	cli
    390a:	80 91 cf 01 	lds	r24, 0x01CF
    390e:	8f 3f       	cpi	r24, 0xFF	; 255
    3910:	a9 f4       	brne	.+42     	; 0x0x393c
    3912:	80 91 d9 01 	lds	r24, 0x01D9
    3916:	84 30       	cpi	r24, 0x04	; 4
    3918:	11 f0       	breq	.+4      	; 0x0x391e
    391a:	0c 94 61 29 	jmp	0x52c2	; 0x0x52c2
    391e:	0e c0       	rjmp	.+28     	; 0x0x393c
    3920:	84 e0       	ldi	r24, 0x04	; 4
    3922:	80 93 ca 01 	sts	0x01CA, r24
    3926:	80 93 d9 01 	sts	0x01D9, r24
    392a:	08 c0       	rjmp	.+16     	; 0x0x393c
    392c:	e0 91 d9 01 	lds	r30, 0x01D9
    3930:	ff 27       	eor	r31, r31
    3932:	e5 53       	subi	r30, 0x35	; 53
    3934:	fe 4f       	sbci	r31, 0xFE	; 254
    3936:	20 83       	st	Z, r18
    3938:	20 93 d9 01 	sts	0x01D9, r18
    393c:	89 2f       	mov	r24, r25
    393e:	99 27       	eor	r25, r25
    3940:	8f bf       	out	0x3f, r24	; 63
    3942:	80 91 94 01 	lds	r24, 0x0194
    3946:	80 fd       	sbrc	r24, 0
    3948:	50 c0       	rjmp	.+160    	; 0x0x39ea
    394a:	20 90 87 01 	lds	r2, 0x0187
    394e:	30 90 88 01 	lds	r3, 0x0188
    3952:	40 90 89 01 	lds	r4, 0x0189
    3956:	50 90 8a 01 	lds	r5, 0x018A
    395a:	66 24       	eor	r6, r6
    395c:	77 24       	eor	r7, r7
    395e:	88 24       	eor	r8, r8
    3960:	9e e4       	ldi	r25, 0x4E	; 78
    3962:	a9 2e       	mov	r10, r25
    3964:	83 e8       	ldi	r24, 0x83	; 131
    3966:	b8 2e       	mov	r11, r24
    3968:	cc 24       	eor	r12, r12
    396a:	dd 24       	eor	r13, r13
    396c:	ee 24       	eor	r14, r14
    396e:	ff 24       	eor	r15, r15
    3970:	00 e0       	ldi	r16, 0x00	; 0
    3972:	10 e0       	ldi	r17, 0x00	; 0
    3974:	22 2d       	mov	r18, r2
    3976:	33 2d       	mov	r19, r3
    3978:	44 2d       	mov	r20, r4
    397a:	55 2d       	mov	r21, r5
    397c:	66 2d       	mov	r22, r6
    397e:	77 2d       	mov	r23, r7
    3980:	88 2d       	mov	r24, r8
    3982:	90 e0       	ldi	r25, 0x00	; 0
    3984:	0e 94 c1 35 	call	0x6b82	; 0x0x6b82
    3988:	2e ab       	std	Y+54, r18	; 0x36
    398a:	3f ab       	std	Y+55, r19	; 0x37
    398c:	48 af       	std	Y+56, r20	; 0x38
    398e:	59 af       	std	Y+57, r21	; 0x39
    3990:	6a af       	std	Y+58, r22	; 0x3a
    3992:	7b af       	std	Y+59, r23	; 0x3b
    3994:	8c af       	std	Y+60, r24	; 0x3c
    3996:	9d af       	std	Y+61, r25	; 0x3d
    3998:	82 2e       	mov	r8, r18
    399a:	93 2e       	mov	r9, r19
    399c:	a4 2e       	mov	r10, r20
    399e:	b5 2e       	mov	r11, r21
    39a0:	24 01       	movw	r4, r8
    39a2:	35 01       	movw	r6, r10
    39a4:	00 e2       	ldi	r16, 0x20	; 32
    39a6:	0e 94 bf 36 	call	0x6d7e	; 0x0x6d7e
    39aa:	a2 2e       	mov	r10, r18
    39ac:	b3 2e       	mov	r11, r19
    39ae:	c4 2e       	mov	r12, r20
    39b0:	d5 2e       	mov	r13, r21
    39b2:	d3 01       	movw	r26, r6
    39b4:	c2 01       	movw	r24, r4
    39b6:	b6 95       	lsr	r27
    39b8:	a7 95       	ror	r26
    39ba:	97 95       	ror	r25
    39bc:	87 95       	ror	r24
    39be:	8a 0d       	add	r24, r10
    39c0:	9b 1d       	adc	r25, r11
    39c2:	ac 1d       	adc	r26, r12
    39c4:	bd 1d       	adc	r27, r13
    39c6:	b7 ff       	sbrs	r27, 7
    39c8:	04 c0       	rjmp	.+8      	; 0x0x39d2
    39ca:	bf 77       	andi	r27, 0x7F	; 127
    39cc:	01 96       	adiw	r24, 0x01	; 1
    39ce:	a1 1d       	adc	r26, r1
    39d0:	b1 1d       	adc	r27, r1
    39d2:	80 93 87 01 	sts	0x0187, r24
    39d6:	90 93 88 01 	sts	0x0188, r25
    39da:	a0 93 89 01 	sts	0x0189, r26
    39de:	b0 93 8a 01 	sts	0x018A, r27
    39e2:	8f 71       	andi	r24, 0x1F	; 31
    39e4:	90 70       	andi	r25, 0x00	; 0
    39e6:	01 96       	adiw	r24, 0x01	; 1
    39e8:	02 c0       	rjmp	.+4      	; 0x0x39ee
    39ea:	81 e0       	ldi	r24, 0x01	; 1
    39ec:	90 e0       	ldi	r25, 0x00	; 0
    39ee:	90 93 b9 01 	sts	0x01B9, r25
    39f2:	80 93 b8 01 	sts	0x01B8, r24
    39f6:	80 91 35 01 	lds	r24, 0x0135
    39fa:	99 27       	eor	r25, r25
    39fc:	78 2f       	mov	r23, r24
    39fe:	66 27       	eor	r22, r22
    3a00:	80 91 36 01 	lds	r24, 0x0136
    3a04:	99 27       	eor	r25, r25
    3a06:	68 2b       	or	r22, r24
    3a08:	79 2b       	or	r23, r25
    3a0a:	77 fd       	sbrc	r23, 7
    3a0c:	05 c0       	rjmp	.+10     	; 0x0x3a18
    3a0e:	60 91 53 01 	lds	r22, 0x0153
    3a12:	70 91 54 01 	lds	r23, 0x0154
    3a16:	02 c0       	rjmp	.+4      	; 0x0x3a1c
    3a18:	60 95       	com	r22
    3a1a:	70 95       	com	r23
    3a1c:	e5 e3       	ldi	r30, 0x35	; 53
    3a1e:	f1 e0       	ldi	r31, 0x01	; 1
    3a20:	11 82       	std	Z+1, r1	; 0x01
    3a22:	10 92 35 01 	sts	0x0135, r1
    3a26:	61 15       	cp	r22, r1
    3a28:	71 05       	cpc	r23, r1
    3a2a:	29 f4       	brne	.+10     	; 0x0x3a36
    3a2c:	66 e0       	ldi	r22, 0x06	; 6
    3a2e:	70 e0       	ldi	r23, 0x00	; 0
    3a30:	80 e0       	ldi	r24, 0x00	; 0
    3a32:	90 e0       	ldi	r25, 0x00	; 0
    3a34:	10 c0       	rjmp	.+32     	; 0x0x3a56
    3a36:	88 27       	eor	r24, r24
    3a38:	99 27       	eor	r25, r25
    3a3a:	26 e6       	ldi	r18, 0x66	; 102
    3a3c:	32 e0       	ldi	r19, 0x02	; 2
    3a3e:	40 e0       	ldi	r20, 0x00	; 0
    3a40:	50 e0       	ldi	r21, 0x00	; 0
    3a42:	0e 94 cc 37 	call	0x6f98	; 0x0x6f98
    3a46:	67 2f       	mov	r22, r23
    3a48:	78 2f       	mov	r23, r24
    3a4a:	89 2f       	mov	r24, r25
    3a4c:	99 27       	eor	r25, r25
    3a4e:	6a 5e       	subi	r22, 0xEA	; 234
    3a50:	7f 4f       	sbci	r23, 0xFF	; 255
    3a52:	8f 4f       	sbci	r24, 0xFF	; 255
    3a54:	9f 4f       	sbci	r25, 0xFF	; 255
    3a56:	70 93 b0 01 	sts	0x01B0, r23
    3a5a:	60 93 af 01 	sts	0x01AF, r22
    3a5e:	49 a1       	ldd	r20, Y+33	; 0x21
    3a60:	84 2f       	mov	r24, r20
    3a62:	99 27       	eor	r25, r25
    3a64:	8f bf       	out	0x3f, r24	; 63
    3a66:	81 e0       	ldi	r24, 0x01	; 1
    3a68:	80 93 0c 01 	sts	0x010C, r24
    3a6c:	6f b7       	in	r22, 0x3f	; 63
    3a6e:	f8 94       	cli
    3a70:	82 b7       	in	r24, 0x32	; 50
    3a72:	20 91 b4 01 	lds	r18, 0x01B4
    3a76:	30 91 b5 01 	lds	r19, 0x01B5
    3a7a:	40 91 b6 01 	lds	r20, 0x01B6
    3a7e:	50 91 b7 01 	lds	r21, 0x01B7
    3a82:	06 b6       	in	r0, 0x36	; 54
    3a84:	01 fe       	sbrs	r0, 1
    3a86:	0f c0       	rjmp	.+30     	; 0x0x3aa6
    3a88:	81 b7       	in	r24, 0x31	; 49
    3a8a:	92 b7       	in	r25, 0x32	; 50
    3a8c:	28 0f       	add	r18, r24
    3a8e:	31 1d       	adc	r19, r1
    3a90:	41 1d       	adc	r20, r1
    3a92:	51 1d       	adc	r21, r1
    3a94:	2f 5f       	subi	r18, 0xFF	; 255
    3a96:	3f 4f       	sbci	r19, 0xFF	; 255
    3a98:	4f 4f       	sbci	r20, 0xFF	; 255
    3a9a:	5f 4f       	sbci	r21, 0xFF	; 255
    3a9c:	29 0f       	add	r18, r25
    3a9e:	31 1d       	adc	r19, r1
    3aa0:	41 1d       	adc	r20, r1
    3aa2:	51 1d       	adc	r21, r1
    3aa4:	04 c0       	rjmp	.+8      	; 0x0x3aae
    3aa6:	28 0f       	add	r18, r24
    3aa8:	31 1d       	adc	r19, r1
    3aaa:	41 1d       	adc	r20, r1
    3aac:	51 1d       	adc	r21, r1
    3aae:	86 2f       	mov	r24, r22
    3ab0:	99 27       	eor	r25, r25
    3ab2:	8f bf       	out	0x3f, r24	; 63
    3ab4:	20 93 c0 01 	sts	0x01C0, r18
    3ab8:	30 93 c1 01 	sts	0x01C1, r19
    3abc:	40 93 c2 01 	sts	0x01C2, r20
    3ac0:	50 93 c3 01 	sts	0x01C3, r21
    3ac4:	0c 94 55 2a 	jmp	0x54aa	; 0x0x54aa
    3ac8:	8f b7       	in	r24, 0x3f	; 63
    3aca:	f8 94       	cli
    3acc:	18 2f       	mov	r17, r24
    3ace:	80 91 0d 01 	lds	r24, 0x010D
    3ad2:	84 30       	cpi	r24, 0x04	; 4
    3ad4:	09 f4       	brne	.+2      	; 0x0x3ad8
    3ad6:	97 c0       	rjmp	.+302    	; 0x0x3c06
    3ad8:	85 30       	cpi	r24, 0x05	; 5
    3ada:	09 f4       	brne	.+2      	; 0x0x3ade
    3adc:	9e c0       	rjmp	.+316    	; 0x0x3c1a
    3ade:	81 30       	cpi	r24, 0x01	; 1
    3ae0:	09 f0       	breq	.+2      	; 0x0x3ae4
    3ae2:	2e c1       	rjmp	.+604    	; 0x0x3d40
    3ae4:	90 e0       	ldi	r25, 0x00	; 0
    3ae6:	80 91 91 01 	lds	r24, 0x0191
    3aea:	83 30       	cpi	r24, 0x03	; 3
    3aec:	09 f4       	brne	.+2      	; 0x0x3af0
    3aee:	91 e0       	ldi	r25, 0x01	; 1
    3af0:	99 23       	and	r25, r25
    3af2:	09 f0       	breq	.+2      	; 0x0x3af6
    3af4:	30 c1       	rjmp	.+608    	; 0x0x3d56
    3af6:	80 91 04 01 	lds	r24, 0x0104
    3afa:	84 30       	cpi	r24, 0x04	; 4
    3afc:	11 f4       	brne	.+4      	; 0x0x3b02
    3afe:	0c 94 69 29 	jmp	0x52d2	; 0x0x52d2
    3b02:	85 e0       	ldi	r24, 0x05	; 5
    3b04:	80 93 04 01 	sts	0x0104, r24
    3b08:	70 93 52 01 	sts	0x0152, r23
    3b0c:	19 c1       	rjmp	.+562    	; 0x0x3d40
    3b0e:	92 e0       	ldi	r25, 0x02	; 2
    3b10:	90 93 0f 01 	sts	0x010F, r25
    3b14:	10 92 8e 01 	sts	0x018E, r1
    3b18:	37 9a       	sbi	0x06, 7	; 6
    3b1a:	80 91 07 01 	lds	r24, 0x0107
    3b1e:	81 30       	cpi	r24, 0x01	; 1
    3b20:	29 f4       	brne	.+10     	; 0x0x3b2c
    3b22:	10 92 07 01 	sts	0x0107, r1
    3b26:	83 e0       	ldi	r24, 0x03	; 3
    3b28:	80 93 0f 01 	sts	0x010F, r24
    3b2c:	80 91 07 01 	lds	r24, 0x0107
    3b30:	88 23       	and	r24, r24
    3b32:	11 f4       	brne	.+4      	; 0x0x3b38
    3b34:	0c 94 73 29 	jmp	0x52e6	; 0x0x52e6
    3b38:	70 93 0f 01 	sts	0x010F, r23
    3b3c:	10 92 8e 01 	sts	0x018E, r1
    3b40:	37 9a       	sbi	0x06, 7	; 6
    3b42:	81 30       	cpi	r24, 0x01	; 1
    3b44:	09 f0       	breq	.+2      	; 0x0x3b48
    3b46:	fc c0       	rjmp	.+504    	; 0x0x3d40
    3b48:	2f c0       	rjmp	.+94     	; 0x0x3ba8
    3b4a:	80 91 57 01 	lds	r24, 0x0157
    3b4e:	80 ff       	sbrs	r24, 0
    3b50:	56 c0       	rjmp	.+172    	; 0x0x3bfe
    3b52:	f6 c0       	rjmp	.+492    	; 0x0x3d40
    3b54:	83 3c       	cpi	r24, 0xC3	; 195
    3b56:	91 05       	cpc	r25, r1
    3b58:	18 f0       	brcs	.+6      	; 0x0x3b60
    3b5a:	86 e0       	ldi	r24, 0x06	; 6
    3b5c:	90 e0       	ldi	r25, 0x00	; 0
    3b5e:	19 c0       	rjmp	.+50     	; 0x0x3b92
    3b60:	81 36       	cpi	r24, 0x61	; 97
    3b62:	91 05       	cpc	r25, r1
    3b64:	18 f0       	brcs	.+6      	; 0x0x3b6c
    3b66:	85 e0       	ldi	r24, 0x05	; 5
    3b68:	90 e0       	ldi	r25, 0x00	; 0
    3b6a:	13 c0       	rjmp	.+38     	; 0x0x3b92
    3b6c:	80 33       	cpi	r24, 0x30	; 48
    3b6e:	91 05       	cpc	r25, r1
    3b70:	18 f0       	brcs	.+6      	; 0x0x3b78
    3b72:	84 e0       	ldi	r24, 0x04	; 4
    3b74:	90 e0       	ldi	r25, 0x00	; 0
    3b76:	0d c0       	rjmp	.+26     	; 0x0x3b92
    3b78:	88 31       	cpi	r24, 0x18	; 24
    3b7a:	91 05       	cpc	r25, r1
    3b7c:	18 f0       	brcs	.+6      	; 0x0x3b84
    3b7e:	83 e0       	ldi	r24, 0x03	; 3
    3b80:	90 e0       	ldi	r25, 0x00	; 0
    3b82:	07 c0       	rjmp	.+14     	; 0x0x3b92
    3b84:	0c 97       	sbiw	r24, 0x0c	; 12
    3b86:	18 f0       	brcs	.+6      	; 0x0x3b8e
    3b88:	82 e0       	ldi	r24, 0x02	; 2
    3b8a:	90 e0       	ldi	r25, 0x00	; 0
    3b8c:	02 c0       	rjmp	.+4      	; 0x0x3b92
    3b8e:	80 e0       	ldi	r24, 0x00	; 0
    3b90:	90 e0       	ldi	r25, 0x00	; 0
    3b92:	87 70       	andi	r24, 0x07	; 7
    3b94:	59 a5       	ldd	r21, Y+41	; 0x29
    3b96:	58 7d       	andi	r21, 0xD8	; 216
    3b98:	85 2b       	or	r24, r21
    3b9a:	88 6d       	ori	r24, 0xD8	; 216
    3b9c:	89 a7       	std	Y+41, r24	; 0x29
    3b9e:	99 27       	eor	r25, r25
    3ba0:	86 b9       	out	0x06, r24	; 6
    3ba2:	83 2f       	mov	r24, r19
    3ba4:	99 27       	eor	r25, r25
    3ba6:	20 c0       	rjmp	.+64     	; 0x0x3be8
    3ba8:	80 91 0f 01 	lds	r24, 0x010F
    3bac:	81 30       	cpi	r24, 0x01	; 1
    3bae:	f1 f4       	brne	.+60     	; 0x0x3bec
    3bb0:	9f b7       	in	r25, 0x3f	; 63
    3bb2:	f8 94       	cli
    3bb4:	80 91 d3 01 	lds	r24, 0x01D3
    3bb8:	8f 3f       	cpi	r24, 0xFF	; 255
    3bba:	a1 f4       	brne	.+40     	; 0x0x3be4
    3bbc:	80 91 d9 01 	lds	r24, 0x01D9
    3bc0:	88 30       	cpi	r24, 0x08	; 8
    3bc2:	11 f0       	breq	.+4      	; 0x0x3bc8
    3bc4:	0c 94 a2 29 	jmp	0x5344	; 0x0x5344
    3bc8:	0d c0       	rjmp	.+26     	; 0x0x3be4
    3bca:	88 e0       	ldi	r24, 0x08	; 8
    3bcc:	80 93 ca 01 	sts	0x01CA, r24
    3bd0:	07 c0       	rjmp	.+14     	; 0x0x3be0
    3bd2:	e0 91 d9 01 	lds	r30, 0x01D9
    3bd6:	ff 27       	eor	r31, r31
    3bd8:	e5 53       	subi	r30, 0x35	; 53
    3bda:	fe 4f       	sbci	r31, 0xFE	; 254
    3bdc:	88 e0       	ldi	r24, 0x08	; 8
    3bde:	80 83       	st	Z, r24
    3be0:	80 93 d9 01 	sts	0x01D9, r24
    3be4:	89 2f       	mov	r24, r25
    3be6:	99 27       	eor	r25, r25
    3be8:	8f bf       	out	0x3f, r24	; 63
    3bea:	aa c0       	rjmp	.+340    	; 0x0x3d40
    3bec:	82 30       	cpi	r24, 0x02	; 2
    3bee:	09 f0       	breq	.+2      	; 0x0x3bf2
    3bf0:	a7 c0       	rjmp	.+334    	; 0x0x3d40
    3bf2:	10 92 07 01 	sts	0x0107, r1
    3bf6:	83 e0       	ldi	r24, 0x03	; 3
    3bf8:	80 93 0f 01 	sts	0x010F, r24
    3bfc:	a1 c0       	rjmp	.+322    	; 0x0x3d40
    3bfe:	81 60       	ori	r24, 0x01	; 1
    3c00:	80 93 57 01 	sts	0x0157, r24
    3c04:	9d c0       	rjmp	.+314    	; 0x0x3d40
    3c06:	85 e0       	ldi	r24, 0x05	; 5
    3c08:	80 93 0d 01 	sts	0x010D, r24
    3c0c:	10 92 d8 01 	sts	0x01D8, r1
    3c10:	69 e3       	ldi	r22, 0x39	; 57
    3c12:	80 e0       	ldi	r24, 0x00	; 0
    3c14:	0e 94 bd 01 	call	0x37a	; 0x0x37a
    3c18:	93 c0       	rjmp	.+294    	; 0x0x3d40
    3c1a:	0e 94 80 05 	call	0xb00	; 0x0xb00
    3c1e:	80 91 04 01 	lds	r24, 0x0104
    3c22:	84 30       	cpi	r24, 0x04	; 4
    3c24:	09 f0       	breq	.+2      	; 0x0x3c28
    3c26:	82 c0       	rjmp	.+260    	; 0x0x3d2c
    3c28:	93 e0       	ldi	r25, 0x03	; 3
    3c2a:	90 93 04 01 	sts	0x0104, r25
    3c2e:	80 91 0f 01 	lds	r24, 0x010F
    3c32:	88 23       	and	r24, r24
    3c34:	f1 f4       	brne	.+60     	; 0x0x3c72
    3c36:	22 e0       	ldi	r18, 0x02	; 2
    3c38:	20 93 0f 01 	sts	0x010F, r18
    3c3c:	10 92 8e 01 	sts	0x018E, r1
    3c40:	37 9a       	sbi	0x06, 7	; 6
    3c42:	80 91 07 01 	lds	r24, 0x0107
    3c46:	81 30       	cpi	r24, 0x01	; 1
    3c48:	21 f4       	brne	.+8      	; 0x0x3c52
    3c4a:	10 92 07 01 	sts	0x0107, r1
    3c4e:	90 93 0f 01 	sts	0x010F, r25
    3c52:	90 91 07 01 	lds	r25, 0x0107
    3c56:	99 23       	and	r25, r25
    3c58:	11 f4       	brne	.+4      	; 0x0x3c5e
    3c5a:	0c 94 aa 29 	jmp	0x5354	; 0x0x5354
    3c5e:	81 e0       	ldi	r24, 0x01	; 1
    3c60:	80 93 0f 01 	sts	0x010F, r24
    3c64:	10 92 8e 01 	sts	0x018E, r1
    3c68:	37 9a       	sbi	0x06, 7	; 6
    3c6a:	91 30       	cpi	r25, 0x01	; 1
    3c6c:	09 f0       	breq	.+2      	; 0x0x3c70
    3c6e:	61 c0       	rjmp	.+194    	; 0x0x3d32
    3c70:	2f c0       	rjmp	.+94     	; 0x0x3cd0
    3c72:	80 91 57 01 	lds	r24, 0x0157
    3c76:	80 ff       	sbrs	r24, 0
    3c78:	55 c0       	rjmp	.+170    	; 0x0x3d24
    3c7a:	5b c0       	rjmp	.+182    	; 0x0x3d32
    3c7c:	83 3c       	cpi	r24, 0xC3	; 195
    3c7e:	91 05       	cpc	r25, r1
    3c80:	18 f0       	brcs	.+6      	; 0x0x3c88
    3c82:	86 e0       	ldi	r24, 0x06	; 6
    3c84:	90 e0       	ldi	r25, 0x00	; 0
    3c86:	19 c0       	rjmp	.+50     	; 0x0x3cba
    3c88:	81 36       	cpi	r24, 0x61	; 97
    3c8a:	91 05       	cpc	r25, r1
    3c8c:	18 f0       	brcs	.+6      	; 0x0x3c94
    3c8e:	85 e0       	ldi	r24, 0x05	; 5
    3c90:	90 e0       	ldi	r25, 0x00	; 0
    3c92:	13 c0       	rjmp	.+38     	; 0x0x3cba
    3c94:	80 33       	cpi	r24, 0x30	; 48
    3c96:	91 05       	cpc	r25, r1
    3c98:	18 f0       	brcs	.+6      	; 0x0x3ca0
    3c9a:	84 e0       	ldi	r24, 0x04	; 4
    3c9c:	90 e0       	ldi	r25, 0x00	; 0
    3c9e:	0d c0       	rjmp	.+26     	; 0x0x3cba
    3ca0:	88 31       	cpi	r24, 0x18	; 24
    3ca2:	91 05       	cpc	r25, r1
    3ca4:	18 f0       	brcs	.+6      	; 0x0x3cac
    3ca6:	83 e0       	ldi	r24, 0x03	; 3
    3ca8:	90 e0       	ldi	r25, 0x00	; 0
    3caa:	07 c0       	rjmp	.+14     	; 0x0x3cba
    3cac:	0c 97       	sbiw	r24, 0x0c	; 12
    3cae:	18 f0       	brcs	.+6      	; 0x0x3cb6
    3cb0:	82 e0       	ldi	r24, 0x02	; 2
    3cb2:	90 e0       	ldi	r25, 0x00	; 0
    3cb4:	02 c0       	rjmp	.+4      	; 0x0x3cba
    3cb6:	80 e0       	ldi	r24, 0x00	; 0
    3cb8:	90 e0       	ldi	r25, 0x00	; 0
    3cba:	87 70       	andi	r24, 0x07	; 7
    3cbc:	9b a5       	ldd	r25, Y+43	; 0x2b
    3cbe:	98 7d       	andi	r25, 0xD8	; 216
    3cc0:	89 2b       	or	r24, r25
    3cc2:	88 6d       	ori	r24, 0xD8	; 216
    3cc4:	8b a7       	std	Y+43, r24	; 0x2b
    3cc6:	99 27       	eor	r25, r25
    3cc8:	86 b9       	out	0x06, r24	; 6
    3cca:	83 2f       	mov	r24, r19
    3ccc:	99 27       	eor	r25, r25
    3cce:	20 c0       	rjmp	.+64     	; 0x0x3d10
    3cd0:	80 91 0f 01 	lds	r24, 0x010F
    3cd4:	81 30       	cpi	r24, 0x01	; 1
    3cd6:	f1 f4       	brne	.+60     	; 0x0x3d14
    3cd8:	9f b7       	in	r25, 0x3f	; 63
    3cda:	f8 94       	cli
    3cdc:	80 91 d3 01 	lds	r24, 0x01D3
    3ce0:	8f 3f       	cpi	r24, 0xFF	; 255
    3ce2:	a1 f4       	brne	.+40     	; 0x0x3d0c
    3ce4:	80 91 d9 01 	lds	r24, 0x01D9
    3ce8:	88 30       	cpi	r24, 0x08	; 8
    3cea:	11 f0       	breq	.+4      	; 0x0x3cf0
    3cec:	0c 94 d9 29 	jmp	0x53b2	; 0x0x53b2
    3cf0:	0d c0       	rjmp	.+26     	; 0x0x3d0c
    3cf2:	88 e0       	ldi	r24, 0x08	; 8
    3cf4:	80 93 ca 01 	sts	0x01CA, r24
    3cf8:	07 c0       	rjmp	.+14     	; 0x0x3d08
    3cfa:	e0 91 d9 01 	lds	r30, 0x01D9
    3cfe:	ff 27       	eor	r31, r31
    3d00:	e5 53       	subi	r30, 0x35	; 53
    3d02:	fe 4f       	sbci	r31, 0xFE	; 254
    3d04:	88 e0       	ldi	r24, 0x08	; 8
    3d06:	80 83       	st	Z, r24
    3d08:	80 93 d9 01 	sts	0x01D9, r24
    3d0c:	89 2f       	mov	r24, r25
    3d0e:	99 27       	eor	r25, r25
    3d10:	8f bf       	out	0x3f, r24	; 63
    3d12:	0f c0       	rjmp	.+30     	; 0x0x3d32
    3d14:	82 30       	cpi	r24, 0x02	; 2
    3d16:	69 f4       	brne	.+26     	; 0x0x3d32
    3d18:	10 92 07 01 	sts	0x0107, r1
    3d1c:	83 e0       	ldi	r24, 0x03	; 3
    3d1e:	80 93 0f 01 	sts	0x010F, r24
    3d22:	07 c0       	rjmp	.+14     	; 0x0x3d32
    3d24:	81 60       	ori	r24, 0x01	; 1
    3d26:	80 93 57 01 	sts	0x0157, r24
    3d2a:	03 c0       	rjmp	.+6      	; 0x0x3d32
    3d2c:	83 e0       	ldi	r24, 0x03	; 3
    3d2e:	80 93 52 01 	sts	0x0152, r24
    3d32:	80 e5       	ldi	r24, 0x50	; 80
    3d34:	90 e0       	ldi	r25, 0x00	; 0
    3d36:	01 97       	sbiw	r24, 0x01	; 1
    3d38:	01 96       	adiw	r24, 0x01	; 1
    3d3a:	01 97       	sbiw	r24, 0x01	; 1
    3d3c:	e1 f7       	brne	.-8      	; 0x0x3d36
    3d3e:	3c c1       	rjmp	.+632    	; 0x0x3fb8
    3d40:	80 91 0d 01 	lds	r24, 0x010D
    3d44:	84 30       	cpi	r24, 0x04	; 4
    3d46:	09 f4       	brne	.+2      	; 0x0x3d4a
    3d48:	dd c0       	rjmp	.+442    	; 0x0x3f04
    3d4a:	85 30       	cpi	r24, 0x05	; 5
    3d4c:	09 f4       	brne	.+2      	; 0x0x3d50
    3d4e:	a9 c0       	rjmp	.+338    	; 0x0x3ea2
    3d50:	81 30       	cpi	r24, 0x01	; 1
    3d52:	09 f0       	breq	.+2      	; 0x0x3d56
    3d54:	31 c1       	rjmp	.+610    	; 0x0x3fb8
    3d56:	80 91 4d 01 	lds	r24, 0x014D
    3d5a:	81 fd       	sbrc	r24, 1
    3d5c:	2d c1       	rjmp	.+602    	; 0x0x3fb8
    3d5e:	90 e0       	ldi	r25, 0x00	; 0
    3d60:	80 91 8d 01 	lds	r24, 0x018D
    3d64:	8f 31       	cpi	r24, 0x1F	; 31
    3d66:	08 f0       	brcs	.+2      	; 0x0x3d6a
    3d68:	91 e0       	ldi	r25, 0x01	; 1
    3d6a:	99 23       	and	r25, r25
    3d6c:	09 f4       	brne	.+2      	; 0x0x3d70
    3d6e:	68 c0       	rjmp	.+208    	; 0x0x3e40
    3d70:	80 91 53 01 	lds	r24, 0x0153
    3d74:	90 91 54 01 	lds	r25, 0x0154
    3d78:	89 2b       	or	r24, r25
    3d7a:	89 f5       	brne	.+98     	; 0x0x3dde
    3d7c:	6f b7       	in	r22, 0x3f	; 63
    3d7e:	f8 94       	cli
    3d80:	82 b7       	in	r24, 0x32	; 50
    3d82:	20 91 b4 01 	lds	r18, 0x01B4
    3d86:	30 91 b5 01 	lds	r19, 0x01B5
    3d8a:	40 91 b6 01 	lds	r20, 0x01B6
    3d8e:	50 91 b7 01 	lds	r21, 0x01B7
    3d92:	06 b6       	in	r0, 0x36	; 54
    3d94:	01 fe       	sbrs	r0, 1
    3d96:	0f c0       	rjmp	.+30     	; 0x0x3db6
    3d98:	81 b7       	in	r24, 0x31	; 49
    3d9a:	92 b7       	in	r25, 0x32	; 50
    3d9c:	28 0f       	add	r18, r24
    3d9e:	31 1d       	adc	r19, r1
    3da0:	41 1d       	adc	r20, r1
    3da2:	51 1d       	adc	r21, r1
    3da4:	2f 5f       	subi	r18, 0xFF	; 255
    3da6:	3f 4f       	sbci	r19, 0xFF	; 255
    3da8:	4f 4f       	sbci	r20, 0xFF	; 255
    3daa:	5f 4f       	sbci	r21, 0xFF	; 255
    3dac:	29 0f       	add	r18, r25
    3dae:	31 1d       	adc	r19, r1
    3db0:	41 1d       	adc	r20, r1
    3db2:	51 1d       	adc	r21, r1
    3db4:	04 c0       	rjmp	.+8      	; 0x0x3dbe
    3db6:	28 0f       	add	r18, r24
    3db8:	31 1d       	adc	r19, r1
    3dba:	41 1d       	adc	r20, r1
    3dbc:	51 1d       	adc	r21, r1
    3dbe:	86 2f       	mov	r24, r22
    3dc0:	99 27       	eor	r25, r25
    3dc2:	8f bf       	out	0x3f, r24	; 63
    3dc4:	20 93 45 01 	sts	0x0145, r18
    3dc8:	30 93 46 01 	sts	0x0146, r19
    3dcc:	40 93 47 01 	sts	0x0147, r20
    3dd0:	50 93 48 01 	sts	0x0148, r21
    3dd4:	80 e0       	ldi	r24, 0x00	; 0
    3dd6:	9a e0       	ldi	r25, 0x0A	; 10
    3dd8:	a0 e0       	ldi	r26, 0x00	; 0
    3dda:	b0 e0       	ldi	r27, 0x00	; 0
    3ddc:	c6 c0       	rjmp	.+396    	; 0x0x3f6a
    3dde:	6f b7       	in	r22, 0x3f	; 63
    3de0:	f8 94       	cli
    3de2:	82 b7       	in	r24, 0x32	; 50
    3de4:	20 91 b4 01 	lds	r18, 0x01B4
    3de8:	30 91 b5 01 	lds	r19, 0x01B5
    3dec:	40 91 b6 01 	lds	r20, 0x01B6
    3df0:	50 91 b7 01 	lds	r21, 0x01B7
    3df4:	06 b6       	in	r0, 0x36	; 54
    3df6:	01 fe       	sbrs	r0, 1
    3df8:	0f c0       	rjmp	.+30     	; 0x0x3e18
    3dfa:	81 b7       	in	r24, 0x31	; 49
    3dfc:	92 b7       	in	r25, 0x32	; 50
    3dfe:	28 0f       	add	r18, r24
    3e00:	31 1d       	adc	r19, r1
    3e02:	41 1d       	adc	r20, r1
    3e04:	51 1d       	adc	r21, r1
    3e06:	2f 5f       	subi	r18, 0xFF	; 255
    3e08:	3f 4f       	sbci	r19, 0xFF	; 255
    3e0a:	4f 4f       	sbci	r20, 0xFF	; 255
    3e0c:	5f 4f       	sbci	r21, 0xFF	; 255
    3e0e:	29 0f       	add	r18, r25
    3e10:	31 1d       	adc	r19, r1
    3e12:	41 1d       	adc	r20, r1
    3e14:	51 1d       	adc	r21, r1
    3e16:	04 c0       	rjmp	.+8      	; 0x0x3e20
    3e18:	28 0f       	add	r18, r24
    3e1a:	31 1d       	adc	r19, r1
    3e1c:	41 1d       	adc	r20, r1
    3e1e:	51 1d       	adc	r21, r1
    3e20:	86 2f       	mov	r24, r22
    3e22:	99 27       	eor	r25, r25
    3e24:	8f bf       	out	0x3f, r24	; 63
    3e26:	20 93 45 01 	sts	0x0145, r18
    3e2a:	30 93 46 01 	sts	0x0146, r19
    3e2e:	40 93 47 01 	sts	0x0147, r20
    3e32:	50 93 48 01 	sts	0x0148, r21
    3e36:	8e e1       	ldi	r24, 0x1E	; 30
    3e38:	90 e0       	ldi	r25, 0x00	; 0
    3e3a:	a0 e0       	ldi	r26, 0x00	; 0
    3e3c:	b0 e0       	ldi	r27, 0x00	; 0
    3e3e:	95 c0       	rjmp	.+298    	; 0x0x3f6a
    3e40:	6f b7       	in	r22, 0x3f	; 63
    3e42:	f8 94       	cli
    3e44:	82 b7       	in	r24, 0x32	; 50
    3e46:	20 91 b4 01 	lds	r18, 0x01B4
    3e4a:	30 91 b5 01 	lds	r19, 0x01B5
    3e4e:	40 91 b6 01 	lds	r20, 0x01B6
    3e52:	50 91 b7 01 	lds	r21, 0x01B7
    3e56:	06 b6       	in	r0, 0x36	; 54
    3e58:	01 fe       	sbrs	r0, 1
    3e5a:	0f c0       	rjmp	.+30     	; 0x0x3e7a
    3e5c:	81 b7       	in	r24, 0x31	; 49
    3e5e:	92 b7       	in	r25, 0x32	; 50
    3e60:	28 0f       	add	r18, r24
    3e62:	31 1d       	adc	r19, r1
    3e64:	41 1d       	adc	r20, r1
    3e66:	51 1d       	adc	r21, r1
    3e68:	2f 5f       	subi	r18, 0xFF	; 255
    3e6a:	3f 4f       	sbci	r19, 0xFF	; 255
    3e6c:	4f 4f       	sbci	r20, 0xFF	; 255
    3e6e:	5f 4f       	sbci	r21, 0xFF	; 255
    3e70:	29 0f       	add	r18, r25
    3e72:	31 1d       	adc	r19, r1
    3e74:	41 1d       	adc	r20, r1
    3e76:	51 1d       	adc	r21, r1
    3e78:	04 c0       	rjmp	.+8      	; 0x0x3e82
    3e7a:	28 0f       	add	r18, r24
    3e7c:	31 1d       	adc	r19, r1
    3e7e:	41 1d       	adc	r20, r1
    3e80:	51 1d       	adc	r21, r1
    3e82:	86 2f       	mov	r24, r22
    3e84:	99 27       	eor	r25, r25
    3e86:	8f bf       	out	0x3f, r24	; 63
    3e88:	20 93 45 01 	sts	0x0145, r18
    3e8c:	30 93 46 01 	sts	0x0146, r19
    3e90:	40 93 47 01 	sts	0x0147, r20
    3e94:	50 93 48 01 	sts	0x0148, r21
    3e98:	80 e0       	ldi	r24, 0x00	; 0
    3e9a:	98 e0       	ldi	r25, 0x08	; 8
    3e9c:	a0 e0       	ldi	r26, 0x00	; 0
    3e9e:	b0 e0       	ldi	r27, 0x00	; 0
    3ea0:	64 c0       	rjmp	.+200    	; 0x0x3f6a
    3ea2:	6f b7       	in	r22, 0x3f	; 63
    3ea4:	f8 94       	cli
    3ea6:	82 b7       	in	r24, 0x32	; 50
    3ea8:	20 91 b4 01 	lds	r18, 0x01B4
    3eac:	30 91 b5 01 	lds	r19, 0x01B5
    3eb0:	40 91 b6 01 	lds	r20, 0x01B6
    3eb4:	50 91 b7 01 	lds	r21, 0x01B7
    3eb8:	06 b6       	in	r0, 0x36	; 54
    3eba:	01 fe       	sbrs	r0, 1
    3ebc:	0f c0       	rjmp	.+30     	; 0x0x3edc
    3ebe:	81 b7       	in	r24, 0x31	; 49
    3ec0:	92 b7       	in	r25, 0x32	; 50
    3ec2:	28 0f       	add	r18, r24
    3ec4:	31 1d       	adc	r19, r1
    3ec6:	41 1d       	adc	r20, r1
    3ec8:	51 1d       	adc	r21, r1
    3eca:	2f 5f       	subi	r18, 0xFF	; 255
    3ecc:	3f 4f       	sbci	r19, 0xFF	; 255
    3ece:	4f 4f       	sbci	r20, 0xFF	; 255
    3ed0:	5f 4f       	sbci	r21, 0xFF	; 255
    3ed2:	29 0f       	add	r18, r25
    3ed4:	31 1d       	adc	r19, r1
    3ed6:	41 1d       	adc	r20, r1
    3ed8:	51 1d       	adc	r21, r1
    3eda:	04 c0       	rjmp	.+8      	; 0x0x3ee4
    3edc:	28 0f       	add	r18, r24
    3ede:	31 1d       	adc	r19, r1
    3ee0:	41 1d       	adc	r20, r1
    3ee2:	51 1d       	adc	r21, r1
    3ee4:	86 2f       	mov	r24, r22
    3ee6:	99 27       	eor	r25, r25
    3ee8:	8f bf       	out	0x3f, r24	; 63
    3eea:	20 93 45 01 	sts	0x0145, r18
    3eee:	30 93 46 01 	sts	0x0146, r19
    3ef2:	40 93 47 01 	sts	0x0147, r20
    3ef6:	50 93 48 01 	sts	0x0148, r21
    3efa:	81 e0       	ldi	r24, 0x01	; 1
    3efc:	90 e0       	ldi	r25, 0x00	; 0
    3efe:	a0 e0       	ldi	r26, 0x00	; 0
    3f00:	b0 e0       	ldi	r27, 0x00	; 0
    3f02:	33 c0       	rjmp	.+102    	; 0x0x3f6a
    3f04:	60 91 53 01 	lds	r22, 0x0153
    3f08:	70 91 54 01 	lds	r23, 0x0154
    3f0c:	ef b7       	in	r30, 0x3f	; 63
    3f0e:	f8 94       	cli
    3f10:	82 b7       	in	r24, 0x32	; 50
    3f12:	20 91 b4 01 	lds	r18, 0x01B4
    3f16:	30 91 b5 01 	lds	r19, 0x01B5
    3f1a:	40 91 b6 01 	lds	r20, 0x01B6
    3f1e:	50 91 b7 01 	lds	r21, 0x01B7
    3f22:	06 b6       	in	r0, 0x36	; 54
    3f24:	01 fe       	sbrs	r0, 1
    3f26:	0f c0       	rjmp	.+30     	; 0x0x3f46
    3f28:	81 b7       	in	r24, 0x31	; 49
    3f2a:	92 b7       	in	r25, 0x32	; 50
    3f2c:	28 0f       	add	r18, r24
    3f2e:	31 1d       	adc	r19, r1
    3f30:	41 1d       	adc	r20, r1
    3f32:	51 1d       	adc	r21, r1
    3f34:	2f 5f       	subi	r18, 0xFF	; 255
    3f36:	3f 4f       	sbci	r19, 0xFF	; 255
    3f38:	4f 4f       	sbci	r20, 0xFF	; 255
    3f3a:	5f 4f       	sbci	r21, 0xFF	; 255
    3f3c:	29 0f       	add	r18, r25
    3f3e:	31 1d       	adc	r19, r1
    3f40:	41 1d       	adc	r20, r1
    3f42:	51 1d       	adc	r21, r1
    3f44:	04 c0       	rjmp	.+8      	; 0x0x3f4e
    3f46:	28 0f       	add	r18, r24
    3f48:	31 1d       	adc	r19, r1
    3f4a:	41 1d       	adc	r20, r1
    3f4c:	51 1d       	adc	r21, r1
    3f4e:	8e 2f       	mov	r24, r30
    3f50:	99 27       	eor	r25, r25
    3f52:	8f bf       	out	0x3f, r24	; 63
    3f54:	20 93 45 01 	sts	0x0145, r18
    3f58:	30 93 46 01 	sts	0x0146, r19
    3f5c:	40 93 47 01 	sts	0x0147, r20
    3f60:	50 93 48 01 	sts	0x0148, r21
    3f64:	cb 01       	movw	r24, r22
    3f66:	aa 27       	eor	r26, r26
    3f68:	bb 27       	eor	r27, r27
    3f6a:	e5 e4       	ldi	r30, 0x45	; 69
    3f6c:	f1 e0       	ldi	r31, 0x01	; 1
    3f6e:	84 83       	std	Z+4, r24	; 0x04
    3f70:	95 83       	std	Z+5, r25	; 0x05
    3f72:	a6 83       	std	Z+6, r26	; 0x06
    3f74:	b7 83       	std	Z+7, r27	; 0x07
    3f76:	80 91 4d 01 	lds	r24, 0x014D
    3f7a:	83 60       	ori	r24, 0x03	; 3
    3f7c:	80 87       	std	Z+8, r24	; 0x08
    3f7e:	9f b7       	in	r25, 0x3f	; 63
    3f80:	f8 94       	cli
    3f82:	80 91 cc 01 	lds	r24, 0x01CC
    3f86:	8f 3f       	cpi	r24, 0xFF	; 255
    3f88:	a1 f4       	brne	.+40     	; 0x0x3fb2
    3f8a:	80 91 d9 01 	lds	r24, 0x01D9
    3f8e:	81 30       	cpi	r24, 0x01	; 1
    3f90:	11 f0       	breq	.+4      	; 0x0x3f96
    3f92:	0c 94 e1 29 	jmp	0x53c2	; 0x0x53c2
    3f96:	0d c0       	rjmp	.+26     	; 0x0x3fb2
    3f98:	81 e0       	ldi	r24, 0x01	; 1
    3f9a:	80 93 ca 01 	sts	0x01CA, r24
    3f9e:	07 c0       	rjmp	.+14     	; 0x0x3fae
    3fa0:	e0 91 d9 01 	lds	r30, 0x01D9
    3fa4:	ff 27       	eor	r31, r31
    3fa6:	e5 53       	subi	r30, 0x35	; 53
    3fa8:	fe 4f       	sbci	r31, 0xFE	; 254
    3faa:	81 e0       	ldi	r24, 0x01	; 1
    3fac:	80 83       	st	Z, r24
    3fae:	80 93 d9 01 	sts	0x01D9, r24
    3fb2:	89 2f       	mov	r24, r25
    3fb4:	99 27       	eor	r25, r25
    3fb6:	8f bf       	out	0x3f, r24	; 63
    3fb8:	1f bf       	out	0x3f, r17	; 63
    3fba:	68 c2       	rjmp	.+1232   	; 0x0x448c
    3fbc:	7f 5f       	subi	r23, 0xFF	; 255
    3fbe:	72 30       	cpi	r23, 0x02	; 2
    3fc0:	08 f4       	brcc	.+2      	; 0x0x3fc4
    3fc2:	f4 cb       	rjmp	.-2072   	; 0x0x37ac
    3fc4:	63 c2       	rjmp	.+1222   	; 0x0x448c
    3fc6:	e0 92 c4 01 	sts	0x01C4, r14
    3fca:	f0 92 c5 01 	sts	0x01C5, r15
    3fce:	00 93 c6 01 	sts	0x01C6, r16
    3fd2:	10 93 c7 01 	sts	0x01C7, r17
    3fd6:	21 e0       	ldi	r18, 0x01	; 1
    3fd8:	20 93 4e 01 	sts	0x014E, r18
    3fdc:	8f b7       	in	r24, 0x3f	; 63
    3fde:	f8 94       	cli
    3fe0:	99 27       	eor	r25, r25
    3fe2:	20 93 bb 01 	sts	0x01BB, r18
    3fe6:	2d 8d       	ldd	r18, Y+29	; 0x1d
    3fe8:	3e 8d       	ldd	r19, Y+30	; 0x1e
    3fea:	4f 8d       	ldd	r20, Y+31	; 0x1f
    3fec:	58 a1       	ldd	r21, Y+32	; 0x20
    3fee:	20 93 99 01 	sts	0x0199, r18
    3ff2:	30 93 9a 01 	sts	0x019A, r19
    3ff6:	40 93 9b 01 	sts	0x019B, r20
    3ffa:	50 93 9c 01 	sts	0x019C, r21
    3ffe:	e0 92 bc 01 	sts	0x01BC, r14
    4002:	f0 92 bd 01 	sts	0x01BD, r15
    4006:	00 93 be 01 	sts	0x01BE, r16
    400a:	10 93 bf 01 	sts	0x01BF, r17
    400e:	8f bf       	out	0x3f, r24	; 63
    4010:	8f b7       	in	r24, 0x3f	; 63
    4012:	f8 94       	cli
    4014:	28 2f       	mov	r18, r24
    4016:	33 27       	eor	r19, r19
    4018:	e2 2f       	mov	r30, r18
    401a:	91 b7       	in	r25, 0x31	; 49
    401c:	82 b7       	in	r24, 0x32	; 50
    401e:	46 b7       	in	r20, 0x36	; 54
    4020:	98 17       	cp	r25, r24
    4022:	11 f0       	breq	.+4      	; 0x0x4028
    4024:	41 ff       	sbrs	r20, 1
    4026:	03 c0       	rjmp	.+6      	; 0x0x402e
    4028:	2f bf       	out	0x3f, r18	; 63
    402a:	0c 94 a5 18 	jmp	0x314a	; 0x0x314a
    402e:	80 91 bb 01 	lds	r24, 0x01BB
    4032:	88 23       	and	r24, r24
    4034:	09 f4       	brne	.+2      	; 0x0x4038
    4036:	60 c0       	rjmp	.+192    	; 0x0x40f8
    4038:	6f b7       	in	r22, 0x3f	; 63
    403a:	f8 94       	cli
    403c:	82 b7       	in	r24, 0x32	; 50
    403e:	20 91 b4 01 	lds	r18, 0x01B4
    4042:	30 91 b5 01 	lds	r19, 0x01B5
    4046:	40 91 b6 01 	lds	r20, 0x01B6
    404a:	50 91 b7 01 	lds	r21, 0x01B7
    404e:	06 b6       	in	r0, 0x36	; 54
    4050:	01 fe       	sbrs	r0, 1
    4052:	0f c0       	rjmp	.+30     	; 0x0x4072
    4054:	81 b7       	in	r24, 0x31	; 49
    4056:	92 b7       	in	r25, 0x32	; 50
    4058:	28 0f       	add	r18, r24
    405a:	31 1d       	adc	r19, r1
    405c:	41 1d       	adc	r20, r1
    405e:	51 1d       	adc	r21, r1
    4060:	2f 5f       	subi	r18, 0xFF	; 255
    4062:	3f 4f       	sbci	r19, 0xFF	; 255
    4064:	4f 4f       	sbci	r20, 0xFF	; 255
    4066:	5f 4f       	sbci	r21, 0xFF	; 255
    4068:	29 0f       	add	r18, r25
    406a:	31 1d       	adc	r19, r1
    406c:	41 1d       	adc	r20, r1
    406e:	51 1d       	adc	r21, r1
    4070:	04 c0       	rjmp	.+8      	; 0x0x407a
    4072:	28 0f       	add	r18, r24
    4074:	31 1d       	adc	r19, r1
    4076:	41 1d       	adc	r20, r1
    4078:	51 1d       	adc	r21, r1
    407a:	86 2f       	mov	r24, r22
    407c:	99 27       	eor	r25, r25
    407e:	8f bf       	out	0x3f, r24	; 63
    4080:	e0 90 99 01 	lds	r14, 0x0199
    4084:	f0 90 9a 01 	lds	r15, 0x019A
    4088:	00 91 9b 01 	lds	r16, 0x019B
    408c:	10 91 9c 01 	lds	r17, 0x019C
    4090:	80 91 bc 01 	lds	r24, 0x01BC
    4094:	90 91 bd 01 	lds	r25, 0x01BD
    4098:	a0 91 be 01 	lds	r26, 0x01BE
    409c:	b0 91 bf 01 	lds	r27, 0x01BF
    40a0:	2e 19       	sub	r18, r14
    40a2:	3f 09       	sbc	r19, r15
    40a4:	40 0b       	sbc	r20, r16
    40a6:	51 0b       	sbc	r21, r17
    40a8:	28 17       	cp	r18, r24
    40aa:	39 07       	cpc	r19, r25
    40ac:	4a 07       	cpc	r20, r26
    40ae:	5b 07       	cpc	r21, r27
    40b0:	20 f0       	brcs	.+8      	; 0x0x40ba
    40b2:	10 92 bb 01 	sts	0x01BB, r1
    40b6:	71 e0       	ldi	r23, 0x01	; 1
    40b8:	20 c0       	rjmp	.+64     	; 0x0x40fa
    40ba:	a8 01       	movw	r20, r16
    40bc:	97 01       	movw	r18, r14
    40be:	28 0f       	add	r18, r24
    40c0:	39 1f       	adc	r19, r25
    40c2:	4a 1f       	adc	r20, r26
    40c4:	5b 1f       	adc	r21, r27
    40c6:	80 91 b4 01 	lds	r24, 0x01B4
    40ca:	90 91 b5 01 	lds	r25, 0x01B5
    40ce:	a0 91 b6 01 	lds	r26, 0x01B6
    40d2:	b0 91 b7 01 	lds	r27, 0x01B7
    40d6:	28 1b       	sub	r18, r24
    40d8:	39 0b       	sbc	r19, r25
    40da:	4a 0b       	sbc	r20, r26
    40dc:	5b 0b       	sbc	r21, r27
    40de:	27 3e       	cpi	r18, 0xE7	; 231
    40e0:	31 05       	cpc	r19, r1
    40e2:	41 05       	cpc	r20, r1
    40e4:	51 05       	cpc	r21, r1
    40e6:	40 f4       	brcc	.+16     	; 0x0x40f8
    40e8:	82 2f       	mov	r24, r18
    40ea:	22 30       	cpi	r18, 0x02	; 2
    40ec:	10 f0       	brcs	.+4      	; 0x0x40f2
    40ee:	70 e0       	ldi	r23, 0x00	; 0
    40f0:	05 c0       	rjmp	.+10     	; 0x0x40fc
    40f2:	70 e0       	ldi	r23, 0x00	; 0
    40f4:	82 e0       	ldi	r24, 0x02	; 2
    40f6:	02 c0       	rjmp	.+4      	; 0x0x40fc
    40f8:	70 e0       	ldi	r23, 0x00	; 0
    40fa:	86 ee       	ldi	r24, 0xE6	; 230
    40fc:	68 2f       	mov	r22, r24
    40fe:	61 50       	subi	r22, 0x01	; 1
    4100:	00 b6       	in	r0, 0x30	; 48
    4102:	01 fc       	sbrc	r0, 1
    4104:	fd cf       	rjmp	.-6      	; 0x0x4100
    4106:	82 b7       	in	r24, 0x32	; 50
    4108:	68 17       	cp	r22, r24
    410a:	09 f4       	brne	.+2      	; 0x0x410e
    410c:	6f 5f       	subi	r22, 0xFF	; 255
    410e:	20 91 b4 01 	lds	r18, 0x01B4
    4112:	30 91 b5 01 	lds	r19, 0x01B5
    4116:	40 91 b6 01 	lds	r20, 0x01B6
    411a:	50 91 b7 01 	lds	r21, 0x01B7
    411e:	da 01       	movw	r26, r20
    4120:	c9 01       	movw	r24, r18
    4122:	01 96       	adiw	r24, 0x01	; 1
    4124:	a1 1d       	adc	r26, r1
    4126:	b1 1d       	adc	r27, r1
    4128:	86 0f       	add	r24, r22
    412a:	91 1d       	adc	r25, r1
    412c:	a1 1d       	adc	r26, r1
    412e:	b1 1d       	adc	r27, r1
    4130:	82 17       	cp	r24, r18
    4132:	93 07       	cpc	r25, r19
    4134:	a4 07       	cpc	r26, r20
    4136:	b5 07       	cpc	r27, r21
    4138:	10 f4       	brcc	.+4      	; 0x0x413e
    413a:	62 2f       	mov	r22, r18
    413c:	60 95       	com	r22
    413e:	61 bf       	out	0x31, r22	; 49
    4140:	ef bf       	out	0x3f, r30	; 63
    4142:	77 23       	and	r23, r23
    4144:	11 f4       	brne	.+4      	; 0x0x414a
    4146:	0c 94 a5 18 	jmp	0x314a	; 0x0x314a
    414a:	9f b7       	in	r25, 0x3f	; 63
    414c:	f8 94       	cli
    414e:	80 91 cb 01 	lds	r24, 0x01CB
    4152:	8f 3f       	cpi	r24, 0xFF	; 255
    4154:	11 f0       	breq	.+4      	; 0x0x415a
    4156:	0c 94 a2 18 	jmp	0x3144	; 0x0x3144
    415a:	80 91 d9 01 	lds	r24, 0x01D9
    415e:	88 23       	and	r24, r24
    4160:	11 f4       	brne	.+4      	; 0x0x4166
    4162:	0c 94 a2 18 	jmp	0x3144	; 0x0x3144
    4166:	0c 94 e9 29 	jmp	0x53d2	; 0x0x53d2
    416a:	10 92 ca 01 	sts	0x01CA, r1
    416e:	0c 94 a0 18 	jmp	0x3140	; 0x0x3140
    4172:	1f b7       	in	r17, 0x3f	; 63
    4174:	f8 94       	cli
    4176:	80 91 0d 01 	lds	r24, 0x010D
    417a:	84 30       	cpi	r24, 0x04	; 4
    417c:	09 f4       	brne	.+2      	; 0x0x4180
    417e:	dd c0       	rjmp	.+442    	; 0x0x433a
    4180:	85 30       	cpi	r24, 0x05	; 5
    4182:	09 f4       	brne	.+2      	; 0x0x4186
    4184:	a9 c0       	rjmp	.+338    	; 0x0x42d8
    4186:	81 30       	cpi	r24, 0x01	; 1
    4188:	09 f0       	breq	.+2      	; 0x0x418c
    418a:	34 c1       	rjmp	.+616    	; 0x0x43f4
    418c:	80 91 4d 01 	lds	r24, 0x014D
    4190:	81 fd       	sbrc	r24, 1
    4192:	30 c1       	rjmp	.+608    	; 0x0x43f4
    4194:	90 e0       	ldi	r25, 0x00	; 0
    4196:	80 91 8d 01 	lds	r24, 0x018D
    419a:	8f 31       	cpi	r24, 0x1F	; 31
    419c:	08 f0       	brcs	.+2      	; 0x0x41a0
    419e:	91 e0       	ldi	r25, 0x01	; 1
    41a0:	99 23       	and	r25, r25
    41a2:	09 f4       	brne	.+2      	; 0x0x41a6
    41a4:	68 c0       	rjmp	.+208    	; 0x0x4276
    41a6:	80 91 53 01 	lds	r24, 0x0153
    41aa:	90 91 54 01 	lds	r25, 0x0154
    41ae:	89 2b       	or	r24, r25
    41b0:	89 f5       	brne	.+98     	; 0x0x4214
    41b2:	6f b7       	in	r22, 0x3f	; 63
    41b4:	f8 94       	cli
    41b6:	82 b7       	in	r24, 0x32	; 50
    41b8:	20 91 b4 01 	lds	r18, 0x01B4
    41bc:	30 91 b5 01 	lds	r19, 0x01B5
    41c0:	40 91 b6 01 	lds	r20, 0x01B6
    41c4:	50 91 b7 01 	lds	r21, 0x01B7
    41c8:	06 b6       	in	r0, 0x36	; 54
    41ca:	01 fe       	sbrs	r0, 1
    41cc:	0f c0       	rjmp	.+30     	; 0x0x41ec
    41ce:	81 b7       	in	r24, 0x31	; 49
    41d0:	92 b7       	in	r25, 0x32	; 50
    41d2:	28 0f       	add	r18, r24
    41d4:	31 1d       	adc	r19, r1
    41d6:	41 1d       	adc	r20, r1
    41d8:	51 1d       	adc	r21, r1
    41da:	2f 5f       	subi	r18, 0xFF	; 255
    41dc:	3f 4f       	sbci	r19, 0xFF	; 255
    41de:	4f 4f       	sbci	r20, 0xFF	; 255
    41e0:	5f 4f       	sbci	r21, 0xFF	; 255
    41e2:	29 0f       	add	r18, r25
    41e4:	31 1d       	adc	r19, r1
    41e6:	41 1d       	adc	r20, r1
    41e8:	51 1d       	adc	r21, r1
    41ea:	04 c0       	rjmp	.+8      	; 0x0x41f4
    41ec:	28 0f       	add	r18, r24
    41ee:	31 1d       	adc	r19, r1
    41f0:	41 1d       	adc	r20, r1
    41f2:	51 1d       	adc	r21, r1
    41f4:	86 2f       	mov	r24, r22
    41f6:	99 27       	eor	r25, r25
    41f8:	8f bf       	out	0x3f, r24	; 63
    41fa:	20 93 45 01 	sts	0x0145, r18
    41fe:	30 93 46 01 	sts	0x0146, r19
    4202:	40 93 47 01 	sts	0x0147, r20
    4206:	50 93 48 01 	sts	0x0148, r21
    420a:	80 e0       	ldi	r24, 0x00	; 0
    420c:	9a e0       	ldi	r25, 0x0A	; 10
    420e:	a0 e0       	ldi	r26, 0x00	; 0
    4210:	b0 e0       	ldi	r27, 0x00	; 0
    4212:	c6 c0       	rjmp	.+396    	; 0x0x43a0
    4214:	6f b7       	in	r22, 0x3f	; 63
    4216:	f8 94       	cli
    4218:	82 b7       	in	r24, 0x32	; 50
    421a:	20 91 b4 01 	lds	r18, 0x01B4
    421e:	30 91 b5 01 	lds	r19, 0x01B5
    4222:	40 91 b6 01 	lds	r20, 0x01B6
    4226:	50 91 b7 01 	lds	r21, 0x01B7
    422a:	06 b6       	in	r0, 0x36	; 54
    422c:	01 fe       	sbrs	r0, 1
    422e:	0f c0       	rjmp	.+30     	; 0x0x424e
    4230:	81 b7       	in	r24, 0x31	; 49
    4232:	92 b7       	in	r25, 0x32	; 50
    4234:	28 0f       	add	r18, r24
    4236:	31 1d       	adc	r19, r1
    4238:	41 1d       	adc	r20, r1
    423a:	51 1d       	adc	r21, r1
    423c:	2f 5f       	subi	r18, 0xFF	; 255
    423e:	3f 4f       	sbci	r19, 0xFF	; 255
    4240:	4f 4f       	sbci	r20, 0xFF	; 255
    4242:	5f 4f       	sbci	r21, 0xFF	; 255
    4244:	29 0f       	add	r18, r25
    4246:	31 1d       	adc	r19, r1
    4248:	41 1d       	adc	r20, r1
    424a:	51 1d       	adc	r21, r1
    424c:	04 c0       	rjmp	.+8      	; 0x0x4256
    424e:	28 0f       	add	r18, r24
    4250:	31 1d       	adc	r19, r1
    4252:	41 1d       	adc	r20, r1
    4254:	51 1d       	adc	r21, r1
    4256:	86 2f       	mov	r24, r22
    4258:	99 27       	eor	r25, r25
    425a:	8f bf       	out	0x3f, r24	; 63
    425c:	20 93 45 01 	sts	0x0145, r18
    4260:	30 93 46 01 	sts	0x0146, r19
    4264:	40 93 47 01 	sts	0x0147, r20
    4268:	50 93 48 01 	sts	0x0148, r21
    426c:	8e e1       	ldi	r24, 0x1E	; 30
    426e:	90 e0       	ldi	r25, 0x00	; 0
    4270:	a0 e0       	ldi	r26, 0x00	; 0
    4272:	b0 e0       	ldi	r27, 0x00	; 0
    4274:	95 c0       	rjmp	.+298    	; 0x0x43a0
    4276:	6f b7       	in	r22, 0x3f	; 63
    4278:	f8 94       	cli
    427a:	82 b7       	in	r24, 0x32	; 50
    427c:	20 91 b4 01 	lds	r18, 0x01B4
    4280:	30 91 b5 01 	lds	r19, 0x01B5
    4284:	40 91 b6 01 	lds	r20, 0x01B6
    4288:	50 91 b7 01 	lds	r21, 0x01B7
    428c:	06 b6       	in	r0, 0x36	; 54
    428e:	01 fe       	sbrs	r0, 1
    4290:	0f c0       	rjmp	.+30     	; 0x0x42b0
    4292:	81 b7       	in	r24, 0x31	; 49
    4294:	92 b7       	in	r25, 0x32	; 50
    4296:	28 0f       	add	r18, r24
    4298:	31 1d       	adc	r19, r1
    429a:	41 1d       	adc	r20, r1
    429c:	51 1d       	adc	r21, r1
    429e:	2f 5f       	subi	r18, 0xFF	; 255
    42a0:	3f 4f       	sbci	r19, 0xFF	; 255
    42a2:	4f 4f       	sbci	r20, 0xFF	; 255
    42a4:	5f 4f       	sbci	r21, 0xFF	; 255
    42a6:	29 0f       	add	r18, r25
    42a8:	31 1d       	adc	r19, r1
    42aa:	41 1d       	adc	r20, r1
    42ac:	51 1d       	adc	r21, r1
    42ae:	04 c0       	rjmp	.+8      	; 0x0x42b8
    42b0:	28 0f       	add	r18, r24
    42b2:	31 1d       	adc	r19, r1
    42b4:	41 1d       	adc	r20, r1
    42b6:	51 1d       	adc	r21, r1
    42b8:	86 2f       	mov	r24, r22
    42ba:	99 27       	eor	r25, r25
    42bc:	8f bf       	out	0x3f, r24	; 63
    42be:	20 93 45 01 	sts	0x0145, r18
    42c2:	30 93 46 01 	sts	0x0146, r19
    42c6:	40 93 47 01 	sts	0x0147, r20
    42ca:	50 93 48 01 	sts	0x0148, r21
    42ce:	80 e0       	ldi	r24, 0x00	; 0
    42d0:	98 e0       	ldi	r25, 0x08	; 8
    42d2:	a0 e0       	ldi	r26, 0x00	; 0
    42d4:	b0 e0       	ldi	r27, 0x00	; 0
    42d6:	64 c0       	rjmp	.+200    	; 0x0x43a0
    42d8:	6f b7       	in	r22, 0x3f	; 63
    42da:	f8 94       	cli
    42dc:	82 b7       	in	r24, 0x32	; 50
    42de:	20 91 b4 01 	lds	r18, 0x01B4
    42e2:	30 91 b5 01 	lds	r19, 0x01B5
    42e6:	40 91 b6 01 	lds	r20, 0x01B6
    42ea:	50 91 b7 01 	lds	r21, 0x01B7
    42ee:	06 b6       	in	r0, 0x36	; 54
    42f0:	01 fe       	sbrs	r0, 1
    42f2:	0f c0       	rjmp	.+30     	; 0x0x4312
    42f4:	81 b7       	in	r24, 0x31	; 49
    42f6:	92 b7       	in	r25, 0x32	; 50
    42f8:	28 0f       	add	r18, r24
    42fa:	31 1d       	adc	r19, r1
    42fc:	41 1d       	adc	r20, r1
    42fe:	51 1d       	adc	r21, r1
    4300:	2f 5f       	subi	r18, 0xFF	; 255
    4302:	3f 4f       	sbci	r19, 0xFF	; 255
    4304:	4f 4f       	sbci	r20, 0xFF	; 255
    4306:	5f 4f       	sbci	r21, 0xFF	; 255
    4308:	29 0f       	add	r18, r25
    430a:	31 1d       	adc	r19, r1
    430c:	41 1d       	adc	r20, r1
    430e:	51 1d       	adc	r21, r1
    4310:	04 c0       	rjmp	.+8      	; 0x0x431a
    4312:	28 0f       	add	r18, r24
    4314:	31 1d       	adc	r19, r1
    4316:	41 1d       	adc	r20, r1
    4318:	51 1d       	adc	r21, r1
    431a:	86 2f       	mov	r24, r22
    431c:	99 27       	eor	r25, r25
    431e:	8f bf       	out	0x3f, r24	; 63
    4320:	20 93 45 01 	sts	0x0145, r18
    4324:	30 93 46 01 	sts	0x0146, r19
    4328:	40 93 47 01 	sts	0x0147, r20
    432c:	50 93 48 01 	sts	0x0148, r21
    4330:	81 e0       	ldi	r24, 0x01	; 1
    4332:	90 e0       	ldi	r25, 0x00	; 0
    4334:	a0 e0       	ldi	r26, 0x00	; 0
    4336:	b0 e0       	ldi	r27, 0x00	; 0
    4338:	33 c0       	rjmp	.+102    	; 0x0x43a0
    433a:	60 91 53 01 	lds	r22, 0x0153
    433e:	70 91 54 01 	lds	r23, 0x0154
    4342:	ef b7       	in	r30, 0x3f	; 63
    4344:	f8 94       	cli
    4346:	82 b7       	in	r24, 0x32	; 50
    4348:	20 91 b4 01 	lds	r18, 0x01B4
    434c:	30 91 b5 01 	lds	r19, 0x01B5
    4350:	40 91 b6 01 	lds	r20, 0x01B6
    4354:	50 91 b7 01 	lds	r21, 0x01B7
    4358:	06 b6       	in	r0, 0x36	; 54
    435a:	01 fe       	sbrs	r0, 1
    435c:	0f c0       	rjmp	.+30     	; 0x0x437c
    435e:	81 b7       	in	r24, 0x31	; 49
    4360:	92 b7       	in	r25, 0x32	; 50
    4362:	28 0f       	add	r18, r24
    4364:	31 1d       	adc	r19, r1
    4366:	41 1d       	adc	r20, r1
    4368:	51 1d       	adc	r21, r1
    436a:	2f 5f       	subi	r18, 0xFF	; 255
    436c:	3f 4f       	sbci	r19, 0xFF	; 255
    436e:	4f 4f       	sbci	r20, 0xFF	; 255
    4370:	5f 4f       	sbci	r21, 0xFF	; 255
    4372:	29 0f       	add	r18, r25
    4374:	31 1d       	adc	r19, r1
    4376:	41 1d       	adc	r20, r1
    4378:	51 1d       	adc	r21, r1
    437a:	04 c0       	rjmp	.+8      	; 0x0x4384
    437c:	28 0f       	add	r18, r24
    437e:	31 1d       	adc	r19, r1
    4380:	41 1d       	adc	r20, r1
    4382:	51 1d       	adc	r21, r1
    4384:	8e 2f       	mov	r24, r30
    4386:	99 27       	eor	r25, r25
    4388:	8f bf       	out	0x3f, r24	; 63
    438a:	20 93 45 01 	sts	0x0145, r18
    438e:	30 93 46 01 	sts	0x0146, r19
    4392:	40 93 47 01 	sts	0x0147, r20
    4396:	50 93 48 01 	sts	0x0148, r21
    439a:	cb 01       	movw	r24, r22
    439c:	aa 27       	eor	r26, r26
    439e:	bb 27       	eor	r27, r27
    43a0:	80 93 49 01 	sts	0x0149, r24
    43a4:	90 93 4a 01 	sts	0x014A, r25
    43a8:	a0 93 4b 01 	sts	0x014B, r26
    43ac:	b0 93 4c 01 	sts	0x014C, r27
    43b0:	80 91 4d 01 	lds	r24, 0x014D
    43b4:	83 60       	ori	r24, 0x03	; 3
    43b6:	80 93 4d 01 	sts	0x014D, r24
    43ba:	9f b7       	in	r25, 0x3f	; 63
    43bc:	f8 94       	cli
    43be:	80 91 cc 01 	lds	r24, 0x01CC
    43c2:	8f 3f       	cpi	r24, 0xFF	; 255
    43c4:	a1 f4       	brne	.+40     	; 0x0x43ee
    43c6:	80 91 d9 01 	lds	r24, 0x01D9
    43ca:	81 30       	cpi	r24, 0x01	; 1
    43cc:	11 f0       	breq	.+4      	; 0x0x43d2
    43ce:	0c 94 f1 29 	jmp	0x53e2	; 0x0x53e2
    43d2:	0d c0       	rjmp	.+26     	; 0x0x43ee
    43d4:	81 e0       	ldi	r24, 0x01	; 1
    43d6:	80 93 ca 01 	sts	0x01CA, r24
    43da:	07 c0       	rjmp	.+14     	; 0x0x43ea
    43dc:	e0 91 d9 01 	lds	r30, 0x01D9
    43e0:	ff 27       	eor	r31, r31
    43e2:	e5 53       	subi	r30, 0x35	; 53
    43e4:	fe 4f       	sbci	r31, 0xFE	; 254
    43e6:	81 e0       	ldi	r24, 0x01	; 1
    43e8:	80 83       	st	Z, r24
    43ea:	80 93 d9 01 	sts	0x01D9, r24
    43ee:	89 2f       	mov	r24, r25
    43f0:	99 27       	eor	r25, r25
    43f2:	8f bf       	out	0x3f, r24	; 63
    43f4:	81 2f       	mov	r24, r17
    43f6:	99 27       	eor	r25, r25
    43f8:	0c 94 a4 18 	jmp	0x3148	; 0x0x3148
    43fc:	8f b7       	in	r24, 0x3f	; 63
    43fe:	f8 94       	cli
    4400:	99 27       	eor	r25, r25
    4402:	20 91 0d 01 	lds	r18, 0x010D
    4406:	8f bf       	out	0x3f, r24	; 63
    4408:	22 23       	and	r18, r18
    440a:	11 f4       	brne	.+4      	; 0x0x4410
    440c:	0c 94 a5 18 	jmp	0x314a	; 0x0x314a
    4410:	6f b7       	in	r22, 0x3f	; 63
    4412:	f8 94       	cli
    4414:	82 b7       	in	r24, 0x32	; 50
    4416:	20 91 b4 01 	lds	r18, 0x01B4
    441a:	30 91 b5 01 	lds	r19, 0x01B5
    441e:	40 91 b6 01 	lds	r20, 0x01B6
    4422:	50 91 b7 01 	lds	r21, 0x01B7
    4426:	06 b6       	in	r0, 0x36	; 54
    4428:	01 fe       	sbrs	r0, 1
    442a:	0f c0       	rjmp	.+30     	; 0x0x444a
    442c:	81 b7       	in	r24, 0x31	; 49
    442e:	92 b7       	in	r25, 0x32	; 50
    4430:	28 0f       	add	r18, r24
    4432:	31 1d       	adc	r19, r1
    4434:	41 1d       	adc	r20, r1
    4436:	51 1d       	adc	r21, r1
    4438:	2f 5f       	subi	r18, 0xFF	; 255
    443a:	3f 4f       	sbci	r19, 0xFF	; 255
    443c:	4f 4f       	sbci	r20, 0xFF	; 255
    443e:	5f 4f       	sbci	r21, 0xFF	; 255
    4440:	29 0f       	add	r18, r25
    4442:	31 1d       	adc	r19, r1
    4444:	41 1d       	adc	r20, r1
    4446:	51 1d       	adc	r21, r1
    4448:	04 c0       	rjmp	.+8      	; 0x0x4452
    444a:	28 0f       	add	r18, r24
    444c:	31 1d       	adc	r19, r1
    444e:	41 1d       	adc	r20, r1
    4450:	51 1d       	adc	r21, r1
    4452:	86 2f       	mov	r24, r22
    4454:	99 27       	eor	r25, r25
    4456:	8f bf       	out	0x3f, r24	; 63
    4458:	20 93 3c 01 	sts	0x013C, r18
    445c:	30 93 3d 01 	sts	0x013D, r19
    4460:	40 93 3e 01 	sts	0x013E, r20
    4464:	50 93 3f 01 	sts	0x013F, r21
    4468:	88 e8       	ldi	r24, 0x88	; 136
    446a:	93 e1       	ldi	r25, 0x13	; 19
    446c:	a0 e0       	ldi	r26, 0x00	; 0
    446e:	b0 e0       	ldi	r27, 0x00	; 0
    4470:	80 93 40 01 	sts	0x0140, r24
    4474:	90 93 41 01 	sts	0x0141, r25
    4478:	a0 93 42 01 	sts	0x0142, r26
    447c:	b0 93 43 01 	sts	0x0143, r27
    4480:	80 91 44 01 	lds	r24, 0x0144
    4484:	8e 7f       	andi	r24, 0xFE	; 254
    4486:	82 60       	ori	r24, 0x02	; 2
    4488:	80 93 44 01 	sts	0x0144, r24
    448c:	9f b7       	in	r25, 0x3f	; 63
    448e:	f8 94       	cli
    4490:	80 91 cc 01 	lds	r24, 0x01CC
    4494:	8f 3f       	cpi	r24, 0xFF	; 255
    4496:	11 f0       	breq	.+4      	; 0x0x449c
    4498:	0c 94 a2 18 	jmp	0x3144	; 0x0x3144
    449c:	80 91 d9 01 	lds	r24, 0x01D9
    44a0:	81 30       	cpi	r24, 0x01	; 1
    44a2:	11 f0       	breq	.+4      	; 0x0x44a8
    44a4:	0c 94 f9 29 	jmp	0x53f2	; 0x0x53f2
    44a8:	0c 94 a2 18 	jmp	0x3144	; 0x0x3144
    44ac:	81 e0       	ldi	r24, 0x01	; 1
    44ae:	fa c5       	rjmp	.+3060   	; 0x0x50a4
    44b0:	e0 91 d9 01 	lds	r30, 0x01D9
    44b4:	ff 27       	eor	r31, r31
    44b6:	e5 53       	subi	r30, 0x35	; 53
    44b8:	fe 4f       	sbci	r31, 0xFE	; 254
    44ba:	81 e0       	ldi	r24, 0x01	; 1
    44bc:	fc c5       	rjmp	.+3064   	; 0x0x50b6
    44be:	0f b7       	in	r16, 0x3f	; 63
    44c0:	f8 94       	cli
    44c2:	80 91 94 01 	lds	r24, 0x0194
    44c6:	81 fd       	sbrc	r24, 1
    44c8:	06 c0       	rjmp	.+12     	; 0x0x44d6
    44ca:	80 91 53 01 	lds	r24, 0x0153
    44ce:	90 91 54 01 	lds	r25, 0x0154
    44d2:	89 2b       	or	r24, r25
    44d4:	79 f5       	brne	.+94     	; 0x0x4534
    44d6:	80 91 0d 01 	lds	r24, 0x010D
    44da:	84 50       	subi	r24, 0x04	; 4
    44dc:	82 30       	cpi	r24, 0x02	; 2
    44de:	08 f0       	brcs	.+2      	; 0x0x44e2
    44e0:	ae c0       	rjmp	.+348    	; 0x0x463e
    44e2:	80 91 04 01 	lds	r24, 0x0104
    44e6:	84 30       	cpi	r24, 0x04	; 4
    44e8:	19 f0       	breq	.+6      	; 0x0x44f0
    44ea:	85 e0       	ldi	r24, 0x05	; 5
    44ec:	80 93 04 01 	sts	0x0104, r24
    44f0:	81 e0       	ldi	r24, 0x01	; 1
    44f2:	80 93 0d 01 	sts	0x010D, r24
    44f6:	9f b7       	in	r25, 0x3f	; 63
    44f8:	f8 94       	cli
    44fa:	80 91 cd 01 	lds	r24, 0x01CD
    44fe:	8f 3f       	cpi	r24, 0xFF	; 255
    4500:	a1 f4       	brne	.+40     	; 0x0x452a
    4502:	80 91 d9 01 	lds	r24, 0x01D9
    4506:	82 30       	cpi	r24, 0x02	; 2
    4508:	11 f0       	breq	.+4      	; 0x0x450e
    450a:	0c 94 01 2a 	jmp	0x5402	; 0x0x5402
    450e:	0d c0       	rjmp	.+26     	; 0x0x452a
    4510:	82 e0       	ldi	r24, 0x02	; 2
    4512:	80 93 ca 01 	sts	0x01CA, r24
    4516:	07 c0       	rjmp	.+14     	; 0x0x4526
    4518:	e0 91 d9 01 	lds	r30, 0x01D9
    451c:	ff 27       	eor	r31, r31
    451e:	e5 53       	subi	r30, 0x35	; 53
    4520:	fe 4f       	sbci	r31, 0xFE	; 254
    4522:	82 e0       	ldi	r24, 0x02	; 2
    4524:	80 83       	st	Z, r24
    4526:	80 93 d9 01 	sts	0x01D9, r24
    452a:	89 2f       	mov	r24, r25
    452c:	99 27       	eor	r25, r25
    452e:	8f bf       	out	0x3f, r24	; 63
    4530:	21 e0       	ldi	r18, 0x01	; 1
    4532:	86 c0       	rjmp	.+268    	; 0x0x4640
    4534:	90 e0       	ldi	r25, 0x00	; 0
    4536:	80 91 8d 01 	lds	r24, 0x018D
    453a:	8f 31       	cpi	r24, 0x1F	; 31
    453c:	08 f0       	brcs	.+2      	; 0x0x4540
    453e:	91 e0       	ldi	r25, 0x01	; 1
    4540:	99 23       	and	r25, r25
    4542:	09 f4       	brne	.+2      	; 0x0x4546
    4544:	7c c0       	rjmp	.+248    	; 0x0x463e
    4546:	90 e0       	ldi	r25, 0x00	; 0
    4548:	80 91 91 01 	lds	r24, 0x0191
    454c:	83 30       	cpi	r24, 0x03	; 3
    454e:	09 f4       	brne	.+2      	; 0x0x4552
    4550:	91 e0       	ldi	r25, 0x01	; 1
    4552:	99 23       	and	r25, r25
    4554:	09 f0       	breq	.+2      	; 0x0x4558
    4556:	73 c0       	rjmp	.+230    	; 0x0x463e
    4558:	6f e3       	ldi	r22, 0x3F	; 63
    455a:	80 e0       	ldi	r24, 0x00	; 0
    455c:	0e 94 bd 01 	call	0x37a	; 0x0x37a
    4560:	60 e0       	ldi	r22, 0x00	; 0
    4562:	8b e0       	ldi	r24, 0x0B	; 11
    4564:	0e 94 bd 01 	call	0x37a	; 0x0x37a
    4568:	81 e0       	ldi	r24, 0x01	; 1
    456a:	80 93 91 01 	sts	0x0191, r24
    456e:	6f 98       	cbi	0x0d, 7	; 13
    4570:	b8 9a       	sbi	0x17, 0	; 23
    4572:	c0 98       	cbi	0x18, 0	; 24
    4574:	80 91 04 01 	lds	r24, 0x0104
    4578:	84 30       	cpi	r24, 0x04	; 4
    457a:	19 f0       	breq	.+6      	; 0x0x4582
    457c:	85 e0       	ldi	r24, 0x05	; 5
    457e:	80 93 04 01 	sts	0x0104, r24
    4582:	10 93 0d 01 	sts	0x010D, r17
    4586:	60 91 53 01 	lds	r22, 0x0153
    458a:	70 91 54 01 	lds	r23, 0x0154
    458e:	ef b7       	in	r30, 0x3f	; 63
    4590:	f8 94       	cli
    4592:	82 b7       	in	r24, 0x32	; 50
    4594:	20 91 b4 01 	lds	r18, 0x01B4
    4598:	30 91 b5 01 	lds	r19, 0x01B5
    459c:	40 91 b6 01 	lds	r20, 0x01B6
    45a0:	50 91 b7 01 	lds	r21, 0x01B7
    45a4:	06 b6       	in	r0, 0x36	; 54
    45a6:	01 fe       	sbrs	r0, 1
    45a8:	0f c0       	rjmp	.+30     	; 0x0x45c8
    45aa:	81 b7       	in	r24, 0x31	; 49
    45ac:	92 b7       	in	r25, 0x32	; 50
    45ae:	28 0f       	add	r18, r24
    45b0:	31 1d       	adc	r19, r1
    45b2:	41 1d       	adc	r20, r1
    45b4:	51 1d       	adc	r21, r1
    45b6:	2f 5f       	subi	r18, 0xFF	; 255
    45b8:	3f 4f       	sbci	r19, 0xFF	; 255
    45ba:	4f 4f       	sbci	r20, 0xFF	; 255
    45bc:	5f 4f       	sbci	r21, 0xFF	; 255
    45be:	29 0f       	add	r18, r25
    45c0:	31 1d       	adc	r19, r1
    45c2:	41 1d       	adc	r20, r1
    45c4:	51 1d       	adc	r21, r1
    45c6:	04 c0       	rjmp	.+8      	; 0x0x45d0
    45c8:	28 0f       	add	r18, r24
    45ca:	31 1d       	adc	r19, r1
    45cc:	41 1d       	adc	r20, r1
    45ce:	51 1d       	adc	r21, r1
    45d0:	8e 2f       	mov	r24, r30
    45d2:	99 27       	eor	r25, r25
    45d4:	8f bf       	out	0x3f, r24	; 63
    45d6:	20 93 45 01 	sts	0x0145, r18
    45da:	30 93 46 01 	sts	0x0146, r19
    45de:	40 93 47 01 	sts	0x0147, r20
    45e2:	50 93 48 01 	sts	0x0148, r21
    45e6:	cb 01       	movw	r24, r22
    45e8:	aa 27       	eor	r26, r26
    45ea:	bb 27       	eor	r27, r27
    45ec:	80 93 49 01 	sts	0x0149, r24
    45f0:	90 93 4a 01 	sts	0x014A, r25
    45f4:	a0 93 4b 01 	sts	0x014B, r26
    45f8:	b0 93 4c 01 	sts	0x014C, r27
    45fc:	80 91 4d 01 	lds	r24, 0x014D
    4600:	83 60       	ori	r24, 0x03	; 3
    4602:	80 93 4d 01 	sts	0x014D, r24
    4606:	9f b7       	in	r25, 0x3f	; 63
    4608:	f8 94       	cli
    460a:	80 91 cc 01 	lds	r24, 0x01CC
    460e:	8f 3f       	cpi	r24, 0xFF	; 255
    4610:	99 f4       	brne	.+38     	; 0x0x4638
    4612:	80 91 d9 01 	lds	r24, 0x01D9
    4616:	81 30       	cpi	r24, 0x01	; 1
    4618:	09 f0       	breq	.+2      	; 0x0x461c
    461a:	fb c6       	rjmp	.+3574   	; 0x0x5412
    461c:	0d c0       	rjmp	.+26     	; 0x0x4638
    461e:	81 e0       	ldi	r24, 0x01	; 1
    4620:	80 93 ca 01 	sts	0x01CA, r24
    4624:	07 c0       	rjmp	.+14     	; 0x0x4634
    4626:	e0 91 d9 01 	lds	r30, 0x01D9
    462a:	ff 27       	eor	r31, r31
    462c:	e5 53       	subi	r30, 0x35	; 53
    462e:	fe 4f       	sbci	r31, 0xFE	; 254
    4630:	81 e0       	ldi	r24, 0x01	; 1
    4632:	80 83       	st	Z, r24
    4634:	80 93 d9 01 	sts	0x01D9, r24
    4638:	89 2f       	mov	r24, r25
    463a:	99 27       	eor	r25, r25
    463c:	8f bf       	out	0x3f, r24	; 63
    463e:	20 e0       	ldi	r18, 0x00	; 0
    4640:	80 2f       	mov	r24, r16
    4642:	99 27       	eor	r25, r25
    4644:	8f bf       	out	0x3f, r24	; 63
    4646:	22 23       	and	r18, r18
    4648:	11 f4       	brne	.+4      	; 0x0x464e
    464a:	0c 94 a5 18 	jmp	0x314a	; 0x0x314a
    464e:	6b e3       	ldi	r22, 0x3B	; 59
    4650:	80 e0       	ldi	r24, 0x00	; 0
    4652:	0e 94 bd 01 	call	0x37a	; 0x0x37a
    4656:	80 ed       	ldi	r24, 0xD0	; 208
    4658:	97 e0       	ldi	r25, 0x07	; 7
    465a:	01 97       	sbiw	r24, 0x01	; 1
    465c:	01 96       	adiw	r24, 0x01	; 1
    465e:	01 97       	sbiw	r24, 0x01	; 1
    4660:	e1 f7       	brne	.-8      	; 0x0x465a
    4662:	69 e3       	ldi	r22, 0x39	; 57
    4664:	80 e0       	ldi	r24, 0x00	; 0
    4666:	0e 94 bd 01 	call	0x37a	; 0x0x37a
    466a:	88 ec       	ldi	r24, 0xC8	; 200
    466c:	90 e0       	ldi	r25, 0x00	; 0
    466e:	01 97       	sbiw	r24, 0x01	; 1
    4670:	01 96       	adiw	r24, 0x01	; 1
    4672:	01 97       	sbiw	r24, 0x01	; 1
    4674:	e1 f7       	brne	.-8      	; 0x0x466e
    4676:	0f b7       	in	r16, 0x3f	; 63
    4678:	f8 94       	cli
    467a:	11 27       	eor	r17, r17
    467c:	82 e0       	ldi	r24, 0x02	; 2
    467e:	80 93 91 01 	sts	0x0191, r24
    4682:	10 92 8c 01 	sts	0x018C, r1
    4686:	10 92 8b 01 	sts	0x018B, r1
    468a:	0e 94 80 05 	call	0xb00	; 0x0xb00
    468e:	bb 98       	cbi	0x17, 3	; 23
    4690:	ba 98       	cbi	0x17, 2	; 23
    4692:	80 ec       	ldi	r24, 0xC0	; 192
    4694:	8d b9       	out	0x0d, r24	; 13
    4696:	b8 98       	cbi	0x17, 0	; 23
    4698:	7a c0       	rjmp	.+244    	; 0x0x478e
    469a:	8f b7       	in	r24, 0x3f	; 63
    469c:	f8 94       	cli
    469e:	99 27       	eor	r25, r25
    46a0:	20 91 8f 01 	lds	r18, 0x018F
    46a4:	30 91 90 01 	lds	r19, 0x0190
    46a8:	8f bf       	out	0x3f, r24	; 63
    46aa:	80 91 58 01 	lds	r24, 0x0158
    46ae:	e8 2f       	mov	r30, r24
    46b0:	ff 27       	eor	r31, r31
    46b2:	ee 0f       	add	r30, r30
    46b4:	ff 1f       	adc	r31, r31
    46b6:	e3 56       	subi	r30, 0x63	; 99
    46b8:	fe 4f       	sbci	r31, 0xFE	; 254
    46ba:	31 83       	std	Z+1, r19	; 0x01
    46bc:	20 83       	st	Z, r18
    46be:	8f 5f       	subi	r24, 0xFF	; 255
    46c0:	80 93 58 01 	sts	0x0158, r24
    46c4:	89 30       	cpi	r24, 0x09	; 9
    46c6:	10 f0       	brcs	.+4      	; 0x0x46cc
    46c8:	10 92 58 01 	sts	0x0158, r1
    46cc:	80 91 8d 01 	lds	r24, 0x018D
    46d0:	8f 31       	cpi	r24, 0x1F	; 31
    46d2:	18 f4       	brcc	.+6      	; 0x0x46da
    46d4:	8f 5f       	subi	r24, 0xFF	; 255
    46d6:	80 93 8d 01 	sts	0x018D, r24
    46da:	de 01       	movw	r26, r28
    46dc:	11 96       	adiw	r26, 0x01	; 1
    46de:	ed e9       	ldi	r30, 0x9D	; 157
    46e0:	f1 e0       	ldi	r31, 0x01	; 1
    46e2:	82 e1       	ldi	r24, 0x12	; 18
    46e4:	01 90       	ld	r0, Z+
    46e6:	0d 92       	st	X+, r0
    46e8:	81 50       	subi	r24, 0x01	; 1
    46ea:	e1 f7       	brne	.-8      	; 0x0x46e4
    46ec:	60 e0       	ldi	r22, 0x00	; 0
    46ee:	8e 01       	movw	r16, r28
    46f0:	0f 5f       	subi	r16, 0xFF	; 255
    46f2:	1f 4f       	sbci	r17, 0xFF	; 255
    46f4:	41 e0       	ldi	r20, 0x01	; 1
    46f6:	50 e0       	ldi	r21, 0x00	; 0
    46f8:	de 01       	movw	r26, r28
    46fa:	13 96       	adiw	r26, 0x03	; 3
    46fc:	e5 2f       	mov	r30, r21
    46fe:	ff 27       	eor	r31, r31
    4700:	ee 0f       	add	r30, r30
    4702:	ff 1f       	adc	r31, r31
    4704:	e0 0f       	add	r30, r16
    4706:	f1 1f       	adc	r31, r17
    4708:	2d 91       	ld	r18, X+
    470a:	3c 91       	ld	r19, X
    470c:	11 97       	sbiw	r26, 0x01	; 1
    470e:	80 81       	ld	r24, Z
    4710:	91 81       	ldd	r25, Z+1	; 0x01
    4712:	82 17       	cp	r24, r18
    4714:	93 07       	cpc	r25, r19
    4716:	08 f4       	brcc	.+2      	; 0x0x471a
    4718:	54 2f       	mov	r21, r20
    471a:	4f 5f       	subi	r20, 0xFF	; 255
    471c:	12 96       	adiw	r26, 0x02	; 2
    471e:	49 30       	cpi	r20, 0x09	; 9
    4720:	69 f7       	brne	.-38     	; 0x0x46fc
    4722:	e5 2f       	mov	r30, r21
    4724:	ff 27       	eor	r31, r31
    4726:	63 30       	cpi	r22, 0x03	; 3
    4728:	41 f0       	breq	.+16     	; 0x0x473a
    472a:	ee 0f       	add	r30, r30
    472c:	ff 1f       	adc	r31, r31
    472e:	e0 0f       	add	r30, r16
    4730:	f1 1f       	adc	r31, r17
    4732:	11 82       	std	Z+1, r1	; 0x01
    4734:	10 82       	st	Z, r1
    4736:	6f 5f       	subi	r22, 0xFF	; 255
    4738:	dd cf       	rjmp	.-70     	; 0x0x46f4
    473a:	60 91 05 01 	lds	r22, 0x0105
    473e:	70 91 06 01 	lds	r23, 0x0106
    4742:	88 27       	eor	r24, r24
    4744:	99 27       	eor	r25, r25
    4746:	35 e0       	ldi	r19, 0x05	; 5
    4748:	66 0f       	add	r22, r22
    474a:	77 1f       	adc	r23, r23
    474c:	88 1f       	adc	r24, r24
    474e:	99 1f       	adc	r25, r25
    4750:	3a 95       	dec	r19
    4752:	d1 f7       	brne	.-12     	; 0x0x4748
    4754:	ee 0f       	add	r30, r30
    4756:	ff 1f       	adc	r31, r31
    4758:	e0 0f       	add	r30, r16
    475a:	f1 1f       	adc	r31, r17
    475c:	20 81       	ld	r18, Z
    475e:	31 81       	ldd	r19, Z+1	; 0x01
    4760:	44 27       	eor	r20, r20
    4762:	55 27       	eor	r21, r21
    4764:	22 0f       	add	r18, r18
    4766:	33 1f       	adc	r19, r19
    4768:	44 1f       	adc	r20, r20
    476a:	55 1f       	adc	r21, r21
    476c:	62 0f       	add	r22, r18
    476e:	73 1f       	adc	r23, r19
    4770:	84 1f       	adc	r24, r20
    4772:	95 1f       	adc	r25, r21
    4774:	0f b7       	in	r16, 0x3f	; 63
    4776:	f8 94       	cli
    4778:	11 27       	eor	r17, r17
    477a:	22 e2       	ldi	r18, 0x22	; 34
    477c:	30 e0       	ldi	r19, 0x00	; 0
    477e:	40 e0       	ldi	r20, 0x00	; 0
    4780:	50 e0       	ldi	r21, 0x00	; 0
    4782:	0e 94 eb 37 	call	0x6fd6	; 0x0x6fd6
    4786:	30 93 06 01 	sts	0x0106, r19
    478a:	20 93 05 01 	sts	0x0105, r18
    478e:	0f bf       	out	0x3f, r16	; 63
    4790:	0c 94 a5 18 	jmp	0x314a	; 0x0x314a
    4794:	2f b7       	in	r18, 0x3f	; 63
    4796:	f8 94       	cli
    4798:	33 27       	eor	r19, r19
    479a:	40 91 59 01 	lds	r20, 0x0159
    479e:	50 91 5a 01 	lds	r21, 0x015A
    47a2:	80 91 dd 01 	lds	r24, 0x01DD
    47a6:	8d 7f       	andi	r24, 0xFD	; 253
    47a8:	80 93 dd 01 	sts	0x01DD, r24
    47ac:	82 e0       	ldi	r24, 0x02	; 2
    47ae:	80 93 91 01 	sts	0x0191, r24
    47b2:	10 92 8c 01 	sts	0x018C, r1
    47b6:	10 92 8b 01 	sts	0x018B, r1
    47ba:	2f bf       	out	0x3f, r18	; 63
    47bc:	80 91 0a 01 	lds	r24, 0x010A
    47c0:	88 23       	and	r24, r24
    47c2:	11 f0       	breq	.+4      	; 0x0x47c8
    47c4:	0c 94 a5 18 	jmp	0x314a	; 0x0x314a
    47c8:	80 91 50 01 	lds	r24, 0x0150
    47cc:	90 91 51 01 	lds	r25, 0x0151
    47d0:	84 17       	cp	r24, r20
    47d2:	95 07       	cpc	r25, r21
    47d4:	11 f0       	breq	.+4      	; 0x0x47da
    47d6:	0c 94 a5 18 	jmp	0x314a	; 0x0x314a
    47da:	10 92 51 01 	sts	0x0151, r1
    47de:	10 92 50 01 	sts	0x0150, r1
    47e2:	6b c3       	rjmp	.+1750   	; 0x0x4eba
    47e4:	8f b7       	in	r24, 0x3f	; 63
    47e6:	f8 94       	cli
    47e8:	28 2f       	mov	r18, r24
    47ea:	33 27       	eor	r19, r19
    47ec:	80 91 91 01 	lds	r24, 0x0191
    47f0:	85 30       	cpi	r24, 0x05	; 5
    47f2:	09 f0       	breq	.+2      	; 0x0x47f6
    47f4:	19 cc       	rjmp	.-1998   	; 0x0x4028
    47f6:	40 91 02 01 	lds	r20, 0x0102
    47fa:	50 91 03 01 	lds	r21, 0x0103
    47fe:	5c 8f       	std	Y+28, r21	; 0x1c
    4800:	4b 8f       	std	Y+27, r20	; 0x1b
    4802:	2f bf       	out	0x3f, r18	; 63
    4804:	7a 01       	movw	r14, r20
    4806:	87 e0       	ldi	r24, 0x07	; 7
    4808:	90 e0       	ldi	r25, 0x00	; 0
    480a:	e8 0e       	add	r14, r24
    480c:	f9 1e       	adc	r15, r25
    480e:	fa 01       	movw	r30, r20
    4810:	a4 81       	ldd	r26, Z+4	; 0x04
    4812:	80 81       	ld	r24, Z
    4814:	41 81       	ldd	r20, Z+1	; 0x01
    4816:	2f b7       	in	r18, 0x3f	; 63
    4818:	f8 94       	cli
    481a:	33 27       	eor	r19, r19
    481c:	60 91 08 01 	lds	r22, 0x0108
    4820:	70 91 09 01 	lds	r23, 0x0109
    4824:	2f bf       	out	0x3f, r18	; 63
    4826:	99 27       	eor	r25, r25
    4828:	98 2f       	mov	r25, r24
    482a:	88 27       	eor	r24, r24
    482c:	55 27       	eor	r21, r21
    482e:	84 2b       	or	r24, r20
    4830:	95 2b       	or	r25, r21
    4832:	86 17       	cp	r24, r22
    4834:	97 07       	cpc	r25, r23
    4836:	61 f0       	breq	.+24     	; 0x0x4850
    4838:	80 81       	ld	r24, Z
    483a:	21 81       	ldd	r18, Z+1	; 0x01
    483c:	99 27       	eor	r25, r25
    483e:	98 2f       	mov	r25, r24
    4840:	88 27       	eor	r24, r24
    4842:	33 27       	eor	r19, r19
    4844:	82 2b       	or	r24, r18
    4846:	93 2b       	or	r25, r19
    4848:	8f 5f       	subi	r24, 0xFF	; 255
    484a:	9f 4f       	sbci	r25, 0xFF	; 255
    484c:	09 f0       	breq	.+2      	; 0x0x4850
    484e:	56 c2       	rjmp	.+1196   	; 0x0x4cfc
    4850:	eb 8d       	ldd	r30, Y+27	; 0x1b
    4852:	fc 8d       	ldd	r31, Y+28	; 0x1c
    4854:	86 81       	ldd	r24, Z+6	; 0x06
    4856:	82 39       	cpi	r24, 0x92	; 146
    4858:	09 f0       	breq	.+2      	; 0x0x485c
    485a:	50 c2       	rjmp	.+1184   	; 0x0x4cfc
    485c:	ac 30       	cpi	r26, 0x0C	; 12
    485e:	09 f0       	breq	.+2      	; 0x0x4862
    4860:	4d c2       	rjmp	.+1178   	; 0x0x4cfc
    4862:	6f b7       	in	r22, 0x3f	; 63
    4864:	f8 94       	cli
    4866:	82 b7       	in	r24, 0x32	; 50
    4868:	20 91 b4 01 	lds	r18, 0x01B4
    486c:	30 91 b5 01 	lds	r19, 0x01B5
    4870:	40 91 b6 01 	lds	r20, 0x01B6
    4874:	50 91 b7 01 	lds	r21, 0x01B7
    4878:	06 b6       	in	r0, 0x36	; 54
    487a:	01 fe       	sbrs	r0, 1
    487c:	0f c0       	rjmp	.+30     	; 0x0x489c
    487e:	81 b7       	in	r24, 0x31	; 49
    4880:	92 b7       	in	r25, 0x32	; 50
    4882:	28 0f       	add	r18, r24
    4884:	31 1d       	adc	r19, r1
    4886:	41 1d       	adc	r20, r1
    4888:	51 1d       	adc	r21, r1
    488a:	2f 5f       	subi	r18, 0xFF	; 255
    488c:	3f 4f       	sbci	r19, 0xFF	; 255
    488e:	4f 4f       	sbci	r20, 0xFF	; 255
    4890:	5f 4f       	sbci	r21, 0xFF	; 255
    4892:	29 0f       	add	r18, r25
    4894:	31 1d       	adc	r19, r1
    4896:	41 1d       	adc	r20, r1
    4898:	51 1d       	adc	r21, r1
    489a:	04 c0       	rjmp	.+8      	; 0x0x48a4
    489c:	28 0f       	add	r18, r24
    489e:	31 1d       	adc	r19, r1
    48a0:	41 1d       	adc	r20, r1
    48a2:	51 1d       	adc	r21, r1
    48a4:	86 2f       	mov	r24, r22
    48a6:	99 27       	eor	r25, r25
    48a8:	8f bf       	out	0x3f, r24	; 63
    48aa:	80 91 c0 01 	lds	r24, 0x01C0
    48ae:	90 91 c1 01 	lds	r25, 0x01C1
    48b2:	a0 91 c2 01 	lds	r26, 0x01C2
    48b6:	b0 91 c3 01 	lds	r27, 0x01C3
    48ba:	28 1b       	sub	r18, r24
    48bc:	39 0b       	sbc	r19, r25
    48be:	4a 0b       	sbc	r20, r26
    48c0:	5b 0b       	sbc	r21, r27
    48c2:	2b 8b       	std	Y+19, r18	; 0x13
    48c4:	3c 8b       	std	Y+20, r19	; 0x14
    48c6:	4d 8b       	std	Y+21, r20	; 0x15
    48c8:	5e 8b       	std	Y+22, r21	; 0x16
    48ca:	20 93 c0 01 	sts	0x01C0, r18
    48ce:	30 93 c1 01 	sts	0x01C1, r19
    48d2:	40 93 c2 01 	sts	0x01C2, r20
    48d6:	50 93 c3 01 	sts	0x01C3, r21
    48da:	f7 01       	movw	r30, r14
    48dc:	84 81       	ldd	r24, Z+4	; 0x04
    48de:	15 81       	ldd	r17, Z+5	; 0x05
    48e0:	46 80       	ldd	r4, Z+6	; 0x06
    48e2:	57 80       	ldd	r5, Z+7	; 0x07
    48e4:	70 84       	ldd	r7, Z+8	; 0x08
    48e6:	31 84       	ldd	r3, Z+9	; 0x09
    48e8:	62 84       	ldd	r6, Z+10	; 0x0a
    48ea:	e3 84       	ldd	r14, Z+11	; 0x0b
    48ec:	ea 8e       	std	Y+26, r14	; 0x1a
    48ee:	99 24       	eor	r9, r9
    48f0:	aa 24       	eor	r10, r10
    48f2:	bb 24       	eor	r11, r11
    48f4:	cc 24       	eor	r12, r12
    48f6:	dd 24       	eor	r13, r13
    48f8:	ee 24       	eor	r14, r14
    48fa:	ff 24       	eor	r15, r15
    48fc:	08 e3       	ldi	r16, 0x38	; 56
    48fe:	28 2f       	mov	r18, r24
    4900:	39 2d       	mov	r19, r9
    4902:	4a 2d       	mov	r20, r10
    4904:	5b 2d       	mov	r21, r11
    4906:	6c 2d       	mov	r22, r12
    4908:	7d 2d       	mov	r23, r13
    490a:	8e 2d       	mov	r24, r14
    490c:	9f 2d       	mov	r25, r15
    490e:	0e 94 42 37 	call	0x6e84	; 0x0x6e84
    4912:	2e af       	std	Y+62, r18	; 0x3e
    4914:	3f af       	std	Y+63, r19	; 0x3f
    4916:	21 96       	adiw	r28, 0x01	; 1
    4918:	4f af       	std	Y+63, r20	; 0x3f
    491a:	21 97       	sbiw	r28, 0x01	; 1
    491c:	22 96       	adiw	r28, 0x02	; 2
    491e:	5f af       	std	Y+63, r21	; 0x3f
    4920:	22 97       	sbiw	r28, 0x02	; 2
    4922:	23 96       	adiw	r28, 0x03	; 3
    4924:	6f af       	std	Y+63, r22	; 0x3f
    4926:	23 97       	sbiw	r28, 0x03	; 3
    4928:	24 96       	adiw	r28, 0x04	; 4
    492a:	7f af       	std	Y+63, r23	; 0x3f
    492c:	24 97       	sbiw	r28, 0x04	; 4
    492e:	25 96       	adiw	r28, 0x05	; 5
    4930:	8f af       	std	Y+63, r24	; 0x3f
    4932:	25 97       	sbiw	r28, 0x05	; 5
    4934:	26 96       	adiw	r28, 0x06	; 6
    4936:	9f af       	std	Y+63, r25	; 0x3f
    4938:	26 97       	sbiw	r28, 0x06	; 6
    493a:	00 e3       	ldi	r16, 0x30	; 48
    493c:	21 2f       	mov	r18, r17
    493e:	39 2d       	mov	r19, r9
    4940:	4a 2d       	mov	r20, r10
    4942:	5b 2d       	mov	r21, r11
    4944:	6c 2d       	mov	r22, r12
    4946:	7d 2d       	mov	r23, r13
    4948:	8e 2d       	mov	r24, r14
    494a:	9f 2d       	mov	r25, r15
    494c:	0e 94 42 37 	call	0x6e84	; 0x0x6e84
    4950:	08 2f       	mov	r16, r24
    4952:	19 2f       	mov	r17, r25
    4954:	fe ad       	ldd	r31, Y+62	; 0x3e
    4956:	f2 2b       	or	r31, r18
    4958:	27 96       	adiw	r28, 0x07	; 7
    495a:	ff af       	std	Y+63, r31	; 0x3f
    495c:	27 97       	sbiw	r28, 0x07	; 7
    495e:	2f ad       	ldd	r18, Y+63	; 0x3f
    4960:	23 2b       	or	r18, r19
    4962:	28 96       	adiw	r28, 0x08	; 8
    4964:	2f af       	std	Y+63, r18	; 0x3f
    4966:	28 97       	sbiw	r28, 0x08	; 8
    4968:	21 96       	adiw	r28, 0x01	; 1
    496a:	3f ad       	ldd	r19, Y+63	; 0x3f
    496c:	21 97       	sbiw	r28, 0x01	; 1
    496e:	34 2b       	or	r19, r20
    4970:	29 96       	adiw	r28, 0x09	; 9
    4972:	3f af       	std	Y+63, r19	; 0x3f
    4974:	29 97       	sbiw	r28, 0x09	; 9
    4976:	22 96       	adiw	r28, 0x02	; 2
    4978:	4f ad       	ldd	r20, Y+63	; 0x3f
    497a:	22 97       	sbiw	r28, 0x02	; 2
    497c:	45 2b       	or	r20, r21
    497e:	2a 96       	adiw	r28, 0x0a	; 10
    4980:	4f af       	std	Y+63, r20	; 0x3f
    4982:	2a 97       	sbiw	r28, 0x0a	; 10
    4984:	23 96       	adiw	r28, 0x03	; 3
    4986:	5f ad       	ldd	r21, Y+63	; 0x3f
    4988:	23 97       	sbiw	r28, 0x03	; 3
    498a:	56 2b       	or	r21, r22
    498c:	2b 96       	adiw	r28, 0x0b	; 11
    498e:	5f af       	std	Y+63, r21	; 0x3f
    4990:	2b 97       	sbiw	r28, 0x0b	; 11
    4992:	24 96       	adiw	r28, 0x04	; 4
    4994:	8f ad       	ldd	r24, Y+63	; 0x3f
    4996:	24 97       	sbiw	r28, 0x04	; 4
    4998:	87 2b       	or	r24, r23
    499a:	2c 96       	adiw	r28, 0x0c	; 12
    499c:	8f af       	std	Y+63, r24	; 0x3f
    499e:	2c 97       	sbiw	r28, 0x0c	; 12
    49a0:	25 96       	adiw	r28, 0x05	; 5
    49a2:	9f ad       	ldd	r25, Y+63	; 0x3f
    49a4:	25 97       	sbiw	r28, 0x05	; 5
    49a6:	90 2b       	or	r25, r16
    49a8:	2d 96       	adiw	r28, 0x0d	; 13
    49aa:	9f af       	std	Y+63, r25	; 0x3f
    49ac:	2d 97       	sbiw	r28, 0x0d	; 13
    49ae:	26 96       	adiw	r28, 0x06	; 6
    49b0:	af ad       	ldd	r26, Y+63	; 0x3f
    49b2:	26 97       	sbiw	r28, 0x06	; 6
    49b4:	a1 2b       	or	r26, r17
    49b6:	2e 96       	adiw	r28, 0x0e	; 14
    49b8:	af af       	std	Y+63, r26	; 0x3f
    49ba:	2e 97       	sbiw	r28, 0x0e	; 14
    49bc:	aa 24       	eor	r10, r10
    49be:	bb 24       	eor	r11, r11
    49c0:	cc 24       	eor	r12, r12
    49c2:	dd 24       	eor	r13, r13
    49c4:	ee 24       	eor	r14, r14
    49c6:	ff 24       	eor	r15, r15
    49c8:	08 e1       	ldi	r16, 0x18	; 24
    49ca:	27 2d       	mov	r18, r7
    49cc:	39 2d       	mov	r19, r9
    49ce:	4a 2d       	mov	r20, r10
    49d0:	5b 2d       	mov	r21, r11
    49d2:	6c 2d       	mov	r22, r12
    49d4:	7d 2d       	mov	r23, r13
    49d6:	8e 2d       	mov	r24, r14
    49d8:	9f 2d       	mov	r25, r15
    49da:	0e 94 42 37 	call	0x6e84	; 0x0x6e84
    49de:	27 96       	adiw	r28, 0x07	; 7
    49e0:	bf ad       	ldd	r27, Y+63	; 0x3f
    49e2:	27 97       	sbiw	r28, 0x07	; 7
    49e4:	b2 2b       	or	r27, r18
    49e6:	2f 96       	adiw	r28, 0x0f	; 15
    49e8:	bf af       	std	Y+63, r27	; 0x3f
    49ea:	2f 97       	sbiw	r28, 0x0f	; 15
    49ec:	28 96       	adiw	r28, 0x08	; 8
    49ee:	ef ad       	ldd	r30, Y+63	; 0x3f
    49f0:	28 97       	sbiw	r28, 0x08	; 8
    49f2:	e3 2b       	or	r30, r19
    49f4:	60 96       	adiw	r28, 0x10	; 16
    49f6:	ef af       	std	Y+63, r30	; 0x3f
    49f8:	60 97       	sbiw	r28, 0x10	; 16
    49fa:	29 96       	adiw	r28, 0x09	; 9
    49fc:	ff ad       	ldd	r31, Y+63	; 0x3f
    49fe:	29 97       	sbiw	r28, 0x09	; 9
    4a00:	f4 2b       	or	r31, r20
    4a02:	61 96       	adiw	r28, 0x11	; 17
    4a04:	ff af       	std	Y+63, r31	; 0x3f
    4a06:	61 97       	sbiw	r28, 0x11	; 17
    4a08:	2a 96       	adiw	r28, 0x0a	; 10
    4a0a:	2f ad       	ldd	r18, Y+63	; 0x3f
    4a0c:	2a 97       	sbiw	r28, 0x0a	; 10
    4a0e:	25 2b       	or	r18, r21
    4a10:	62 96       	adiw	r28, 0x12	; 18
    4a12:	2f af       	std	Y+63, r18	; 0x3f
    4a14:	62 97       	sbiw	r28, 0x12	; 18
    4a16:	2b 96       	adiw	r28, 0x0b	; 11
    4a18:	3f ad       	ldd	r19, Y+63	; 0x3f
    4a1a:	2b 97       	sbiw	r28, 0x0b	; 11
    4a1c:	36 2b       	or	r19, r22
    4a1e:	63 96       	adiw	r28, 0x13	; 19
    4a20:	3f af       	std	Y+63, r19	; 0x3f
    4a22:	63 97       	sbiw	r28, 0x13	; 19
    4a24:	2c 96       	adiw	r28, 0x0c	; 12
    4a26:	4f ad       	ldd	r20, Y+63	; 0x3f
    4a28:	2c 97       	sbiw	r28, 0x0c	; 12
    4a2a:	47 2b       	or	r20, r23
    4a2c:	64 96       	adiw	r28, 0x14	; 20
    4a2e:	4f af       	std	Y+63, r20	; 0x3f
    4a30:	64 97       	sbiw	r28, 0x14	; 20
    4a32:	2d 96       	adiw	r28, 0x0d	; 13
    4a34:	5f ad       	ldd	r21, Y+63	; 0x3f
    4a36:	2d 97       	sbiw	r28, 0x0d	; 13
    4a38:	58 2b       	or	r21, r24
    4a3a:	65 96       	adiw	r28, 0x15	; 21
    4a3c:	5f af       	std	Y+63, r21	; 0x3f
    4a3e:	65 97       	sbiw	r28, 0x15	; 21
    4a40:	2e 96       	adiw	r28, 0x0e	; 14
    4a42:	8f ad       	ldd	r24, Y+63	; 0x3f
    4a44:	2e 97       	sbiw	r28, 0x0e	; 14
    4a46:	89 2b       	or	r24, r25
    4a48:	66 96       	adiw	r28, 0x16	; 22
    4a4a:	8f af       	std	Y+63, r24	; 0x3f
    4a4c:	66 97       	sbiw	r28, 0x16	; 22
    4a4e:	aa 24       	eor	r10, r10
    4a50:	bb 24       	eor	r11, r11
    4a52:	cc 24       	eor	r12, r12
    4a54:	dd 24       	eor	r13, r13
    4a56:	ee 24       	eor	r14, r14
    4a58:	ff 24       	eor	r15, r15
    4a5a:	08 e0       	ldi	r16, 0x08	; 8
    4a5c:	26 2d       	mov	r18, r6
    4a5e:	39 2d       	mov	r19, r9
    4a60:	4a 2d       	mov	r20, r10
    4a62:	5b 2d       	mov	r21, r11
    4a64:	6c 2d       	mov	r22, r12
    4a66:	7d 2d       	mov	r23, r13
    4a68:	8e 2d       	mov	r24, r14
    4a6a:	9f 2d       	mov	r25, r15
    4a6c:	0e 94 42 37 	call	0x6e84	; 0x0x6e84
    4a70:	a2 2e       	mov	r10, r18
    4a72:	b3 2e       	mov	r11, r19
    4a74:	c4 2e       	mov	r12, r20
    4a76:	d5 2e       	mov	r13, r21
    4a78:	e6 2e       	mov	r14, r22
    4a7a:	f7 2e       	mov	r15, r23
    4a7c:	08 2f       	mov	r16, r24
    4a7e:	19 2f       	mov	r17, r25
    4a80:	2f 96       	adiw	r28, 0x0f	; 15
    4a82:	9f ad       	ldd	r25, Y+63	; 0x3f
    4a84:	2f 97       	sbiw	r28, 0x0f	; 15
    4a86:	9a 29       	or	r25, r10
    4a88:	67 96       	adiw	r28, 0x17	; 23
    4a8a:	9f af       	std	Y+63, r25	; 0x3f
    4a8c:	67 97       	sbiw	r28, 0x17	; 23
    4a8e:	60 96       	adiw	r28, 0x10	; 16
    4a90:	af ad       	ldd	r26, Y+63	; 0x3f
    4a92:	60 97       	sbiw	r28, 0x10	; 16
    4a94:	ab 29       	or	r26, r11
    4a96:	68 96       	adiw	r28, 0x18	; 24
    4a98:	af af       	std	Y+63, r26	; 0x3f
    4a9a:	68 97       	sbiw	r28, 0x18	; 24
    4a9c:	61 96       	adiw	r28, 0x11	; 17
    4a9e:	bf ad       	ldd	r27, Y+63	; 0x3f
    4aa0:	61 97       	sbiw	r28, 0x11	; 17
    4aa2:	bc 29       	or	r27, r12
    4aa4:	69 96       	adiw	r28, 0x19	; 25
    4aa6:	bf af       	std	Y+63, r27	; 0x3f
    4aa8:	69 97       	sbiw	r28, 0x19	; 25
    4aaa:	62 96       	adiw	r28, 0x12	; 18
    4aac:	ef ad       	ldd	r30, Y+63	; 0x3f
    4aae:	62 97       	sbiw	r28, 0x12	; 18
    4ab0:	ed 29       	or	r30, r13
    4ab2:	6a 96       	adiw	r28, 0x1a	; 26
    4ab4:	ef af       	std	Y+63, r30	; 0x3f
    4ab6:	6a 97       	sbiw	r28, 0x1a	; 26
    4ab8:	63 96       	adiw	r28, 0x13	; 19
    4aba:	ff ad       	ldd	r31, Y+63	; 0x3f
    4abc:	63 97       	sbiw	r28, 0x13	; 19
    4abe:	fe 29       	or	r31, r14
    4ac0:	6b 96       	adiw	r28, 0x1b	; 27
    4ac2:	ff af       	std	Y+63, r31	; 0x3f
    4ac4:	6b 97       	sbiw	r28, 0x1b	; 27
    4ac6:	64 96       	adiw	r28, 0x14	; 20
    4ac8:	2f ad       	ldd	r18, Y+63	; 0x3f
    4aca:	64 97       	sbiw	r28, 0x14	; 20
    4acc:	2f 29       	or	r18, r15
    4ace:	6c 96       	adiw	r28, 0x1c	; 28
    4ad0:	2f af       	std	Y+63, r18	; 0x3f
    4ad2:	6c 97       	sbiw	r28, 0x1c	; 28
    4ad4:	65 96       	adiw	r28, 0x15	; 21
    4ad6:	3f ad       	ldd	r19, Y+63	; 0x3f
    4ad8:	65 97       	sbiw	r28, 0x15	; 21
    4ada:	30 2b       	or	r19, r16
    4adc:	6d 96       	adiw	r28, 0x1d	; 29
    4ade:	3f af       	std	Y+63, r19	; 0x3f
    4ae0:	6d 97       	sbiw	r28, 0x1d	; 29
    4ae2:	66 96       	adiw	r28, 0x16	; 22
    4ae4:	4f ad       	ldd	r20, Y+63	; 0x3f
    4ae6:	66 97       	sbiw	r28, 0x16	; 22
    4ae8:	41 2b       	or	r20, r17
    4aea:	6e 96       	adiw	r28, 0x1e	; 30
    4aec:	4f af       	std	Y+63, r20	; 0x3f
    4aee:	6e 97       	sbiw	r28, 0x1e	; 30
    4af0:	aa 24       	eor	r10, r10
    4af2:	bb 24       	eor	r11, r11
    4af4:	cc 24       	eor	r12, r12
    4af6:	dd 24       	eor	r13, r13
    4af8:	ee 24       	eor	r14, r14
    4afa:	ff 24       	eor	r15, r15
    4afc:	00 e2       	ldi	r16, 0x20	; 32
    4afe:	25 2d       	mov	r18, r5
    4b00:	39 2d       	mov	r19, r9
    4b02:	4a 2d       	mov	r20, r10
    4b04:	5b 2d       	mov	r21, r11
    4b06:	6c 2d       	mov	r22, r12
    4b08:	7d 2d       	mov	r23, r13
    4b0a:	8e 2d       	mov	r24, r14
    4b0c:	9f 2d       	mov	r25, r15
    4b0e:	0e 94 42 37 	call	0x6e84	; 0x0x6e84
    4b12:	6f 96       	adiw	r28, 0x1f	; 31
    4b14:	2f af       	std	Y+63, r18	; 0x3f
    4b16:	6f 97       	sbiw	r28, 0x1f	; 31
    4b18:	a0 96       	adiw	r28, 0x20	; 32
    4b1a:	3f af       	std	Y+63, r19	; 0x3f
    4b1c:	a0 97       	sbiw	r28, 0x20	; 32
    4b1e:	a1 96       	adiw	r28, 0x21	; 33
    4b20:	4f af       	std	Y+63, r20	; 0x3f
    4b22:	a1 97       	sbiw	r28, 0x21	; 33
    4b24:	a2 96       	adiw	r28, 0x22	; 34
    4b26:	5f af       	std	Y+63, r21	; 0x3f
    4b28:	a2 97       	sbiw	r28, 0x22	; 34
    4b2a:	a3 96       	adiw	r28, 0x23	; 35
    4b2c:	6f af       	std	Y+63, r22	; 0x3f
    4b2e:	a3 97       	sbiw	r28, 0x23	; 35
    4b30:	a4 96       	adiw	r28, 0x24	; 36
    4b32:	7f af       	std	Y+63, r23	; 0x3f
    4b34:	a4 97       	sbiw	r28, 0x24	; 36
    4b36:	a5 96       	adiw	r28, 0x25	; 37
    4b38:	8f af       	std	Y+63, r24	; 0x3f
    4b3a:	a5 97       	sbiw	r28, 0x25	; 37
    4b3c:	a6 96       	adiw	r28, 0x26	; 38
    4b3e:	9f af       	std	Y+63, r25	; 0x3f
    4b40:	a6 97       	sbiw	r28, 0x26	; 38
    4b42:	08 e2       	ldi	r16, 0x28	; 40
    4b44:	24 2d       	mov	r18, r4
    4b46:	39 2d       	mov	r19, r9
    4b48:	4a 2d       	mov	r20, r10
    4b4a:	5b 2d       	mov	r21, r11
    4b4c:	6c 2d       	mov	r22, r12
    4b4e:	7d 2d       	mov	r23, r13
    4b50:	8e 2d       	mov	r24, r14
    4b52:	9f 2d       	mov	r25, r15
    4b54:	0e 94 42 37 	call	0x6e84	; 0x0x6e84
    4b58:	a2 2e       	mov	r10, r18
    4b5a:	b3 2e       	mov	r11, r19
    4b5c:	c4 2e       	mov	r12, r20
    4b5e:	d5 2e       	mov	r13, r21
    4b60:	e6 2e       	mov	r14, r22
    4b62:	f7 2e       	mov	r15, r23
    4b64:	08 2f       	mov	r16, r24
    4b66:	19 2f       	mov	r17, r25
    4b68:	6f 96       	adiw	r28, 0x1f	; 31
    4b6a:	5f ad       	ldd	r21, Y+63	; 0x3f
    4b6c:	6f 97       	sbiw	r28, 0x1f	; 31
    4b6e:	5a 29       	or	r21, r10
    4b70:	a7 96       	adiw	r28, 0x27	; 39
    4b72:	5f af       	std	Y+63, r21	; 0x3f
    4b74:	a7 97       	sbiw	r28, 0x27	; 39
    4b76:	a0 96       	adiw	r28, 0x20	; 32
    4b78:	8f ad       	ldd	r24, Y+63	; 0x3f
    4b7a:	a0 97       	sbiw	r28, 0x20	; 32
    4b7c:	8b 29       	or	r24, r11
    4b7e:	a8 96       	adiw	r28, 0x28	; 40
    4b80:	8f af       	std	Y+63, r24	; 0x3f
    4b82:	a8 97       	sbiw	r28, 0x28	; 40
    4b84:	a1 96       	adiw	r28, 0x21	; 33
    4b86:	9f ad       	ldd	r25, Y+63	; 0x3f
    4b88:	a1 97       	sbiw	r28, 0x21	; 33
    4b8a:	9c 29       	or	r25, r12
    4b8c:	a9 96       	adiw	r28, 0x29	; 41
    4b8e:	9f af       	std	Y+63, r25	; 0x3f
    4b90:	a9 97       	sbiw	r28, 0x29	; 41
    4b92:	a2 96       	adiw	r28, 0x22	; 34
    4b94:	af ad       	ldd	r26, Y+63	; 0x3f
    4b96:	a2 97       	sbiw	r28, 0x22	; 34
    4b98:	ad 29       	or	r26, r13
    4b9a:	aa 96       	adiw	r28, 0x2a	; 42
    4b9c:	af af       	std	Y+63, r26	; 0x3f
    4b9e:	aa 97       	sbiw	r28, 0x2a	; 42
    4ba0:	a3 96       	adiw	r28, 0x23	; 35
    4ba2:	bf ad       	ldd	r27, Y+63	; 0x3f
    4ba4:	a3 97       	sbiw	r28, 0x23	; 35
    4ba6:	be 29       	or	r27, r14
    4ba8:	ab 96       	adiw	r28, 0x2b	; 43
    4baa:	bf af       	std	Y+63, r27	; 0x3f
    4bac:	ab 97       	sbiw	r28, 0x2b	; 43
    4bae:	a4 96       	adiw	r28, 0x24	; 36
    4bb0:	ef ad       	ldd	r30, Y+63	; 0x3f
    4bb2:	a4 97       	sbiw	r28, 0x24	; 36
    4bb4:	ef 29       	or	r30, r15
    4bb6:	ac 96       	adiw	r28, 0x2c	; 44
    4bb8:	ef af       	std	Y+63, r30	; 0x3f
    4bba:	ac 97       	sbiw	r28, 0x2c	; 44
    4bbc:	a5 96       	adiw	r28, 0x25	; 37
    4bbe:	ff ad       	ldd	r31, Y+63	; 0x3f
    4bc0:	a5 97       	sbiw	r28, 0x25	; 37
    4bc2:	f0 2b       	or	r31, r16
    4bc4:	ad 96       	adiw	r28, 0x2d	; 45
    4bc6:	ff af       	std	Y+63, r31	; 0x3f
    4bc8:	ad 97       	sbiw	r28, 0x2d	; 45
    4bca:	a6 96       	adiw	r28, 0x26	; 38
    4bcc:	2f ad       	ldd	r18, Y+63	; 0x3f
    4bce:	a6 97       	sbiw	r28, 0x26	; 38
    4bd0:	21 2b       	or	r18, r17
    4bd2:	ae 96       	adiw	r28, 0x2e	; 46
    4bd4:	2f af       	std	Y+63, r18	; 0x3f
    4bd6:	ae 97       	sbiw	r28, 0x2e	; 46
    4bd8:	aa 24       	eor	r10, r10
    4bda:	bb 24       	eor	r11, r11
    4bdc:	cc 24       	eor	r12, r12
    4bde:	dd 24       	eor	r13, r13
    4be0:	ee 24       	eor	r14, r14
    4be2:	ff 24       	eor	r15, r15
    4be4:	00 e1       	ldi	r16, 0x10	; 16
    4be6:	23 2d       	mov	r18, r3
    4be8:	39 2d       	mov	r19, r9
    4bea:	4a 2d       	mov	r20, r10
    4bec:	5b 2d       	mov	r21, r11
    4bee:	6c 2d       	mov	r22, r12
    4bf0:	7d 2d       	mov	r23, r13
    4bf2:	8e 2d       	mov	r24, r14
    4bf4:	9f 2d       	mov	r25, r15
    4bf6:	0e 94 42 37 	call	0x6e84	; 0x0x6e84
    4bfa:	a7 96       	adiw	r28, 0x27	; 39
    4bfc:	2f ac       	ldd	r2, Y+63	; 0x3f
    4bfe:	a7 97       	sbiw	r28, 0x27	; 39
    4c00:	22 2a       	or	r2, r18
    4c02:	a8 96       	adiw	r28, 0x28	; 40
    4c04:	3f ac       	ldd	r3, Y+63	; 0x3f
    4c06:	a8 97       	sbiw	r28, 0x28	; 40
    4c08:	33 2a       	or	r3, r19
    4c0a:	a9 96       	adiw	r28, 0x29	; 41
    4c0c:	4f ac       	ldd	r4, Y+63	; 0x3f
    4c0e:	a9 97       	sbiw	r28, 0x29	; 41
    4c10:	44 2a       	or	r4, r20
    4c12:	aa 96       	adiw	r28, 0x2a	; 42
    4c14:	5f ac       	ldd	r5, Y+63	; 0x3f
    4c16:	aa 97       	sbiw	r28, 0x2a	; 42
    4c18:	55 2a       	or	r5, r21
    4c1a:	ab 96       	adiw	r28, 0x2b	; 43
    4c1c:	6f ac       	ldd	r6, Y+63	; 0x3f
    4c1e:	ab 97       	sbiw	r28, 0x2b	; 43
    4c20:	66 2a       	or	r6, r22
    4c22:	ac 96       	adiw	r28, 0x2c	; 44
    4c24:	7f ac       	ldd	r7, Y+63	; 0x3f
    4c26:	ac 97       	sbiw	r28, 0x2c	; 44
    4c28:	77 2a       	or	r7, r23
    4c2a:	ad 96       	adiw	r28, 0x2d	; 45
    4c2c:	8f ac       	ldd	r8, Y+63	; 0x3f
    4c2e:	ad 97       	sbiw	r28, 0x2d	; 45
    4c30:	88 2a       	or	r8, r24
    4c32:	ae 96       	adiw	r28, 0x2e	; 46
    4c34:	9f ac       	ldd	r9, Y+63	; 0x3f
    4c36:	ae 97       	sbiw	r28, 0x2e	; 46
    4c38:	99 2a       	or	r9, r25
    4c3a:	2a 8d       	ldd	r18, Y+26	; 0x1a
    4c3c:	30 e0       	ldi	r19, 0x00	; 0
    4c3e:	40 e0       	ldi	r20, 0x00	; 0
    4c40:	50 e0       	ldi	r21, 0x00	; 0
    4c42:	60 e0       	ldi	r22, 0x00	; 0
    4c44:	70 e0       	ldi	r23, 0x00	; 0
    4c46:	80 e0       	ldi	r24, 0x00	; 0
    4c48:	90 e0       	ldi	r25, 0x00	; 0
    4c4a:	a2 2c       	mov	r10, r2
    4c4c:	a2 2a       	or	r10, r18
    4c4e:	b3 2c       	mov	r11, r3
    4c50:	b3 2a       	or	r11, r19
    4c52:	c4 2c       	mov	r12, r4
    4c54:	c4 2a       	or	r12, r20
    4c56:	d5 2c       	mov	r13, r5
    4c58:	d5 2a       	or	r13, r21
    4c5a:	e6 2c       	mov	r14, r6
    4c5c:	e6 2a       	or	r14, r22
    4c5e:	f7 2c       	mov	r15, r7
    4c60:	f7 2a       	or	r15, r23
    4c62:	08 2d       	mov	r16, r8
    4c64:	08 2b       	or	r16, r24
    4c66:	19 2d       	mov	r17, r9
    4c68:	19 2b       	or	r17, r25
    4c6a:	67 96       	adiw	r28, 0x17	; 23
    4c6c:	2f ad       	ldd	r18, Y+63	; 0x3f
    4c6e:	67 97       	sbiw	r28, 0x17	; 23
    4c70:	2a 29       	or	r18, r10
    4c72:	68 96       	adiw	r28, 0x18	; 24
    4c74:	3f ad       	ldd	r19, Y+63	; 0x3f
    4c76:	68 97       	sbiw	r28, 0x18	; 24
    4c78:	3b 29       	or	r19, r11
    4c7a:	69 96       	adiw	r28, 0x19	; 25
    4c7c:	4f ad       	ldd	r20, Y+63	; 0x3f
    4c7e:	69 97       	sbiw	r28, 0x19	; 25
    4c80:	4c 29       	or	r20, r12
    4c82:	6a 96       	adiw	r28, 0x1a	; 26
    4c84:	5f ad       	ldd	r21, Y+63	; 0x3f
    4c86:	6a 97       	sbiw	r28, 0x1a	; 26
    4c88:	5d 29       	or	r21, r13
    4c8a:	6b 96       	adiw	r28, 0x1b	; 27
    4c8c:	6f ad       	ldd	r22, Y+63	; 0x3f
    4c8e:	6b 97       	sbiw	r28, 0x1b	; 27
    4c90:	6e 29       	or	r22, r14
    4c92:	6c 96       	adiw	r28, 0x1c	; 28
    4c94:	7f ad       	ldd	r23, Y+63	; 0x3f
    4c96:	6c 97       	sbiw	r28, 0x1c	; 28
    4c98:	7f 29       	or	r23, r15
    4c9a:	6d 96       	adiw	r28, 0x1d	; 29
    4c9c:	8f ad       	ldd	r24, Y+63	; 0x3f
    4c9e:	6d 97       	sbiw	r28, 0x1d	; 29
    4ca0:	80 2b       	or	r24, r16
    4ca2:	6e 96       	adiw	r28, 0x1e	; 30
    4ca4:	9f ad       	ldd	r25, Y+63	; 0x3f
    4ca6:	6e 97       	sbiw	r28, 0x1e	; 30
    4ca8:	91 2b       	or	r25, r17
    4caa:	29 38       	cpi	r18, 0x89	; 137
    4cac:	71 f4       	brne	.+28     	; 0x0x4cca
    4cae:	31 34       	cpi	r19, 0x41	; 65
    4cb0:	61 f4       	brne	.+24     	; 0x0x4cca
    4cb2:	43 3e       	cpi	r20, 0xE3	; 227
    4cb4:	51 f4       	brne	.+20     	; 0x0x4cca
    4cb6:	56 39       	cpi	r21, 0x96	; 150
    4cb8:	41 f4       	brne	.+16     	; 0x0x4cca
    4cba:	62 32       	cpi	r22, 0x22	; 34
    4cbc:	31 f4       	brne	.+12     	; 0x0x4cca
    4cbe:	7e 3b       	cpi	r23, 0xBE	; 190
    4cc0:	21 f4       	brne	.+8      	; 0x0x4cca
    4cc2:	8b 32       	cpi	r24, 0x2B	; 43
    4cc4:	11 f4       	brne	.+4      	; 0x0x4cca
    4cc6:	95 35       	cpi	r25, 0x55	; 85
    4cc8:	79 f0       	breq	.+30     	; 0x0x4ce8
    4cca:	8b 89       	ldd	r24, Y+19	; 0x13
    4ccc:	9c 89       	ldd	r25, Y+20	; 0x14
    4cce:	ad 89       	ldd	r26, Y+21	; 0x15
    4cd0:	be 89       	ldd	r27, Y+22	; 0x16
    4cd2:	80 55       	subi	r24, 0x50	; 80
    4cd4:	93 4c       	sbci	r25, 0xC3	; 195
    4cd6:	a0 40       	sbci	r26, 0x00	; 0
    4cd8:	b0 40       	sbci	r27, 0x00	; 0
    4cda:	30 f4       	brcc	.+12     	; 0x0x4ce8
    4cdc:	8f b7       	in	r24, 0x3f	; 63
    4cde:	f8 94       	cli
    4ce0:	99 27       	eor	r25, r25
    4ce2:	2b b3       	in	r18, 0x1b	; 27
    4ce4:	34 e0       	ldi	r19, 0x04	; 4
    4ce6:	05 c0       	rjmp	.+10     	; 0x0x4cf2
    4ce8:	8f b7       	in	r24, 0x3f	; 63
    4cea:	f8 94       	cli
    4cec:	99 27       	eor	r25, r25
    4cee:	2b b3       	in	r18, 0x1b	; 27
    4cf0:	32 e0       	ldi	r19, 0x02	; 2
    4cf2:	23 27       	eor	r18, r19
    4cf4:	2b bb       	out	0x1b, r18	; 27
    4cf6:	8f bf       	out	0x3f, r24	; 63
    4cf8:	10 92 0c 01 	sts	0x010C, r1
    4cfc:	3f b7       	in	r19, 0x3f	; 63
    4cfe:	f8 94       	cli
    4d00:	4b 8d       	ldd	r20, Y+27	; 0x1b
    4d02:	5c 8d       	ldd	r21, Y+28	; 0x1c
    4d04:	41 15       	cp	r20, r1
    4d06:	51 05       	cpc	r21, r1
    4d08:	21 f0       	breq	.+8      	; 0x0x4d12
    4d0a:	50 93 03 01 	sts	0x0103, r21
    4d0e:	40 93 02 01 	sts	0x0102, r20
    4d12:	80 91 91 01 	lds	r24, 0x0191
    4d16:	85 30       	cpi	r24, 0x05	; 5
    4d18:	39 f4       	brne	.+14     	; 0x0x4d28
    4d1a:	82 e0       	ldi	r24, 0x02	; 2
    4d1c:	80 93 91 01 	sts	0x0191, r24
    4d20:	10 92 8c 01 	sts	0x018C, r1
    4d24:	10 92 8b 01 	sts	0x018B, r1
    4d28:	20 91 0d 01 	lds	r18, 0x010D
    4d2c:	22 30       	cpi	r18, 0x02	; 2
    4d2e:	09 f0       	breq	.+2      	; 0x0x4d32
    4d30:	8d c0       	rjmp	.+282    	; 0x0x4e4c
    4d32:	80 91 04 01 	lds	r24, 0x0104
    4d36:	84 30       	cpi	r24, 0x04	; 4
    4d38:	19 f0       	breq	.+6      	; 0x0x4d40
    4d3a:	85 e0       	ldi	r24, 0x05	; 5
    4d3c:	80 93 04 01 	sts	0x0104, r24
    4d40:	81 e0       	ldi	r24, 0x01	; 1
    4d42:	80 93 0d 01 	sts	0x010D, r24
    4d46:	9f b7       	in	r25, 0x3f	; 63
    4d48:	f8 94       	cli
    4d4a:	80 91 cd 01 	lds	r24, 0x01CD
    4d4e:	8f 3f       	cpi	r24, 0xFF	; 255
    4d50:	a1 f4       	brne	.+40     	; 0x0x4d7a
    4d52:	80 91 d9 01 	lds	r24, 0x01D9
    4d56:	82 30       	cpi	r24, 0x02	; 2
    4d58:	09 f0       	breq	.+2      	; 0x0x4d5c
    4d5a:	61 c3       	rjmp	.+1730   	; 0x0x541e
    4d5c:	0e c0       	rjmp	.+28     	; 0x0x4d7a
    4d5e:	82 e0       	ldi	r24, 0x02	; 2
    4d60:	80 93 ca 01 	sts	0x01CA, r24
    4d64:	80 93 d9 01 	sts	0x01D9, r24
    4d68:	08 c0       	rjmp	.+16     	; 0x0x4d7a
    4d6a:	e0 91 d9 01 	lds	r30, 0x01D9
    4d6e:	ff 27       	eor	r31, r31
    4d70:	e5 53       	subi	r30, 0x35	; 53
    4d72:	fe 4f       	sbci	r31, 0xFE	; 254
    4d74:	20 83       	st	Z, r18
    4d76:	20 93 d9 01 	sts	0x01D9, r18
    4d7a:	89 2f       	mov	r24, r25
    4d7c:	99 27       	eor	r25, r25
    4d7e:	8f bf       	out	0x3f, r24	; 63
    4d80:	65 c0       	rjmp	.+202    	; 0x0x4e4c
    4d82:	2f b7       	in	r18, 0x3f	; 63
    4d84:	f8 94       	cli
    4d86:	33 27       	eor	r19, r19
    4d88:	80 91 8e 01 	lds	r24, 0x018E
    4d8c:	80 93 07 01 	sts	0x0107, r24
    4d90:	83 e0       	ldi	r24, 0x03	; 3
    4d92:	80 93 0f 01 	sts	0x010F, r24
    4d96:	2f bf       	out	0x3f, r18	; 63
    4d98:	80 91 07 01 	lds	r24, 0x0107
    4d9c:	88 23       	and	r24, r24
    4d9e:	11 f0       	breq	.+4      	; 0x0x4da4
    4da0:	0c 94 a5 18 	jmp	0x314a	; 0x0x314a
    4da4:	82 e0       	ldi	r24, 0x02	; 2
    4da6:	80 93 b3 01 	sts	0x01B3, r24
    4daa:	10 92 ba 01 	sts	0x01BA, r1
    4dae:	3f b7       	in	r19, 0x3f	; 63
    4db0:	f8 94       	cli
    4db2:	90 91 d7 01 	lds	r25, 0x01D7
    4db6:	89 2f       	mov	r24, r25
    4db8:	8e 7f       	andi	r24, 0xFE	; 254
    4dba:	80 93 d7 01 	sts	0x01D7, r24
    4dbe:	87 b1       	in	r24, 0x07	; 7
    4dc0:	20 e0       	ldi	r18, 0x00	; 0
    4dc2:	82 95       	swap	r24
    4dc4:	86 95       	lsr	r24
    4dc6:	86 95       	lsr	r24
    4dc8:	83 70       	andi	r24, 0x03	; 3
    4dca:	09 f0       	breq	.+2      	; 0x0x4dce
    4dcc:	21 e0       	ldi	r18, 0x01	; 1
    4dce:	81 e0       	ldi	r24, 0x01	; 1
    4dd0:	28 27       	eor	r18, r24
    4dd2:	22 0f       	add	r18, r18
    4dd4:	9c 7f       	andi	r25, 0xFC	; 252
    4dd6:	92 2b       	or	r25, r18
    4dd8:	93 78       	andi	r25, 0x83	; 131
    4dda:	90 93 d7 01 	sts	0x01D7, r25
    4dde:	1c a6       	std	Y+44, r1	; 0x2c
    4de0:	50 e0       	ldi	r21, 0x00	; 0
    4de2:	85 2f       	mov	r24, r21
    4de4:	99 27       	eor	r25, r25
    4de6:	87 b9       	out	0x07, r24	; 7
    4de8:	80 91 97 01 	lds	r24, 0x0197
    4dec:	90 91 98 01 	lds	r25, 0x0198
    4df0:	a1 e0       	ldi	r26, 0x01	; 1
    4df2:	86 38       	cpi	r24, 0x86	; 134
    4df4:	9a 07       	cpc	r25, r26
    4df6:	18 f0       	brcs	.+6      	; 0x0x4dfe
    4df8:	87 e0       	ldi	r24, 0x07	; 7
    4dfa:	90 e0       	ldi	r25, 0x00	; 0
    4dfc:	1f c0       	rjmp	.+62     	; 0x0x4e3c
    4dfe:	83 3c       	cpi	r24, 0xC3	; 195
    4e00:	91 05       	cpc	r25, r1
    4e02:	18 f0       	brcs	.+6      	; 0x0x4e0a
    4e04:	86 e0       	ldi	r24, 0x06	; 6
    4e06:	90 e0       	ldi	r25, 0x00	; 0
    4e08:	19 c0       	rjmp	.+50     	; 0x0x4e3c
    4e0a:	81 36       	cpi	r24, 0x61	; 97
    4e0c:	91 05       	cpc	r25, r1
    4e0e:	18 f0       	brcs	.+6      	; 0x0x4e16
    4e10:	85 e0       	ldi	r24, 0x05	; 5
    4e12:	90 e0       	ldi	r25, 0x00	; 0
    4e14:	13 c0       	rjmp	.+38     	; 0x0x4e3c
    4e16:	80 33       	cpi	r24, 0x30	; 48
    4e18:	91 05       	cpc	r25, r1
    4e1a:	18 f0       	brcs	.+6      	; 0x0x4e22
    4e1c:	84 e0       	ldi	r24, 0x04	; 4
    4e1e:	90 e0       	ldi	r25, 0x00	; 0
    4e20:	0d c0       	rjmp	.+26     	; 0x0x4e3c
    4e22:	88 31       	cpi	r24, 0x18	; 24
    4e24:	91 05       	cpc	r25, r1
    4e26:	18 f0       	brcs	.+6      	; 0x0x4e2e
    4e28:	83 e0       	ldi	r24, 0x03	; 3
    4e2a:	90 e0       	ldi	r25, 0x00	; 0
    4e2c:	07 c0       	rjmp	.+14     	; 0x0x4e3c
    4e2e:	0c 97       	sbiw	r24, 0x0c	; 12
    4e30:	18 f0       	brcs	.+6      	; 0x0x4e38
    4e32:	82 e0       	ldi	r24, 0x02	; 2
    4e34:	90 e0       	ldi	r25, 0x00	; 0
    4e36:	02 c0       	rjmp	.+4      	; 0x0x4e3c
    4e38:	80 e0       	ldi	r24, 0x00	; 0
    4e3a:	90 e0       	ldi	r25, 0x00	; 0
    4e3c:	87 70       	andi	r24, 0x07	; 7
    4e3e:	bd a5       	ldd	r27, Y+45	; 0x2d
    4e40:	b8 7d       	andi	r27, 0xD8	; 216
    4e42:	8b 2b       	or	r24, r27
    4e44:	88 6d       	ori	r24, 0xD8	; 216
    4e46:	8d a7       	std	Y+45, r24	; 0x2d
    4e48:	99 27       	eor	r25, r25
    4e4a:	86 b9       	out	0x06, r24	; 6
    4e4c:	83 2f       	mov	r24, r19
    4e4e:	99 27       	eor	r25, r25
    4e50:	0c 94 a4 18 	jmp	0x3148	; 0x0x3148
    4e54:	10 92 b3 01 	sts	0x01B3, r1
    4e58:	0c 94 a5 18 	jmp	0x314a	; 0x0x314a
    4e5c:	21 e0       	ldi	r18, 0x01	; 1
    4e5e:	e0 e5       	ldi	r30, 0x50	; 80
    4e60:	f1 e0       	ldi	r31, 0x01	; 1
    4e62:	90 91 c9 01 	lds	r25, 0x01C9
    4e66:	82 2f       	mov	r24, r18
    4e68:	89 23       	and	r24, r25
    4e6a:	39 f0       	breq	.+14     	; 0x0x4e7a
    4e6c:	11 82       	std	Z+1, r1	; 0x01
    4e6e:	10 82       	st	Z, r1
    4e70:	82 2f       	mov	r24, r18
    4e72:	80 95       	com	r24
    4e74:	98 23       	and	r25, r24
    4e76:	90 93 c9 01 	sts	0x01C9, r25
    4e7a:	32 96       	adiw	r30, 0x02	; 2
    4e7c:	31 e0       	ldi	r19, 0x01	; 1
    4e7e:	e0 36       	cpi	r30, 0x60	; 96
    4e80:	f3 07       	cpc	r31, r19
    4e82:	11 f4       	brne	.+4      	; 0x0x4e88
    4e84:	0c 94 a5 18 	jmp	0x314a	; 0x0x314a
    4e88:	22 0f       	add	r18, r18
    4e8a:	eb cf       	rjmp	.-42     	; 0x0x4e62
    4e8c:	e0 91 0a 01 	lds	r30, 0x010A
    4e90:	ff 27       	eor	r31, r31
    4e92:	ee 0f       	add	r30, r30
    4e94:	ff 1f       	adc	r31, r31
    4e96:	e0 5b       	subi	r30, 0xB0	; 176
    4e98:	fe 4f       	sbci	r31, 0xFE	; 254
    4e9a:	11 82       	std	Z+1, r1	; 0x01
    4e9c:	10 82       	st	Z, r1
    4e9e:	10 92 0a 01 	sts	0x010A, r1
    4ea2:	40 91 50 01 	lds	r20, 0x0150
    4ea6:	50 91 51 01 	lds	r21, 0x0151
    4eaa:	58 8f       	std	Y+24, r21	; 0x18
    4eac:	4f 8b       	std	Y+23, r20	; 0x17
    4eae:	45 2b       	or	r20, r21
    4eb0:	21 f0       	breq	.+8      	; 0x0x4eba
    4eb2:	80 91 c9 01 	lds	r24, 0x01C9
    4eb6:	80 ff       	sbrs	r24, 0
    4eb8:	d0 c2       	rjmp	.+1440   	; 0x0x545a
    4eba:	81 e0       	ldi	r24, 0x01	; 1
    4ebc:	80 93 0a 01 	sts	0x010A, r24
    4ec0:	0c 94 a5 18 	jmp	0x314a	; 0x0x314a
    4ec4:	80 91 91 01 	lds	r24, 0x0191
    4ec8:	88 23       	and	r24, r24
    4eca:	51 f4       	brne	.+20     	; 0x0x4ee0
    4ecc:	9f bf       	out	0x3f, r25	; 63
    4ece:	9f b7       	in	r25, 0x3f	; 63
    4ed0:	f8 94       	cli
    4ed2:	80 91 d6 01 	lds	r24, 0x01D6
    4ed6:	8f 3f       	cpi	r24, 0xFF	; 255
    4ed8:	11 f0       	breq	.+4      	; 0x0x4ede
    4eda:	0c 94 a2 18 	jmp	0x3144	; 0x0x3144
    4ede:	da c0       	rjmp	.+436    	; 0x0x5094
    4ee0:	80 91 dd 01 	lds	r24, 0x01DD
    4ee4:	82 60       	ori	r24, 0x02	; 2
    4ee6:	80 93 dd 01 	sts	0x01DD, r24
    4eea:	ef 89       	ldd	r30, Y+23	; 0x17
    4eec:	f8 8d       	ldd	r31, Y+24	; 0x18
    4eee:	44 83       	std	Z+4, r20	; 0x04
    4ef0:	f0 93 5a 01 	sts	0x015A, r31
    4ef4:	e0 93 59 01 	sts	0x0159, r30
    4ef8:	9f bf       	out	0x3f, r25	; 63
    4efa:	ff b7       	in	r31, 0x3f	; 63
    4efc:	f9 8f       	std	Y+25, r31	; 0x19
    4efe:	f8 94       	cli
    4f00:	80 91 94 01 	lds	r24, 0x0194
    4f04:	82 60       	ori	r24, 0x02	; 2
    4f06:	80 93 94 01 	sts	0x0194, r24
    4f0a:	20 91 0d 01 	lds	r18, 0x010D
    4f0e:	24 30       	cpi	r18, 0x04	; 4
    4f10:	e9 f4       	brne	.+58     	; 0x0x4f4c
    4f12:	9f b7       	in	r25, 0x3f	; 63
    4f14:	f8 94       	cli
    4f16:	80 91 cf 01 	lds	r24, 0x01CF
    4f1a:	8f 3f       	cpi	r24, 0xFF	; 255
    4f1c:	a1 f4       	brne	.+40     	; 0x0x4f46
    4f1e:	80 91 d9 01 	lds	r24, 0x01D9
    4f22:	84 30       	cpi	r24, 0x04	; 4
    4f24:	09 f0       	breq	.+2      	; 0x0x4f28
    4f26:	81 c2       	rjmp	.+1282   	; 0x0x542a
    4f28:	0e c0       	rjmp	.+28     	; 0x0x4f46
    4f2a:	84 e0       	ldi	r24, 0x04	; 4
    4f2c:	80 93 ca 01 	sts	0x01CA, r24
    4f30:	80 93 d9 01 	sts	0x01D9, r24
    4f34:	08 c0       	rjmp	.+16     	; 0x0x4f46
    4f36:	e0 91 d9 01 	lds	r30, 0x01D9
    4f3a:	ff 27       	eor	r31, r31
    4f3c:	e5 53       	subi	r30, 0x35	; 53
    4f3e:	fe 4f       	sbci	r31, 0xFE	; 254
    4f40:	20 83       	st	Z, r18
    4f42:	20 93 d9 01 	sts	0x01D9, r18
    4f46:	89 2f       	mov	r24, r25
    4f48:	99 27       	eor	r25, r25
    4f4a:	8f bf       	out	0x3f, r24	; 63
    4f4c:	80 91 94 01 	lds	r24, 0x0194
    4f50:	80 fd       	sbrc	r24, 0
    4f52:	60 c0       	rjmp	.+192    	; 0x0x5014
    4f54:	20 90 87 01 	lds	r2, 0x0187
    4f58:	30 90 88 01 	lds	r3, 0x0188
    4f5c:	40 90 89 01 	lds	r4, 0x0189
    4f60:	50 90 8a 01 	lds	r5, 0x018A
    4f64:	66 24       	eor	r6, r6
    4f66:	77 24       	eor	r7, r7
    4f68:	88 24       	eor	r8, r8
    4f6a:	6e e4       	ldi	r22, 0x4E	; 78
    4f6c:	a6 2e       	mov	r10, r22
    4f6e:	53 e8       	ldi	r21, 0x83	; 131
    4f70:	b5 2e       	mov	r11, r21
    4f72:	cc 24       	eor	r12, r12
    4f74:	dd 24       	eor	r13, r13
    4f76:	ee 24       	eor	r14, r14
    4f78:	ff 24       	eor	r15, r15
    4f7a:	00 e0       	ldi	r16, 0x00	; 0
    4f7c:	10 e0       	ldi	r17, 0x00	; 0
    4f7e:	22 2d       	mov	r18, r2
    4f80:	33 2d       	mov	r19, r3
    4f82:	44 2d       	mov	r20, r4
    4f84:	55 2d       	mov	r21, r5
    4f86:	66 2d       	mov	r22, r6
    4f88:	77 2d       	mov	r23, r7
    4f8a:	88 2d       	mov	r24, r8
    4f8c:	90 e0       	ldi	r25, 0x00	; 0
    4f8e:	0e 94 c1 35 	call	0x6b82	; 0x0x6b82
    4f92:	af 96       	adiw	r28, 0x2f	; 47
    4f94:	2f af       	std	Y+63, r18	; 0x3f
    4f96:	af 97       	sbiw	r28, 0x2f	; 47
    4f98:	e0 96       	adiw	r28, 0x30	; 48
    4f9a:	3f af       	std	Y+63, r19	; 0x3f
    4f9c:	e0 97       	sbiw	r28, 0x30	; 48
    4f9e:	e1 96       	adiw	r28, 0x31	; 49
    4fa0:	4f af       	std	Y+63, r20	; 0x3f
    4fa2:	e1 97       	sbiw	r28, 0x31	; 49
    4fa4:	e2 96       	adiw	r28, 0x32	; 50
    4fa6:	5f af       	std	Y+63, r21	; 0x3f
    4fa8:	e2 97       	sbiw	r28, 0x32	; 50
    4faa:	e3 96       	adiw	r28, 0x33	; 51
    4fac:	6f af       	std	Y+63, r22	; 0x3f
    4fae:	e3 97       	sbiw	r28, 0x33	; 51
    4fb0:	e4 96       	adiw	r28, 0x34	; 52
    4fb2:	7f af       	std	Y+63, r23	; 0x3f
    4fb4:	e4 97       	sbiw	r28, 0x34	; 52
    4fb6:	e5 96       	adiw	r28, 0x35	; 53
    4fb8:	8f af       	std	Y+63, r24	; 0x3f
    4fba:	e5 97       	sbiw	r28, 0x35	; 53
    4fbc:	e6 96       	adiw	r28, 0x36	; 54
    4fbe:	9f af       	std	Y+63, r25	; 0x3f
    4fc0:	e6 97       	sbiw	r28, 0x36	; 54
    4fc2:	82 2e       	mov	r8, r18
    4fc4:	93 2e       	mov	r9, r19
    4fc6:	a4 2e       	mov	r10, r20
    4fc8:	b5 2e       	mov	r11, r21
    4fca:	24 01       	movw	r4, r8
    4fcc:	35 01       	movw	r6, r10
    4fce:	00 e2       	ldi	r16, 0x20	; 32
    4fd0:	0e 94 bf 36 	call	0x6d7e	; 0x0x6d7e
    4fd4:	a2 2e       	mov	r10, r18
    4fd6:	b3 2e       	mov	r11, r19
    4fd8:	c4 2e       	mov	r12, r20
    4fda:	d5 2e       	mov	r13, r21
    4fdc:	d3 01       	movw	r26, r6
    4fde:	c2 01       	movw	r24, r4
    4fe0:	b6 95       	lsr	r27
    4fe2:	a7 95       	ror	r26
    4fe4:	97 95       	ror	r25
    4fe6:	87 95       	ror	r24
    4fe8:	8a 0d       	add	r24, r10
    4fea:	9b 1d       	adc	r25, r11
    4fec:	ac 1d       	adc	r26, r12
    4fee:	bd 1d       	adc	r27, r13
    4ff0:	b7 ff       	sbrs	r27, 7
    4ff2:	04 c0       	rjmp	.+8      	; 0x0x4ffc
    4ff4:	bf 77       	andi	r27, 0x7F	; 127
    4ff6:	01 96       	adiw	r24, 0x01	; 1
    4ff8:	a1 1d       	adc	r26, r1
    4ffa:	b1 1d       	adc	r27, r1
    4ffc:	80 93 87 01 	sts	0x0187, r24
    5000:	90 93 88 01 	sts	0x0188, r25
    5004:	a0 93 89 01 	sts	0x0189, r26
    5008:	b0 93 8a 01 	sts	0x018A, r27
    500c:	8f 71       	andi	r24, 0x1F	; 31
    500e:	90 70       	andi	r25, 0x00	; 0
    5010:	01 96       	adiw	r24, 0x01	; 1
    5012:	02 c0       	rjmp	.+4      	; 0x0x5018
    5014:	81 e0       	ldi	r24, 0x01	; 1
    5016:	90 e0       	ldi	r25, 0x00	; 0
    5018:	90 93 b9 01 	sts	0x01B9, r25
    501c:	80 93 b8 01 	sts	0x01B8, r24
    5020:	af 89       	ldd	r26, Y+23	; 0x17
    5022:	b8 8d       	ldd	r27, Y+24	; 0x18
    5024:	95 96       	adiw	r26, 0x25	; 37
    5026:	ef 89       	ldd	r30, Y+23	; 0x17
    5028:	f8 8d       	ldd	r31, Y+24	; 0x18
    502a:	85 a1       	ldd	r24, Z+37	; 0x25
    502c:	26 a1       	ldd	r18, Z+38	; 0x26
    502e:	99 27       	eor	r25, r25
    5030:	78 2f       	mov	r23, r24
    5032:	66 27       	eor	r22, r22
    5034:	33 27       	eor	r19, r19
    5036:	62 2b       	or	r22, r18
    5038:	73 2b       	or	r23, r19
    503a:	77 fd       	sbrc	r23, 7
    503c:	05 c0       	rjmp	.+10     	; 0x0x5048
    503e:	60 91 53 01 	lds	r22, 0x0153
    5042:	70 91 54 01 	lds	r23, 0x0154
    5046:	02 c0       	rjmp	.+4      	; 0x0x504c
    5048:	60 95       	com	r22
    504a:	70 95       	com	r23
    504c:	fd 01       	movw	r30, r26
    504e:	11 82       	std	Z+1, r1	; 0x01
    5050:	1c 92       	st	X, r1
    5052:	61 15       	cp	r22, r1
    5054:	71 05       	cpc	r23, r1
    5056:	29 f4       	brne	.+10     	; 0x0x5062
    5058:	66 e0       	ldi	r22, 0x06	; 6
    505a:	70 e0       	ldi	r23, 0x00	; 0
    505c:	80 e0       	ldi	r24, 0x00	; 0
    505e:	90 e0       	ldi	r25, 0x00	; 0
    5060:	10 c0       	rjmp	.+32     	; 0x0x5082
    5062:	88 27       	eor	r24, r24
    5064:	99 27       	eor	r25, r25
    5066:	26 e6       	ldi	r18, 0x66	; 102
    5068:	32 e0       	ldi	r19, 0x02	; 2
    506a:	40 e0       	ldi	r20, 0x00	; 0
    506c:	50 e0       	ldi	r21, 0x00	; 0
    506e:	0e 94 cc 37 	call	0x6f98	; 0x0x6f98
    5072:	67 2f       	mov	r22, r23
    5074:	78 2f       	mov	r23, r24
    5076:	89 2f       	mov	r24, r25
    5078:	99 27       	eor	r25, r25
    507a:	6a 5e       	subi	r22, 0xEA	; 234
    507c:	7f 4f       	sbci	r23, 0xFF	; 255
    507e:	8f 4f       	sbci	r24, 0xFF	; 255
    5080:	9f 4f       	sbci	r25, 0xFF	; 255
    5082:	70 93 b0 01 	sts	0x01B0, r23
    5086:	60 93 af 01 	sts	0x01AF, r22
    508a:	f9 8d       	ldd	r31, Y+25	; 0x19
    508c:	8f 2f       	mov	r24, r31
    508e:	99 27       	eor	r25, r25
    5090:	0c 94 a4 18 	jmp	0x3148	; 0x0x3148
    5094:	80 91 d9 01 	lds	r24, 0x01D9
    5098:	8b 30       	cpi	r24, 0x0B	; 11
    509a:	09 f0       	breq	.+2      	; 0x0x509e
    509c:	cc c1       	rjmp	.+920    	; 0x0x5436
    509e:	0c 94 a2 18 	jmp	0x3144	; 0x0x3144
    50a2:	8b e0       	ldi	r24, 0x0B	; 11
    50a4:	80 93 ca 01 	sts	0x01CA, r24
    50a8:	07 c0       	rjmp	.+14     	; 0x0x50b8
    50aa:	e0 91 d9 01 	lds	r30, 0x01D9
    50ae:	ff 27       	eor	r31, r31
    50b0:	e5 53       	subi	r30, 0x35	; 53
    50b2:	fe 4f       	sbci	r31, 0xFE	; 254
    50b4:	8b e0       	ldi	r24, 0x0B	; 11
    50b6:	80 83       	st	Z, r24
    50b8:	80 93 d9 01 	sts	0x01D9, r24
    50bc:	0c 94 a2 18 	jmp	0x3144	; 0x0x3144
    50c0:	2f a1       	ldd	r18, Y+39	; 0x27
    50c2:	82 2f       	mov	r24, r18
    50c4:	99 27       	eor	r25, r25
    50c6:	8f bf       	out	0x3f, r24	; 63
    50c8:	78 94       	sei
    50ca:	8f b7       	in	r24, 0x3f	; 63
    50cc:	f8 94       	cli
    50ce:	28 2f       	mov	r18, r24
    50d0:	33 27       	eor	r19, r19
    50d2:	42 2f       	mov	r20, r18
    50d4:	80 91 0d 01 	lds	r24, 0x010D
    50d8:	88 23       	and	r24, r24
    50da:	09 f0       	breq	.+2      	; 0x0x50de
    50dc:	77 c0       	rjmp	.+238    	; 0x0x51cc
    50de:	91 e0       	ldi	r25, 0x01	; 1
    50e0:	90 93 91 01 	sts	0x0191, r25
    50e4:	80 91 dd 01 	lds	r24, 0x01DD
    50e8:	8d 7f       	andi	r24, 0xFD	; 253
    50ea:	84 60       	ori	r24, 0x04	; 4
    50ec:	80 93 dd 01 	sts	0x01DD, r24
    50f0:	80 91 04 01 	lds	r24, 0x0104
    50f4:	84 30       	cpi	r24, 0x04	; 4
    50f6:	19 f0       	breq	.+6      	; 0x0x50fe
    50f8:	85 e0       	ldi	r24, 0x05	; 5
    50fa:	80 93 04 01 	sts	0x0104, r24
    50fe:	90 93 0d 01 	sts	0x010D, r25
    5102:	9f b7       	in	r25, 0x3f	; 63
    5104:	f8 94       	cli
    5106:	80 91 cd 01 	lds	r24, 0x01CD
    510a:	8f 3f       	cpi	r24, 0xFF	; 255
    510c:	99 f4       	brne	.+38     	; 0x0x5134
    510e:	80 91 d9 01 	lds	r24, 0x01D9
    5112:	82 30       	cpi	r24, 0x02	; 2
    5114:	09 f0       	breq	.+2      	; 0x0x5118
    5116:	95 c1       	rjmp	.+810    	; 0x0x5442
    5118:	0d c0       	rjmp	.+26     	; 0x0x5134
    511a:	82 e0       	ldi	r24, 0x02	; 2
    511c:	80 93 ca 01 	sts	0x01CA, r24
    5120:	07 c0       	rjmp	.+14     	; 0x0x5130
    5122:	e0 91 d9 01 	lds	r30, 0x01D9
    5126:	ff 27       	eor	r31, r31
    5128:	e5 53       	subi	r30, 0x35	; 53
    512a:	fe 4f       	sbci	r31, 0xFE	; 254
    512c:	82 e0       	ldi	r24, 0x02	; 2
    512e:	80 83       	st	Z, r24
    5130:	80 93 d9 01 	sts	0x01D9, r24
    5134:	89 2f       	mov	r24, r25
    5136:	99 27       	eor	r25, r25
    5138:	8f bf       	out	0x3f, r24	; 63
    513a:	80 91 94 01 	lds	r24, 0x0194
    513e:	8d 7f       	andi	r24, 0xFD	; 253
    5140:	80 93 94 01 	sts	0x0194, r24
    5144:	4f bf       	out	0x3f, r20	; 63
    5146:	6b e3       	ldi	r22, 0x3B	; 59
    5148:	80 e0       	ldi	r24, 0x00	; 0
    514a:	0e 94 bd 01 	call	0x37a	; 0x0x37a
    514e:	80 ed       	ldi	r24, 0xD0	; 208
    5150:	97 e0       	ldi	r25, 0x07	; 7
    5152:	01 97       	sbiw	r24, 0x01	; 1
    5154:	01 96       	adiw	r24, 0x01	; 1
    5156:	01 97       	sbiw	r24, 0x01	; 1
    5158:	e1 f7       	brne	.-8      	; 0x0x5152
    515a:	69 e3       	ldi	r22, 0x39	; 57
    515c:	80 e0       	ldi	r24, 0x00	; 0
    515e:	0e 94 bd 01 	call	0x37a	; 0x0x37a
    5162:	88 ec       	ldi	r24, 0xC8	; 200
    5164:	90 e0       	ldi	r25, 0x00	; 0
    5166:	01 97       	sbiw	r24, 0x01	; 1
    5168:	01 96       	adiw	r24, 0x01	; 1
    516a:	01 97       	sbiw	r24, 0x01	; 1
    516c:	e1 f7       	brne	.-8      	; 0x0x5166
    516e:	0f b7       	in	r16, 0x3f	; 63
    5170:	f8 94       	cli
    5172:	11 27       	eor	r17, r17
    5174:	82 e0       	ldi	r24, 0x02	; 2
    5176:	80 93 91 01 	sts	0x0191, r24
    517a:	10 92 8c 01 	sts	0x018C, r1
    517e:	10 92 8b 01 	sts	0x018B, r1
    5182:	0e 94 80 05 	call	0xb00	; 0x0xb00
    5186:	bb 98       	cbi	0x17, 3	; 23
    5188:	ba 98       	cbi	0x17, 2	; 23
    518a:	80 ec       	ldi	r24, 0xC0	; 192
    518c:	8d b9       	out	0x0d, r24	; 13
    518e:	b8 98       	cbi	0x17, 0	; 23
    5190:	0f bf       	out	0x3f, r16	; 63
    5192:	9f b7       	in	r25, 0x3f	; 63
    5194:	f8 94       	cli
    5196:	80 91 ce 01 	lds	r24, 0x01CE
    519a:	8f 3f       	cpi	r24, 0xFF	; 255
    519c:	99 f4       	brne	.+38     	; 0x0x51c4
    519e:	80 91 d9 01 	lds	r24, 0x01D9
    51a2:	83 30       	cpi	r24, 0x03	; 3
    51a4:	09 f0       	breq	.+2      	; 0x0x51a8
    51a6:	53 c1       	rjmp	.+678    	; 0x0x544e
    51a8:	0d c0       	rjmp	.+26     	; 0x0x51c4
    51aa:	83 e0       	ldi	r24, 0x03	; 3
    51ac:	80 93 ca 01 	sts	0x01CA, r24
    51b0:	07 c0       	rjmp	.+14     	; 0x0x51c0
    51b2:	e0 91 d9 01 	lds	r30, 0x01D9
    51b6:	ff 27       	eor	r31, r31
    51b8:	e5 53       	subi	r30, 0x35	; 53
    51ba:	fe 4f       	sbci	r31, 0xFE	; 254
    51bc:	83 e0       	ldi	r24, 0x03	; 3
    51be:	80 83       	st	Z, r24
    51c0:	80 93 d9 01 	sts	0x01D9, r24
    51c4:	89 2f       	mov	r24, r25
    51c6:	99 27       	eor	r25, r25
    51c8:	8f bf       	out	0x3f, r24	; 63
    51ca:	01 c0       	rjmp	.+2      	; 0x0x51ce
    51cc:	2f bf       	out	0x3f, r18	; 63
    51ce:	8f b7       	in	r24, 0x3f	; 63
    51d0:	f8 94       	cli
    51d2:	48 2f       	mov	r20, r24
    51d4:	55 27       	eor	r21, r21
    51d6:	49 c0       	rjmp	.+146    	; 0x0x526a
    51d8:	87 b7       	in	r24, 0x37	; 55
    51da:	99 27       	eor	r25, r25
    51dc:	83 70       	andi	r24, 0x03	; 3
    51de:	90 70       	andi	r25, 0x00	; 0
    51e0:	89 2b       	or	r24, r25
    51e2:	19 f4       	brne	.+6      	; 0x0x51ea
    51e4:	e5 e0       	ldi	r30, 0x05	; 5
    51e6:	f0 e0       	ldi	r31, 0x00	; 0
    51e8:	13 c0       	rjmp	.+38     	; 0x0x5210
    51ea:	80 b7       	in	r24, 0x30	; 48
    51ec:	99 27       	eor	r25, r25
    51ee:	87 70       	andi	r24, 0x07	; 7
    51f0:	90 70       	andi	r25, 0x00	; 0
    51f2:	89 2b       	or	r24, r25
    51f4:	d1 f7       	brne	.-12     	; 0x0x51ea
    51f6:	81 b7       	in	r24, 0x31	; 49
    51f8:	92 b7       	in	r25, 0x32	; 50
    51fa:	89 1b       	sub	r24, r25
    51fc:	8c 30       	cpi	r24, 0x0C	; 12
    51fe:	30 f0       	brcs	.+12     	; 0x0x520c
    5200:	82 b7       	in	r24, 0x32	; 50
    5202:	85 3f       	cpi	r24, 0xF5	; 245
    5204:	18 f4       	brcc	.+6      	; 0x0x520c
    5206:	e3 e0       	ldi	r30, 0x03	; 3
    5208:	f0 e0       	ldi	r31, 0x00	; 0
    520a:	02 c0       	rjmp	.+4      	; 0x0x5210
    520c:	e2 e0       	ldi	r30, 0x02	; 2
    520e:	f0 e0       	ldi	r31, 0x00	; 0
    5210:	87 b7       	in	r24, 0x37	; 55
    5212:	88 7b       	andi	r24, 0xB8	; 184
    5214:	c1 f4       	brne	.+48     	; 0x0x5246
    5216:	80 91 7d 00 	lds	r24, 0x007D
    521a:	8b 7f       	andi	r24, 0xFB	; 251
    521c:	a1 f4       	brne	.+40     	; 0x0x5246
    521e:	6e 99       	sbic	0x0d, 6	; 13
    5220:	12 c0       	rjmp	.+36     	; 0x0x5246
    5222:	8a b1       	in	r24, 0x0a	; 10
    5224:	90 91 9a 00 	lds	r25, 0x009A
    5228:	89 2b       	or	r24, r25
    522a:	80 7c       	andi	r24, 0xC0	; 192
    522c:	61 f4       	brne	.+24     	; 0x0x5246
    522e:	80 91 74 00 	lds	r24, 0x0074
    5232:	82 fd       	sbrc	r24, 2
    5234:	08 c0       	rjmp	.+16     	; 0x0x5246
    5236:	37 9b       	sbis	0x06, 7	; 6
    5238:	03 c0       	rjmp	.+6      	; 0x0x5240
    523a:	81 e0       	ldi	r24, 0x01	; 1
    523c:	90 e0       	ldi	r25, 0x00	; 0
    523e:	05 c0       	rjmp	.+10     	; 0x0x524a
    5240:	85 e0       	ldi	r24, 0x05	; 5
    5242:	90 e0       	ldi	r25, 0x00	; 0
    5244:	02 c0       	rjmp	.+4      	; 0x0x524a
    5246:	80 e0       	ldi	r24, 0x00	; 0
    5248:	90 e0       	ldi	r25, 0x00	; 0
    524a:	25 b7       	in	r18, 0x35	; 53
    524c:	8e 17       	cp	r24, r30
    524e:	08 f4       	brcc	.+2      	; 0x0x5252
    5250:	e8 2f       	mov	r30, r24
    5252:	ff 27       	eor	r31, r31
    5254:	e4 57       	subi	r30, 0x74	; 116
    5256:	fd 4f       	sbci	r31, 0xFD	; 253
    5258:	c8 95       	lpm
    525a:	e0 2d       	mov	r30, r0
    525c:	23 7e       	andi	r18, 0xE3	; 227
    525e:	20 62       	ori	r18, 0x20	; 32
    5260:	e2 2b       	or	r30, r18
    5262:	e5 bf       	out	0x35, r30	; 53
    5264:	78 94       	sei
    5266:	88 95       	sleep
    5268:	f8 94       	cli
    526a:	80 91 ca 01 	lds	r24, 0x01CA
    526e:	8f 3f       	cpi	r24, 0xFF	; 255
    5270:	09 f4       	brne	.+2      	; 0x0x5274
    5272:	b2 cf       	rjmp	.-156    	; 0x0x51d8
    5274:	90 91 ca 01 	lds	r25, 0x01CA
    5278:	e0 91 ca 01 	lds	r30, 0x01CA
    527c:	ff 27       	eor	r31, r31
    527e:	e5 53       	subi	r30, 0x35	; 53
    5280:	fe 4f       	sbci	r31, 0xFE	; 254
    5282:	80 81       	ld	r24, Z
    5284:	80 93 ca 01 	sts	0x01CA, r24
    5288:	80 91 ca 01 	lds	r24, 0x01CA
    528c:	8f 3f       	cpi	r24, 0xFF	; 255
    528e:	11 f4       	brne	.+4      	; 0x0x5294
    5290:	80 93 d9 01 	sts	0x01D9, r24
    5294:	29 2f       	mov	r18, r25
    5296:	33 27       	eor	r19, r19
    5298:	f9 01       	movw	r30, r18
    529a:	e5 53       	subi	r30, 0x35	; 53
    529c:	fe 4f       	sbci	r31, 0xFE	; 254
    529e:	8f ef       	ldi	r24, 0xFF	; 255
    52a0:	80 83       	st	Z, r24
    52a2:	2f 3f       	cpi	r18, 0xFF	; 255
    52a4:	09 f4       	brne	.+2      	; 0x0x52a8
    52a6:	98 cf       	rjmp	.-208    	; 0x0x51d8
    52a8:	4f bf       	out	0x3f, r20	; 63
    52aa:	82 2f       	mov	r24, r18
    52ac:	0e 94 e6 05 	call	0xbcc	; 0x0xbcc
    52b0:	8e cf       	rjmp	.-228    	; 0x0x51ce
    52b2:	80 91 ca 01 	lds	r24, 0x01CA
    52b6:	8f 3f       	cpi	r24, 0xFF	; 255
    52b8:	11 f0       	breq	.+4      	; 0x0x52be
    52ba:	0c 94 32 1a 	jmp	0x3464	; 0x0x3464
    52be:	0c 94 2c 1a 	jmp	0x3458	; 0x0x3458
    52c2:	80 91 ca 01 	lds	r24, 0x01CA
    52c6:	8f 3f       	cpi	r24, 0xFF	; 255
    52c8:	11 f0       	breq	.+4      	; 0x0x52ce
    52ca:	0c 94 96 1c 	jmp	0x392c	; 0x0x392c
    52ce:	0c 94 90 1c 	jmp	0x3920	; 0x0x3920
    52d2:	70 93 04 01 	sts	0x0104, r23
    52d6:	80 91 0f 01 	lds	r24, 0x010F
    52da:	88 23       	and	r24, r24
    52dc:	11 f4       	brne	.+4      	; 0x0x52e2
    52de:	0c 94 87 1d 	jmp	0x3b0e	; 0x0x3b0e
    52e2:	0c 94 a5 1d 	jmp	0x3b4a	; 0x0x3b4a
    52e6:	90 93 b3 01 	sts	0x01B3, r25
    52ea:	10 92 ba 01 	sts	0x01BA, r1
    52ee:	3f b7       	in	r19, 0x3f	; 63
    52f0:	f8 94       	cli
    52f2:	90 91 d7 01 	lds	r25, 0x01D7
    52f6:	89 2f       	mov	r24, r25
    52f8:	8e 7f       	andi	r24, 0xFE	; 254
    52fa:	80 93 d7 01 	sts	0x01D7, r24
    52fe:	87 b1       	in	r24, 0x07	; 7
    5300:	20 e0       	ldi	r18, 0x00	; 0
    5302:	82 95       	swap	r24
    5304:	86 95       	lsr	r24
    5306:	86 95       	lsr	r24
    5308:	83 70       	andi	r24, 0x03	; 3
    530a:	09 f0       	breq	.+2      	; 0x0x530e
    530c:	21 e0       	ldi	r18, 0x01	; 1
    530e:	27 27       	eor	r18, r23
    5310:	21 70       	andi	r18, 0x01	; 1
    5312:	22 0f       	add	r18, r18
    5314:	9c 7f       	andi	r25, 0xFC	; 252
    5316:	92 2b       	or	r25, r18
    5318:	93 78       	andi	r25, 0x83	; 131
    531a:	90 93 d7 01 	sts	0x01D7, r25
    531e:	18 a6       	std	Y+40, r1	; 0x28
    5320:	40 e0       	ldi	r20, 0x00	; 0
    5322:	84 2f       	mov	r24, r20
    5324:	99 27       	eor	r25, r25
    5326:	87 b9       	out	0x07, r24	; 7
    5328:	80 91 97 01 	lds	r24, 0x0197
    532c:	90 91 98 01 	lds	r25, 0x0198
    5330:	51 e0       	ldi	r21, 0x01	; 1
    5332:	86 38       	cpi	r24, 0x86	; 134
    5334:	95 07       	cpc	r25, r21
    5336:	10 f4       	brcc	.+4      	; 0x0x533c
    5338:	0c 94 aa 1d 	jmp	0x3b54	; 0x0x3b54
    533c:	87 e0       	ldi	r24, 0x07	; 7
    533e:	90 e0       	ldi	r25, 0x00	; 0
    5340:	0c 94 c9 1d 	jmp	0x3b92	; 0x0x3b92
    5344:	80 91 ca 01 	lds	r24, 0x01CA
    5348:	8f 3f       	cpi	r24, 0xFF	; 255
    534a:	11 f0       	breq	.+4      	; 0x0x5350
    534c:	0c 94 e9 1d 	jmp	0x3bd2	; 0x0x3bd2
    5350:	0c 94 e5 1d 	jmp	0x3bca	; 0x0x3bca
    5354:	20 93 b3 01 	sts	0x01B3, r18
    5358:	10 92 ba 01 	sts	0x01BA, r1
    535c:	3f b7       	in	r19, 0x3f	; 63
    535e:	f8 94       	cli
    5360:	90 91 d7 01 	lds	r25, 0x01D7
    5364:	89 2f       	mov	r24, r25
    5366:	8e 7f       	andi	r24, 0xFE	; 254
    5368:	80 93 d7 01 	sts	0x01D7, r24
    536c:	87 b1       	in	r24, 0x07	; 7
    536e:	20 e0       	ldi	r18, 0x00	; 0
    5370:	82 95       	swap	r24
    5372:	86 95       	lsr	r24
    5374:	86 95       	lsr	r24
    5376:	83 70       	andi	r24, 0x03	; 3
    5378:	09 f0       	breq	.+2      	; 0x0x537c
    537a:	21 e0       	ldi	r18, 0x01	; 1
    537c:	81 e0       	ldi	r24, 0x01	; 1
    537e:	28 27       	eor	r18, r24
    5380:	22 0f       	add	r18, r18
    5382:	9c 7f       	andi	r25, 0xFC	; 252
    5384:	92 2b       	or	r25, r18
    5386:	93 78       	andi	r25, 0x83	; 131
    5388:	90 93 d7 01 	sts	0x01D7, r25
    538c:	1a a6       	std	Y+42, r1	; 0x2a
    538e:	a0 e0       	ldi	r26, 0x00	; 0
    5390:	8a 2f       	mov	r24, r26
    5392:	99 27       	eor	r25, r25
    5394:	87 b9       	out	0x07, r24	; 7
    5396:	80 91 97 01 	lds	r24, 0x0197
    539a:	90 91 98 01 	lds	r25, 0x0198
    539e:	b1 e0       	ldi	r27, 0x01	; 1
    53a0:	86 38       	cpi	r24, 0x86	; 134
    53a2:	9b 07       	cpc	r25, r27
    53a4:	10 f4       	brcc	.+4      	; 0x0x53aa
    53a6:	0c 94 3e 1e 	jmp	0x3c7c	; 0x0x3c7c
    53aa:	87 e0       	ldi	r24, 0x07	; 7
    53ac:	90 e0       	ldi	r25, 0x00	; 0
    53ae:	0c 94 5d 1e 	jmp	0x3cba	; 0x0x3cba
    53b2:	80 91 ca 01 	lds	r24, 0x01CA
    53b6:	8f 3f       	cpi	r24, 0xFF	; 255
    53b8:	11 f0       	breq	.+4      	; 0x0x53be
    53ba:	0c 94 7d 1e 	jmp	0x3cfa	; 0x0x3cfa
    53be:	0c 94 79 1e 	jmp	0x3cf2	; 0x0x3cf2
    53c2:	80 91 ca 01 	lds	r24, 0x01CA
    53c6:	8f 3f       	cpi	r24, 0xFF	; 255
    53c8:	11 f0       	breq	.+4      	; 0x0x53ce
    53ca:	0c 94 d0 1f 	jmp	0x3fa0	; 0x0x3fa0
    53ce:	0c 94 cc 1f 	jmp	0x3f98	; 0x0x3f98
    53d2:	80 91 ca 01 	lds	r24, 0x01CA
    53d6:	8f 3f       	cpi	r24, 0xFF	; 255
    53d8:	11 f0       	breq	.+4      	; 0x0x53de
    53da:	0c 94 9a 18 	jmp	0x3134	; 0x0x3134
    53de:	0c 94 b5 20 	jmp	0x416a	; 0x0x416a
    53e2:	80 91 ca 01 	lds	r24, 0x01CA
    53e6:	8f 3f       	cpi	r24, 0xFF	; 255
    53e8:	11 f0       	breq	.+4      	; 0x0x53ee
    53ea:	0c 94 ee 21 	jmp	0x43dc	; 0x0x43dc
    53ee:	0c 94 ea 21 	jmp	0x43d4	; 0x0x43d4
    53f2:	80 91 ca 01 	lds	r24, 0x01CA
    53f6:	8f 3f       	cpi	r24, 0xFF	; 255
    53f8:	11 f0       	breq	.+4      	; 0x0x53fe
    53fa:	0c 94 58 22 	jmp	0x44b0	; 0x0x44b0
    53fe:	0c 94 56 22 	jmp	0x44ac	; 0x0x44ac
    5402:	80 91 ca 01 	lds	r24, 0x01CA
    5406:	8f 3f       	cpi	r24, 0xFF	; 255
    5408:	11 f0       	breq	.+4      	; 0x0x540e
    540a:	0c 94 8c 22 	jmp	0x4518	; 0x0x4518
    540e:	0c 94 88 22 	jmp	0x4510	; 0x0x4510
    5412:	80 91 ca 01 	lds	r24, 0x01CA
    5416:	8f 3f       	cpi	r24, 0xFF	; 255
    5418:	09 f0       	breq	.+2      	; 0x0x541c
    541a:	05 c9       	rjmp	.-3574   	; 0x0x4626
    541c:	00 c9       	rjmp	.-3584   	; 0x0x461e
    541e:	80 91 ca 01 	lds	r24, 0x01CA
    5422:	8f 3f       	cpi	r24, 0xFF	; 255
    5424:	09 f0       	breq	.+2      	; 0x0x5428
    5426:	a1 cc       	rjmp	.-1726   	; 0x0x4d6a
    5428:	9a cc       	rjmp	.-1740   	; 0x0x4d5e
    542a:	80 91 ca 01 	lds	r24, 0x01CA
    542e:	8f 3f       	cpi	r24, 0xFF	; 255
    5430:	09 f0       	breq	.+2      	; 0x0x5434
    5432:	81 cd       	rjmp	.-1278   	; 0x0x4f36
    5434:	7a cd       	rjmp	.-1292   	; 0x0x4f2a
    5436:	80 91 ca 01 	lds	r24, 0x01CA
    543a:	8f 3f       	cpi	r24, 0xFF	; 255
    543c:	09 f0       	breq	.+2      	; 0x0x5440
    543e:	35 ce       	rjmp	.-918    	; 0x0x50aa
    5440:	30 ce       	rjmp	.-928    	; 0x0x50a2
    5442:	80 91 ca 01 	lds	r24, 0x01CA
    5446:	8f 3f       	cpi	r24, 0xFF	; 255
    5448:	09 f0       	breq	.+2      	; 0x0x544c
    544a:	6b ce       	rjmp	.-810    	; 0x0x5122
    544c:	66 ce       	rjmp	.-820    	; 0x0x511a
    544e:	80 91 ca 01 	lds	r24, 0x01CA
    5452:	8f 3f       	cpi	r24, 0xFF	; 255
    5454:	09 f0       	breq	.+2      	; 0x0x5458
    5456:	ad ce       	rjmp	.-678    	; 0x0x51b2
    5458:	a8 ce       	rjmp	.-688    	; 0x0x51aa
    545a:	ef 89       	ldd	r30, Y+23	; 0x17
    545c:	f8 8d       	ldd	r31, Y+24	; 0x18
    545e:	80 81       	ld	r24, Z
    5460:	21 81       	ldd	r18, Z+1	; 0x01
    5462:	99 27       	eor	r25, r25
    5464:	98 2f       	mov	r25, r24
    5466:	88 27       	eor	r24, r24
    5468:	33 27       	eor	r19, r19
    546a:	82 2b       	or	r24, r18
    546c:	93 2b       	or	r25, r19
    546e:	44 81       	ldd	r20, Z+4	; 0x04
    5470:	81 83       	std	Z+1, r24	; 0x01
    5472:	89 2f       	mov	r24, r25
    5474:	99 27       	eor	r25, r25
    5476:	80 83       	st	Z, r24
    5478:	2f b7       	in	r18, 0x3f	; 63
    547a:	f8 94       	cli
    547c:	33 27       	eor	r19, r19
    547e:	80 91 08 01 	lds	r24, 0x0108
    5482:	90 91 09 01 	lds	r25, 0x0109
    5486:	2f bf       	out	0x3f, r18	; 63
    5488:	83 83       	std	Z+3, r24	; 0x03
    548a:	89 2f       	mov	r24, r25
    548c:	99 27       	eor	r25, r25
    548e:	82 83       	std	Z+2, r24	; 0x02
    5490:	82 e2       	ldi	r24, 0x22	; 34
    5492:	85 83       	std	Z+5, r24	; 0x05
    5494:	8f b7       	in	r24, 0x3f	; 63
    5496:	f8 94       	cli
    5498:	98 2f       	mov	r25, r24
    549a:	80 91 dd 01 	lds	r24, 0x01DD
    549e:	81 fd       	sbrc	r24, 1
    54a0:	15 cd       	rjmp	.-1494   	; 0x0x4ecc
    54a2:	10 cd       	rjmp	.-1504   	; 0x0x4ec4
    54a4:	71 e0       	ldi	r23, 0x01	; 1
    54a6:	0c 94 72 19 	jmp	0x32e4	; 0x0x32e4
    54aa:	71 e0       	ldi	r23, 0x01	; 1
    54ac:	0c 94 d6 1b 	jmp	0x37ac	; 0x0x37ac
    54b0:	1f 92       	push	r1
    54b2:	0f 92       	push	r0
    54b4:	0f b6       	in	r0, 0x3f	; 63
    54b6:	0f 92       	push	r0
    54b8:	11 24       	eor	r1, r1
    54ba:	2f 92       	push	r2
    54bc:	3f 92       	push	r3
    54be:	4f 92       	push	r4
    54c0:	5f 92       	push	r5
    54c2:	6f 92       	push	r6
    54c4:	7f 92       	push	r7
    54c6:	8f 92       	push	r8
    54c8:	9f 92       	push	r9
    54ca:	af 92       	push	r10
    54cc:	bf 92       	push	r11
    54ce:	cf 92       	push	r12
    54d0:	df 92       	push	r13
    54d2:	ef 92       	push	r14
    54d4:	ff 92       	push	r15
    54d6:	0f 93       	push	r16
    54d8:	1f 93       	push	r17
    54da:	2f 93       	push	r18
    54dc:	3f 93       	push	r19
    54de:	4f 93       	push	r20
    54e0:	5f 93       	push	r21
    54e2:	6f 93       	push	r22
    54e4:	7f 93       	push	r23
    54e6:	8f 93       	push	r24
    54e8:	9f 93       	push	r25
    54ea:	af 93       	push	r26
    54ec:	bf 93       	push	r27
    54ee:	ef 93       	push	r30
    54f0:	ff 93       	push	r31
    54f2:	cf 93       	push	r28
    54f4:	df 93       	push	r29
    54f6:	cd b7       	in	r28, 0x3d	; 61
    54f8:	de b7       	in	r29, 0x3e	; 62
    54fa:	28 97       	sbiw	r28, 0x08	; 8
    54fc:	de bf       	out	0x3e, r29	; 62
    54fe:	cd bf       	out	0x3d, r28	; 61
    5500:	5f b1       	in	r21, 0x0f	; 15
    5502:	80 91 93 01 	lds	r24, 0x0193
    5506:	8f b9       	out	0x0f, r24	; 15
    5508:	60 91 dd 01 	lds	r22, 0x01DD
    550c:	62 fd       	sbrc	r22, 2
    550e:	50 95       	com	r21
    5510:	80 91 91 01 	lds	r24, 0x0191
    5514:	88 30       	cpi	r24, 0x08	; 8
    5516:	09 f4       	brne	.+2      	; 0x0x551a
    5518:	44 c0       	rjmp	.+136    	; 0x0x55a2
    551a:	89 30       	cpi	r24, 0x09	; 9
    551c:	98 f4       	brcc	.+38     	; 0x0x5544
    551e:	84 30       	cpi	r24, 0x04	; 4
    5520:	09 f4       	brne	.+2      	; 0x0x5524
    5522:	e6 c3       	rjmp	.+1996   	; 0x0x5cf0
    5524:	85 30       	cpi	r24, 0x05	; 5
    5526:	38 f4       	brcc	.+14     	; 0x0x5536
    5528:	82 30       	cpi	r24, 0x02	; 2
    552a:	09 f4       	brne	.+2      	; 0x0x552e
    552c:	de c1       	rjmp	.+956    	; 0x0x58ea
    552e:	83 30       	cpi	r24, 0x03	; 3
    5530:	09 f0       	breq	.+2      	; 0x0x5534
    5532:	3d c6       	rjmp	.+3194   	; 0x0x61ae
    5534:	ed c2       	rjmp	.+1498   	; 0x0x5b10
    5536:	86 30       	cpi	r24, 0x06	; 6
    5538:	09 f4       	brne	.+2      	; 0x0x553c
    553a:	0f c5       	rjmp	.+2590   	; 0x0x5f5a
    553c:	87 30       	cpi	r24, 0x07	; 7
    553e:	09 f0       	breq	.+2      	; 0x0x5542
    5540:	36 c6       	rjmp	.+3180   	; 0x0x61ae
    5542:	15 c0       	rjmp	.+42     	; 0x0x556e
    5544:	8b 30       	cpi	r24, 0x0B	; 11
    5546:	09 f4       	brne	.+2      	; 0x0x554a
    5548:	77 c0       	rjmp	.+238    	; 0x0x5638
    554a:	8c 30       	cpi	r24, 0x0C	; 12
    554c:	30 f4       	brcc	.+12     	; 0x0x555a
    554e:	89 30       	cpi	r24, 0x09	; 9
    5550:	a9 f1       	breq	.+106    	; 0x0x55bc
    5552:	8a 30       	cpi	r24, 0x0A	; 10
    5554:	09 f0       	breq	.+2      	; 0x0x5558
    5556:	2b c6       	rjmp	.+3158   	; 0x0x61ae
    5558:	61 c0       	rjmp	.+194    	; 0x0x561c
    555a:	8d 30       	cpi	r24, 0x0D	; 13
    555c:	09 f4       	brne	.+2      	; 0x0x5560
    555e:	72 c1       	rjmp	.+740    	; 0x0x5844
    5560:	8d 30       	cpi	r24, 0x0D	; 13
    5562:	08 f4       	brcc	.+2      	; 0x0x5566
    5564:	eb c0       	rjmp	.+470    	; 0x0x573c
    5566:	8e 30       	cpi	r24, 0x0E	; 14
    5568:	09 f0       	breq	.+2      	; 0x0x556c
    556a:	21 c6       	rjmp	.+3138   	; 0x0x61ae
    556c:	9c c1       	rjmp	.+824    	; 0x0x58a6
    556e:	80 91 4f 01 	lds	r24, 0x014F
    5572:	80 93 93 01 	sts	0x0193, r24
    5576:	80 91 8b 01 	lds	r24, 0x018B
    557a:	90 91 8c 01 	lds	r25, 0x018C
    557e:	01 96       	adiw	r24, 0x01	; 1
    5580:	90 93 8c 01 	sts	0x018C, r25
    5584:	80 93 8b 01 	sts	0x018B, r24
    5588:	20 91 af 01 	lds	r18, 0x01AF
    558c:	30 91 b0 01 	lds	r19, 0x01B0
    5590:	82 17       	cp	r24, r18
    5592:	93 07       	cpc	r25, r19
    5594:	08 f4       	brcc	.+2      	; 0x0x5598
    5596:	0b c6       	rjmp	.+3094   	; 0x0x61ae
    5598:	83 e3       	ldi	r24, 0x33	; 51
    559a:	80 93 4f 01 	sts	0x014F, r24
    559e:	88 e0       	ldi	r24, 0x08	; 8
    55a0:	04 c6       	rjmp	.+3080   	; 0x0x61aa
    55a2:	80 91 4f 01 	lds	r24, 0x014F
    55a6:	80 93 93 01 	sts	0x0193, r24
    55aa:	8c ec       	ldi	r24, 0xCC	; 204
    55ac:	80 93 4f 01 	sts	0x014F, r24
    55b0:	89 e0       	ldi	r24, 0x09	; 9
    55b2:	80 93 91 01 	sts	0x0191, r24
    55b6:	8f ef       	ldi	r24, 0xFF	; 255
    55b8:	9f ef       	ldi	r25, 0xFF	; 255
    55ba:	e7 c5       	rjmp	.+3022   	; 0x0x618a
    55bc:	a0 91 59 01 	lds	r26, 0x0159
    55c0:	b0 91 5a 01 	lds	r27, 0x015A
    55c4:	80 91 4f 01 	lds	r24, 0x014F
    55c8:	80 93 93 01 	sts	0x0193, r24
    55cc:	20 91 8b 01 	lds	r18, 0x018B
    55d0:	30 91 8c 01 	lds	r19, 0x018C
    55d4:	2f 5f       	subi	r18, 0xFF	; 255
    55d6:	3f 4f       	sbci	r19, 0xFF	; 255
    55d8:	30 93 8c 01 	sts	0x018C, r19
    55dc:	20 93 8b 01 	sts	0x018B, r18
    55e0:	fd 01       	movw	r30, r26
    55e2:	84 81       	ldd	r24, Z+4	; 0x04
    55e4:	99 27       	eor	r25, r25
    55e6:	07 96       	adiw	r24, 0x07	; 7
    55e8:	28 17       	cp	r18, r24
    55ea:	39 07       	cpc	r19, r25
    55ec:	88 f4       	brcc	.+34     	; 0x0x5610
    55ee:	2a 0f       	add	r18, r26
    55f0:	3b 1f       	adc	r19, r27
    55f2:	f9 01       	movw	r30, r18
    55f4:	60 81       	ld	r22, Z
    55f6:	60 93 4f 01 	sts	0x014F, r22
    55fa:	80 91 db 01 	lds	r24, 0x01DB
    55fe:	90 91 dc 01 	lds	r25, 0x01DC
    5602:	0e 94 af 01 	call	0x35e	; 0x0x35e
    5606:	90 93 dc 01 	sts	0x01DC, r25
    560a:	80 93 db 01 	sts	0x01DB, r24
    560e:	cf c5       	rjmp	.+2974   	; 0x0x61ae
    5610:	80 91 db 01 	lds	r24, 0x01DB
    5614:	80 93 4f 01 	sts	0x014F, r24
    5618:	8a e0       	ldi	r24, 0x0A	; 10
    561a:	c7 c5       	rjmp	.+2958   	; 0x0x61aa
    561c:	80 91 4f 01 	lds	r24, 0x014F
    5620:	80 93 93 01 	sts	0x0193, r24
    5624:	80 91 db 01 	lds	r24, 0x01DB
    5628:	90 91 dc 01 	lds	r25, 0x01DC
    562c:	89 2f       	mov	r24, r25
    562e:	99 27       	eor	r25, r25
    5630:	80 93 4f 01 	sts	0x014F, r24
    5634:	8b e0       	ldi	r24, 0x0B	; 11
    5636:	13 c0       	rjmp	.+38     	; 0x0x565e
    5638:	80 91 4f 01 	lds	r24, 0x014F
    563c:	80 93 93 01 	sts	0x0193, r24
    5640:	80 91 8b 01 	lds	r24, 0x018B
    5644:	90 91 8c 01 	lds	r25, 0x018C
    5648:	01 96       	adiw	r24, 0x01	; 1
    564a:	90 93 8c 01 	sts	0x018C, r25
    564e:	80 93 8b 01 	sts	0x018B, r24
    5652:	04 97       	sbiw	r24, 0x04	; 4
    5654:	08 f4       	brcc	.+2      	; 0x0x5658
    5656:	ab c5       	rjmp	.+2902   	; 0x0x61ae
    5658:	60 ff       	sbrs	r22, 0
    565a:	08 c0       	rjmp	.+16     	; 0x0x566c
    565c:	8c e0       	ldi	r24, 0x0C	; 12
    565e:	80 93 91 01 	sts	0x0191, r24
    5662:	10 92 8c 01 	sts	0x018C, r1
    5666:	10 92 8b 01 	sts	0x018B, r1
    566a:	a1 c5       	rjmp	.+2882   	; 0x0x61ae
    566c:	bb 98       	cbi	0x17, 3	; 23
    566e:	ba 98       	cbi	0x17, 2	; 23
    5670:	20 91 96 01 	lds	r18, 0x0196
    5674:	94 98       	cbi	0x12, 4	; 18
    5676:	92 e1       	ldi	r25, 0x12	; 18
    5678:	80 e0       	ldi	r24, 0x00	; 0
    567a:	97 ff       	sbrs	r25, 7
    567c:	02 c0       	rjmp	.+4      	; 0x0x5682
    567e:	97 9a       	sbi	0x12, 7	; 18
    5680:	01 c0       	rjmp	.+2      	; 0x0x5684
    5682:	97 98       	cbi	0x12, 7	; 18
    5684:	96 98       	cbi	0x12, 6	; 18
    5686:	96 9a       	sbi	0x12, 6	; 18
    5688:	8f 5f       	subi	r24, 0xFF	; 255
    568a:	87 30       	cpi	r24, 0x07	; 7
    568c:	11 f0       	breq	.+4      	; 0x0x5692
    568e:	99 0f       	add	r25, r25
    5690:	f4 cf       	rjmp	.-24     	; 0x0x567a
    5692:	97 9a       	sbi	0x12, 7	; 18
    5694:	96 98       	cbi	0x12, 6	; 18
    5696:	96 9a       	sbi	0x12, 6	; 18
    5698:	94 9a       	sbi	0x12, 4	; 18
    569a:	80 e0       	ldi	r24, 0x00	; 0
    569c:	27 ff       	sbrs	r18, 7
    569e:	02 c0       	rjmp	.+4      	; 0x0x56a4
    56a0:	97 9a       	sbi	0x12, 7	; 18
    56a2:	01 c0       	rjmp	.+2      	; 0x0x56a6
    56a4:	97 98       	cbi	0x12, 7	; 18
    56a6:	96 98       	cbi	0x12, 6	; 18
    56a8:	96 9a       	sbi	0x12, 6	; 18
    56aa:	8f 5f       	subi	r24, 0xFF	; 255
    56ac:	88 30       	cpi	r24, 0x08	; 8
    56ae:	11 f0       	breq	.+4      	; 0x0x56b4
    56b0:	22 0f       	add	r18, r18
    56b2:	f4 cf       	rjmp	.-24     	; 0x0x569c
    56b4:	94 9a       	sbi	0x12, 4	; 18
    56b6:	97 9a       	sbi	0x12, 7	; 18
    56b8:	96 9a       	sbi	0x12, 6	; 18
    56ba:	94 98       	cbi	0x12, 4	; 18
    56bc:	96 e1       	ldi	r25, 0x16	; 22
    56be:	80 e0       	ldi	r24, 0x00	; 0
    56c0:	97 ff       	sbrs	r25, 7
    56c2:	02 c0       	rjmp	.+4      	; 0x0x56c8
    56c4:	97 9a       	sbi	0x12, 7	; 18
    56c6:	01 c0       	rjmp	.+2      	; 0x0x56ca
    56c8:	97 98       	cbi	0x12, 7	; 18
    56ca:	96 98       	cbi	0x12, 6	; 18
    56cc:	96 9a       	sbi	0x12, 6	; 18
    56ce:	8f 5f       	subi	r24, 0xFF	; 255
    56d0:	87 30       	cpi	r24, 0x07	; 7
    56d2:	11 f0       	breq	.+4      	; 0x0x56d8
    56d4:	99 0f       	add	r25, r25
    56d6:	f4 cf       	rjmp	.-24     	; 0x0x56c0
    56d8:	97 9a       	sbi	0x12, 7	; 18
    56da:	96 98       	cbi	0x12, 6	; 18
    56dc:	96 9a       	sbi	0x12, 6	; 18
    56de:	94 9a       	sbi	0x12, 4	; 18
    56e0:	80 e0       	ldi	r24, 0x00	; 0
    56e2:	97 98       	cbi	0x12, 7	; 18
    56e4:	96 98       	cbi	0x12, 6	; 18
    56e6:	96 9a       	sbi	0x12, 6	; 18
    56e8:	8f 5f       	subi	r24, 0xFF	; 255
    56ea:	88 30       	cpi	r24, 0x08	; 8
    56ec:	d1 f7       	brne	.-12     	; 0x0x56e2
    56ee:	94 9a       	sbi	0x12, 4	; 18
    56f0:	97 9a       	sbi	0x12, 7	; 18
    56f2:	96 9a       	sbi	0x12, 6	; 18
    56f4:	94 98       	cbi	0x12, 4	; 18
    56f6:	80 e0       	ldi	r24, 0x00	; 0
    56f8:	97 98       	cbi	0x12, 7	; 18
    56fa:	96 98       	cbi	0x12, 6	; 18
    56fc:	96 9a       	sbi	0x12, 6	; 18
    56fe:	8f 5f       	subi	r24, 0xFF	; 255
    5700:	87 30       	cpi	r24, 0x07	; 7
    5702:	d1 f7       	brne	.-12     	; 0x0x56f8
    5704:	97 9a       	sbi	0x12, 7	; 18
    5706:	96 98       	cbi	0x12, 6	; 18
    5708:	96 9a       	sbi	0x12, 6	; 18
    570a:	94 9a       	sbi	0x12, 4	; 18
    570c:	91 e1       	ldi	r25, 0x11	; 17
    570e:	80 e0       	ldi	r24, 0x00	; 0
    5710:	97 ff       	sbrs	r25, 7
    5712:	02 c0       	rjmp	.+4      	; 0x0x5718
    5714:	97 9a       	sbi	0x12, 7	; 18
    5716:	01 c0       	rjmp	.+2      	; 0x0x571a
    5718:	97 98       	cbi	0x12, 7	; 18
    571a:	96 98       	cbi	0x12, 6	; 18
    571c:	96 9a       	sbi	0x12, 6	; 18
    571e:	8f 5f       	subi	r24, 0xFF	; 255
    5720:	88 30       	cpi	r24, 0x08	; 8
    5722:	11 f0       	breq	.+4      	; 0x0x5728
    5724:	99 0f       	add	r25, r25
    5726:	f4 cf       	rjmp	.-24     	; 0x0x5710
    5728:	94 9a       	sbi	0x12, 4	; 18
    572a:	97 9a       	sbi	0x12, 7	; 18
    572c:	96 9a       	sbi	0x12, 6	; 18
    572e:	8d e7       	ldi	r24, 0x7D	; 125
    5730:	90 e0       	ldi	r25, 0x00	; 0
    5732:	01 97       	sbiw	r24, 0x01	; 1
    5734:	01 96       	adiw	r24, 0x01	; 1
    5736:	01 97       	sbiw	r24, 0x01	; 1
    5738:	e1 f7       	brne	.-8      	; 0x0x5732
    573a:	36 c5       	rjmp	.+2668   	; 0x0x61a8
    573c:	80 91 4f 01 	lds	r24, 0x014F
    5740:	80 93 93 01 	sts	0x0193, r24
    5744:	80 91 8b 01 	lds	r24, 0x018B
    5748:	90 91 8c 01 	lds	r25, 0x018C
    574c:	01 96       	adiw	r24, 0x01	; 1
    574e:	90 93 8c 01 	sts	0x018C, r25
    5752:	80 93 8b 01 	sts	0x018B, r24
    5756:	81 30       	cpi	r24, 0x01	; 1
    5758:	91 05       	cpc	r25, r1
    575a:	09 f0       	breq	.+2      	; 0x0x575e
    575c:	68 c0       	rjmp	.+208    	; 0x0x582e
    575e:	bb 98       	cbi	0x17, 3	; 23
    5760:	ba 98       	cbi	0x17, 2	; 23
    5762:	20 91 96 01 	lds	r18, 0x0196
    5766:	94 98       	cbi	0x12, 4	; 18
    5768:	92 e1       	ldi	r25, 0x12	; 18
    576a:	80 e0       	ldi	r24, 0x00	; 0
    576c:	97 ff       	sbrs	r25, 7
    576e:	02 c0       	rjmp	.+4      	; 0x0x5774
    5770:	97 9a       	sbi	0x12, 7	; 18
    5772:	01 c0       	rjmp	.+2      	; 0x0x5776
    5774:	97 98       	cbi	0x12, 7	; 18
    5776:	96 98       	cbi	0x12, 6	; 18
    5778:	96 9a       	sbi	0x12, 6	; 18
    577a:	8f 5f       	subi	r24, 0xFF	; 255
    577c:	87 30       	cpi	r24, 0x07	; 7
    577e:	11 f0       	breq	.+4      	; 0x0x5784
    5780:	99 0f       	add	r25, r25
    5782:	f4 cf       	rjmp	.-24     	; 0x0x576c
    5784:	97 9a       	sbi	0x12, 7	; 18
    5786:	96 98       	cbi	0x12, 6	; 18
    5788:	96 9a       	sbi	0x12, 6	; 18
    578a:	94 9a       	sbi	0x12, 4	; 18
    578c:	80 e0       	ldi	r24, 0x00	; 0
    578e:	27 ff       	sbrs	r18, 7
    5790:	02 c0       	rjmp	.+4      	; 0x0x5796
    5792:	97 9a       	sbi	0x12, 7	; 18
    5794:	01 c0       	rjmp	.+2      	; 0x0x5798
    5796:	97 98       	cbi	0x12, 7	; 18
    5798:	96 98       	cbi	0x12, 6	; 18
    579a:	96 9a       	sbi	0x12, 6	; 18
    579c:	8f 5f       	subi	r24, 0xFF	; 255
    579e:	88 30       	cpi	r24, 0x08	; 8
    57a0:	11 f0       	breq	.+4      	; 0x0x57a6
    57a2:	22 0f       	add	r18, r18
    57a4:	f4 cf       	rjmp	.-24     	; 0x0x578e
    57a6:	94 9a       	sbi	0x12, 4	; 18
    57a8:	97 9a       	sbi	0x12, 7	; 18
    57aa:	96 9a       	sbi	0x12, 6	; 18
    57ac:	94 98       	cbi	0x12, 4	; 18
    57ae:	96 e1       	ldi	r25, 0x16	; 22
    57b0:	80 e0       	ldi	r24, 0x00	; 0
    57b2:	97 ff       	sbrs	r25, 7
    57b4:	02 c0       	rjmp	.+4      	; 0x0x57ba
    57b6:	97 9a       	sbi	0x12, 7	; 18
    57b8:	01 c0       	rjmp	.+2      	; 0x0x57bc
    57ba:	97 98       	cbi	0x12, 7	; 18
    57bc:	96 98       	cbi	0x12, 6	; 18
    57be:	96 9a       	sbi	0x12, 6	; 18
    57c0:	8f 5f       	subi	r24, 0xFF	; 255
    57c2:	87 30       	cpi	r24, 0x07	; 7
    57c4:	11 f0       	breq	.+4      	; 0x0x57ca
    57c6:	99 0f       	add	r25, r25
    57c8:	f4 cf       	rjmp	.-24     	; 0x0x57b2
    57ca:	97 9a       	sbi	0x12, 7	; 18
    57cc:	96 98       	cbi	0x12, 6	; 18
    57ce:	96 9a       	sbi	0x12, 6	; 18
    57d0:	94 9a       	sbi	0x12, 4	; 18
    57d2:	80 e0       	ldi	r24, 0x00	; 0
    57d4:	97 98       	cbi	0x12, 7	; 18
    57d6:	96 98       	cbi	0x12, 6	; 18
    57d8:	96 9a       	sbi	0x12, 6	; 18
    57da:	8f 5f       	subi	r24, 0xFF	; 255
    57dc:	88 30       	cpi	r24, 0x08	; 8
    57de:	d1 f7       	brne	.-12     	; 0x0x57d4
    57e0:	94 9a       	sbi	0x12, 4	; 18
    57e2:	97 9a       	sbi	0x12, 7	; 18
    57e4:	96 9a       	sbi	0x12, 6	; 18
    57e6:	94 98       	cbi	0x12, 4	; 18
    57e8:	80 e0       	ldi	r24, 0x00	; 0
    57ea:	97 98       	cbi	0x12, 7	; 18
    57ec:	96 98       	cbi	0x12, 6	; 18
    57ee:	96 9a       	sbi	0x12, 6	; 18
    57f0:	8f 5f       	subi	r24, 0xFF	; 255
    57f2:	87 30       	cpi	r24, 0x07	; 7
    57f4:	d1 f7       	brne	.-12     	; 0x0x57ea
    57f6:	97 9a       	sbi	0x12, 7	; 18
    57f8:	96 98       	cbi	0x12, 6	; 18
    57fa:	96 9a       	sbi	0x12, 6	; 18
    57fc:	94 9a       	sbi	0x12, 4	; 18
    57fe:	91 e1       	ldi	r25, 0x11	; 17
    5800:	80 e0       	ldi	r24, 0x00	; 0
    5802:	97 ff       	sbrs	r25, 7
    5804:	02 c0       	rjmp	.+4      	; 0x0x580a
    5806:	97 9a       	sbi	0x12, 7	; 18
    5808:	01 c0       	rjmp	.+2      	; 0x0x580c
    580a:	97 98       	cbi	0x12, 7	; 18
    580c:	96 98       	cbi	0x12, 6	; 18
    580e:	96 9a       	sbi	0x12, 6	; 18
    5810:	8f 5f       	subi	r24, 0xFF	; 255
    5812:	88 30       	cpi	r24, 0x08	; 8
    5814:	11 f0       	breq	.+4      	; 0x0x581a
    5816:	99 0f       	add	r25, r25
    5818:	f4 cf       	rjmp	.-24     	; 0x0x5802
    581a:	94 9a       	sbi	0x12, 4	; 18
    581c:	97 9a       	sbi	0x12, 7	; 18
    581e:	96 9a       	sbi	0x12, 6	; 18
    5820:	8d e7       	ldi	r24, 0x7D	; 125
    5822:	90 e0       	ldi	r25, 0x00	; 0
    5824:	01 97       	sbiw	r24, 0x01	; 1
    5826:	01 96       	adiw	r24, 0x01	; 1
    5828:	01 97       	sbiw	r24, 0x01	; 1
    582a:	e1 f7       	brne	.-8      	; 0x0x5824
    582c:	c0 c4       	rjmp	.+2432   	; 0x0x61ae
    582e:	04 97       	sbiw	r24, 0x04	; 4
    5830:	08 f4       	brcc	.+2      	; 0x0x5834
    5832:	bd c4       	rjmp	.+2426   	; 0x0x61ae
    5834:	8d e0       	ldi	r24, 0x0D	; 13
    5836:	80 93 91 01 	sts	0x0191, r24
    583a:	10 92 b2 01 	sts	0x01B2, r1
    583e:	10 92 b1 01 	sts	0x01B1, r1
    5842:	0f cf       	rjmp	.-482    	; 0x0x5662
    5844:	80 91 4f 01 	lds	r24, 0x014F
    5848:	80 93 93 01 	sts	0x0193, r24
    584c:	80 91 8b 01 	lds	r24, 0x018B
    5850:	90 91 8c 01 	lds	r25, 0x018C
    5854:	01 96       	adiw	r24, 0x01	; 1
    5856:	90 93 8c 01 	sts	0x018C, r25
    585a:	80 93 8b 01 	sts	0x018B, r24
    585e:	80 91 b1 01 	lds	r24, 0x01B1
    5862:	90 91 b2 01 	lds	r25, 0x01B2
    5866:	20 e0       	ldi	r18, 0x00	; 0
    5868:	88 0f       	add	r24, r24
    586a:	99 1f       	adc	r25, r25
    586c:	57 fd       	sbrc	r21, 7
    586e:	81 60       	ori	r24, 0x01	; 1
    5870:	fa eb       	ldi	r31, 0xBA	; 186
    5872:	83 38       	cpi	r24, 0x83	; 131
    5874:	9f 07       	cpc	r25, r31
    5876:	09 f4       	brne	.+2      	; 0x0x587a
    5878:	8d c4       	rjmp	.+2330   	; 0x0x6194
    587a:	2f 5f       	subi	r18, 0xFF	; 255
    587c:	28 30       	cpi	r18, 0x08	; 8
    587e:	11 f0       	breq	.+4      	; 0x0x5884
    5880:	55 0f       	add	r21, r21
    5882:	f2 cf       	rjmp	.-28     	; 0x0x5868
    5884:	90 93 b2 01 	sts	0x01B2, r25
    5888:	80 93 b1 01 	sts	0x01B1, r24
    588c:	80 91 8b 01 	lds	r24, 0x018B
    5890:	90 91 8c 01 	lds	r25, 0x018C
    5894:	42 97       	sbiw	r24, 0x12	; 18
    5896:	08 f4       	brcc	.+2      	; 0x0x589a
    5898:	8a c4       	rjmp	.+2324   	; 0x0x61ae
    589a:	e0 91 59 01 	lds	r30, 0x0159
    589e:	f0 91 5a 01 	lds	r31, 0x015A
    58a2:	17 a2       	std	Z+39, r1	; 0x27
    58a4:	81 c4       	rjmp	.+2306   	; 0x0x61a8
    58a6:	9f b7       	in	r25, 0x3f	; 63
    58a8:	f8 94       	cli
    58aa:	80 91 d1 01 	lds	r24, 0x01D1
    58ae:	8f 3f       	cpi	r24, 0xFF	; 255
    58b0:	99 f4       	brne	.+38     	; 0x0x58d8
    58b2:	80 91 d9 01 	lds	r24, 0x01D9
    58b6:	86 30       	cpi	r24, 0x06	; 6
    58b8:	09 f0       	breq	.+2      	; 0x0x58bc
    58ba:	ec c3       	rjmp	.+2008   	; 0x0x6094
    58bc:	0d c0       	rjmp	.+26     	; 0x0x58d8
    58be:	86 e0       	ldi	r24, 0x06	; 6
    58c0:	80 93 ca 01 	sts	0x01CA, r24
    58c4:	07 c0       	rjmp	.+14     	; 0x0x58d4
    58c6:	e0 91 d9 01 	lds	r30, 0x01D9
    58ca:	ff 27       	eor	r31, r31
    58cc:	e5 53       	subi	r30, 0x35	; 53
    58ce:	fe 4f       	sbci	r31, 0xFE	; 254
    58d0:	86 e0       	ldi	r24, 0x06	; 6
    58d2:	80 83       	st	Z, r24
    58d4:	80 93 d9 01 	sts	0x01D9, r24
    58d8:	89 2f       	mov	r24, r25
    58da:	99 27       	eor	r25, r25
    58dc:	8f bf       	out	0x3f, r24	; 63
    58de:	80 91 94 01 	lds	r24, 0x0194
    58e2:	8d 7f       	andi	r24, 0xFD	; 253
    58e4:	80 93 94 01 	sts	0x0194, r24
    58e8:	16 c2       	rjmp	.+1068   	; 0x0x5d16
    58ea:	5a 3a       	cpi	r21, 0xAA	; 170
    58ec:	19 f0       	breq	.+6      	; 0x0x58f4
    58ee:	55 35       	cpi	r21, 0x55	; 85
    58f0:	09 f0       	breq	.+2      	; 0x0x58f4
    58f2:	d6 c3       	rjmp	.+1964   	; 0x0x60a0
    58f4:	80 91 8b 01 	lds	r24, 0x018B
    58f8:	90 91 8c 01 	lds	r25, 0x018C
    58fc:	01 96       	adiw	r24, 0x01	; 1
    58fe:	90 93 8c 01 	sts	0x018C, r25
    5902:	80 93 8b 01 	sts	0x018B, r24
    5906:	03 97       	sbiw	r24, 0x03	; 3
    5908:	58 f0       	brcs	.+22     	; 0x0x5920
    590a:	83 e0       	ldi	r24, 0x03	; 3
    590c:	80 93 91 01 	sts	0x0191, r24
    5910:	10 92 8c 01 	sts	0x018C, r1
    5914:	10 92 8b 01 	sts	0x018B, r1
    5918:	10 92 b2 01 	sts	0x01B2, r1
    591c:	10 92 b1 01 	sts	0x01B1, r1
    5920:	91 e0       	ldi	r25, 0x01	; 1
    5922:	80 91 94 01 	lds	r24, 0x0194
    5926:	81 ff       	sbrs	r24, 1
    5928:	42 c4       	rjmp	.+2180   	; 0x0x61ae
    592a:	80 fd       	sbrc	r24, 0
    592c:	57 c0       	rjmp	.+174    	; 0x0x59dc
    592e:	99 23       	and	r25, r25
    5930:	09 f4       	brne	.+2      	; 0x0x5934
    5932:	54 c0       	rjmp	.+168    	; 0x0x59dc
    5934:	20 90 87 01 	lds	r2, 0x0187
    5938:	30 90 88 01 	lds	r3, 0x0188
    593c:	40 90 89 01 	lds	r4, 0x0189
    5940:	50 90 8a 01 	lds	r5, 0x018A
    5944:	66 24       	eor	r6, r6
    5946:	77 24       	eor	r7, r7
    5948:	88 24       	eor	r8, r8
    594a:	4e e4       	ldi	r20, 0x4E	; 78
    594c:	a4 2e       	mov	r10, r20
    594e:	33 e8       	ldi	r19, 0x83	; 131
    5950:	b3 2e       	mov	r11, r19
    5952:	cc 24       	eor	r12, r12
    5954:	dd 24       	eor	r13, r13
    5956:	ee 24       	eor	r14, r14
    5958:	ff 24       	eor	r15, r15
    595a:	00 e0       	ldi	r16, 0x00	; 0
    595c:	10 e0       	ldi	r17, 0x00	; 0
    595e:	22 2d       	mov	r18, r2
    5960:	33 2d       	mov	r19, r3
    5962:	44 2d       	mov	r20, r4
    5964:	55 2d       	mov	r21, r5
    5966:	66 2d       	mov	r22, r6
    5968:	77 2d       	mov	r23, r7
    596a:	88 2d       	mov	r24, r8
    596c:	90 e0       	ldi	r25, 0x00	; 0
    596e:	0e 94 c1 35 	call	0x6b82	; 0x0x6b82
    5972:	29 83       	std	Y+1, r18	; 0x01
    5974:	3a 83       	std	Y+2, r19	; 0x02
    5976:	4b 83       	std	Y+3, r20	; 0x03
    5978:	5c 83       	std	Y+4, r21	; 0x04
    597a:	6d 83       	std	Y+5, r22	; 0x05
    597c:	7e 83       	std	Y+6, r23	; 0x06
    597e:	8f 83       	std	Y+7, r24	; 0x07
    5980:	98 87       	std	Y+8, r25	; 0x08
    5982:	82 2e       	mov	r8, r18
    5984:	93 2e       	mov	r9, r19
    5986:	a4 2e       	mov	r10, r20
    5988:	b5 2e       	mov	r11, r21
    598a:	24 01       	movw	r4, r8
    598c:	35 01       	movw	r6, r10
    598e:	00 e2       	ldi	r16, 0x20	; 32
    5990:	0e 94 bf 36 	call	0x6d7e	; 0x0x6d7e
    5994:	a2 2e       	mov	r10, r18
    5996:	b3 2e       	mov	r11, r19
    5998:	c4 2e       	mov	r12, r20
    599a:	d5 2e       	mov	r13, r21
    599c:	d3 01       	movw	r26, r6
    599e:	c2 01       	movw	r24, r4
    59a0:	b6 95       	lsr	r27
    59a2:	a7 95       	ror	r26
    59a4:	97 95       	ror	r25
    59a6:	87 95       	ror	r24
    59a8:	8a 0d       	add	r24, r10
    59aa:	9b 1d       	adc	r25, r11
    59ac:	ac 1d       	adc	r26, r12
    59ae:	bd 1d       	adc	r27, r13
    59b0:	b7 ff       	sbrs	r27, 7
    59b2:	04 c0       	rjmp	.+8      	; 0x0x59bc
    59b4:	bf 77       	andi	r27, 0x7F	; 127
    59b6:	01 96       	adiw	r24, 0x01	; 1
    59b8:	a1 1d       	adc	r26, r1
    59ba:	b1 1d       	adc	r27, r1
    59bc:	80 93 87 01 	sts	0x0187, r24
    59c0:	90 93 88 01 	sts	0x0188, r25
    59c4:	a0 93 89 01 	sts	0x0189, r26
    59c8:	b0 93 8a 01 	sts	0x018A, r27
    59cc:	8f 70       	andi	r24, 0x0F	; 15
    59ce:	90 70       	andi	r25, 0x00	; 0
    59d0:	01 96       	adiw	r24, 0x01	; 1
    59d2:	90 93 b9 01 	sts	0x01B9, r25
    59d6:	80 93 b8 01 	sts	0x01B8, r24
    59da:	e9 c3       	rjmp	.+2002   	; 0x0x61ae
    59dc:	80 91 b8 01 	lds	r24, 0x01B8
    59e0:	90 91 b9 01 	lds	r25, 0x01B9
    59e4:	00 97       	sbiw	r24, 0x00	; 0
    59e6:	09 f4       	brne	.+2      	; 0x0x59ea
    59e8:	e2 c3       	rjmp	.+1988   	; 0x0x61ae
    59ea:	01 97       	sbiw	r24, 0x01	; 1
    59ec:	90 93 b9 01 	sts	0x01B9, r25
    59f0:	80 93 b8 01 	sts	0x01B8, r24
    59f4:	89 2b       	or	r24, r25
    59f6:	09 f0       	breq	.+2      	; 0x0x59fa
    59f8:	da c3       	rjmp	.+1972   	; 0x0x61ae
    59fa:	80 91 04 01 	lds	r24, 0x0104
    59fe:	84 30       	cpi	r24, 0x04	; 4
    5a00:	19 f0       	breq	.+6      	; 0x0x5a08
    5a02:	85 e0       	ldi	r24, 0x05	; 5
    5a04:	80 93 04 01 	sts	0x0104, r24
    5a08:	10 92 d8 01 	sts	0x01D8, r1
    5a0c:	80 91 04 01 	lds	r24, 0x0104
    5a10:	84 30       	cpi	r24, 0x04	; 4
    5a12:	09 f0       	breq	.+2      	; 0x0x5a16
    5a14:	79 c0       	rjmp	.+242    	; 0x0x5b08
    5a16:	22 e0       	ldi	r18, 0x02	; 2
    5a18:	20 93 04 01 	sts	0x0104, r18
    5a1c:	80 91 0f 01 	lds	r24, 0x010F
    5a20:	88 23       	and	r24, r24
    5a22:	e9 f4       	brne	.+58     	; 0x0x5a5e
    5a24:	20 93 0f 01 	sts	0x010F, r18
    5a28:	10 92 8e 01 	sts	0x018E, r1
    5a2c:	37 9a       	sbi	0x06, 7	; 6
    5a2e:	80 91 07 01 	lds	r24, 0x0107
    5a32:	81 30       	cpi	r24, 0x01	; 1
    5a34:	29 f4       	brne	.+10     	; 0x0x5a40
    5a36:	10 92 07 01 	sts	0x0107, r1
    5a3a:	83 e0       	ldi	r24, 0x03	; 3
    5a3c:	80 93 0f 01 	sts	0x010F, r24
    5a40:	90 91 07 01 	lds	r25, 0x0107
    5a44:	99 23       	and	r25, r25
    5a46:	09 f4       	brne	.+2      	; 0x0x5a4a
    5a48:	31 c3       	rjmp	.+1634   	; 0x0x60ac
    5a4a:	81 e0       	ldi	r24, 0x01	; 1
    5a4c:	80 93 0f 01 	sts	0x010F, r24
    5a50:	10 92 8e 01 	sts	0x018E, r1
    5a54:	37 9a       	sbi	0x06, 7	; 6
    5a56:	91 30       	cpi	r25, 0x01	; 1
    5a58:	09 f0       	breq	.+2      	; 0x0x5a5c
    5a5a:	a9 c3       	rjmp	.+1874   	; 0x0x61ae
    5a5c:	2e c0       	rjmp	.+92     	; 0x0x5aba
    5a5e:	80 91 57 01 	lds	r24, 0x0157
    5a62:	80 ff       	sbrs	r24, 0
    5a64:	4d c0       	rjmp	.+154    	; 0x0x5b00
    5a66:	a3 c3       	rjmp	.+1862   	; 0x0x61ae
    5a68:	83 3c       	cpi	r24, 0xC3	; 195
    5a6a:	91 05       	cpc	r25, r1
    5a6c:	18 f0       	brcs	.+6      	; 0x0x5a74
    5a6e:	86 e0       	ldi	r24, 0x06	; 6
    5a70:	90 e0       	ldi	r25, 0x00	; 0
    5a72:	19 c0       	rjmp	.+50     	; 0x0x5aa6
    5a74:	81 36       	cpi	r24, 0x61	; 97
    5a76:	91 05       	cpc	r25, r1
    5a78:	18 f0       	brcs	.+6      	; 0x0x5a80
    5a7a:	85 e0       	ldi	r24, 0x05	; 5
    5a7c:	90 e0       	ldi	r25, 0x00	; 0
    5a7e:	13 c0       	rjmp	.+38     	; 0x0x5aa6
    5a80:	80 33       	cpi	r24, 0x30	; 48
    5a82:	91 05       	cpc	r25, r1
    5a84:	18 f0       	brcs	.+6      	; 0x0x5a8c
    5a86:	84 e0       	ldi	r24, 0x04	; 4
    5a88:	90 e0       	ldi	r25, 0x00	; 0
    5a8a:	0d c0       	rjmp	.+26     	; 0x0x5aa6
    5a8c:	88 31       	cpi	r24, 0x18	; 24
    5a8e:	91 05       	cpc	r25, r1
    5a90:	18 f0       	brcs	.+6      	; 0x0x5a98
    5a92:	83 e0       	ldi	r24, 0x03	; 3
    5a94:	90 e0       	ldi	r25, 0x00	; 0
    5a96:	07 c0       	rjmp	.+14     	; 0x0x5aa6
    5a98:	0c 97       	sbiw	r24, 0x0c	; 12
    5a9a:	18 f0       	brcs	.+6      	; 0x0x5aa2
    5a9c:	82 e0       	ldi	r24, 0x02	; 2
    5a9e:	90 e0       	ldi	r25, 0x00	; 0
    5aa0:	02 c0       	rjmp	.+4      	; 0x0x5aa6
    5aa2:	80 e0       	ldi	r24, 0x00	; 0
    5aa4:	90 e0       	ldi	r25, 0x00	; 0
    5aa6:	87 70       	andi	r24, 0x07	; 7
    5aa8:	98 7d       	andi	r25, 0xD8	; 216
    5aaa:	98 2b       	or	r25, r24
    5aac:	98 6d       	ori	r25, 0xD8	; 216
    5aae:	89 2f       	mov	r24, r25
    5ab0:	99 27       	eor	r25, r25
    5ab2:	86 b9       	out	0x06, r24	; 6
    5ab4:	83 2f       	mov	r24, r19
    5ab6:	99 27       	eor	r25, r25
    5ab8:	53 c1       	rjmp	.+678    	; 0x0x5d60
    5aba:	80 91 0f 01 	lds	r24, 0x010F
    5abe:	81 30       	cpi	r24, 0x01	; 1
    5ac0:	b1 f4       	brne	.+44     	; 0x0x5aee
    5ac2:	9f b7       	in	r25, 0x3f	; 63
    5ac4:	f8 94       	cli
    5ac6:	80 91 d3 01 	lds	r24, 0x01D3
    5aca:	8f 3f       	cpi	r24, 0xFF	; 255
    5acc:	09 f0       	breq	.+2      	; 0x0x5ad0
    5ace:	46 c1       	rjmp	.+652    	; 0x0x5d5c
    5ad0:	80 91 d9 01 	lds	r24, 0x01D9
    5ad4:	88 30       	cpi	r24, 0x08	; 8
    5ad6:	09 f0       	breq	.+2      	; 0x0x5ada
    5ad8:	12 c3       	rjmp	.+1572   	; 0x0x60fe
    5ada:	40 c1       	rjmp	.+640    	; 0x0x5d5c
    5adc:	88 e0       	ldi	r24, 0x08	; 8
    5ade:	32 c1       	rjmp	.+612    	; 0x0x5d44
    5ae0:	e0 91 d9 01 	lds	r30, 0x01D9
    5ae4:	ff 27       	eor	r31, r31
    5ae6:	e5 53       	subi	r30, 0x35	; 53
    5ae8:	fe 4f       	sbci	r31, 0xFE	; 254
    5aea:	88 e0       	ldi	r24, 0x08	; 8
    5aec:	34 c1       	rjmp	.+616    	; 0x0x5d56
    5aee:	82 30       	cpi	r24, 0x02	; 2
    5af0:	09 f0       	breq	.+2      	; 0x0x5af4
    5af2:	5d c3       	rjmp	.+1722   	; 0x0x61ae
    5af4:	10 92 07 01 	sts	0x0107, r1
    5af8:	83 e0       	ldi	r24, 0x03	; 3
    5afa:	80 93 0f 01 	sts	0x010F, r24
    5afe:	57 c3       	rjmp	.+1710   	; 0x0x61ae
    5b00:	81 60       	ori	r24, 0x01	; 1
    5b02:	80 93 57 01 	sts	0x0157, r24
    5b06:	53 c3       	rjmp	.+1702   	; 0x0x61ae
    5b08:	82 e0       	ldi	r24, 0x02	; 2
    5b0a:	80 93 52 01 	sts	0x0152, r24
    5b0e:	4f c3       	rjmp	.+1694   	; 0x0x61ae
    5b10:	5a 3a       	cpi	r21, 0xAA	; 170
    5b12:	11 f0       	breq	.+4      	; 0x0x5b18
    5b14:	55 35       	cpi	r21, 0x55	; 85
    5b16:	29 f4       	brne	.+10     	; 0x0x5b22
    5b18:	85 2f       	mov	r24, r21
    5b1a:	99 27       	eor	r25, r25
    5b1c:	98 2f       	mov	r25, r24
    5b1e:	88 27       	eor	r24, r24
    5b20:	14 c0       	rjmp	.+40     	; 0x0x5b4a
    5b22:	80 91 8b 01 	lds	r24, 0x018B
    5b26:	90 91 8c 01 	lds	r25, 0x018C
    5b2a:	01 96       	adiw	r24, 0x01	; 1
    5b2c:	90 93 8c 01 	sts	0x018C, r25
    5b30:	80 93 8b 01 	sts	0x018B, r24
    5b34:	81 30       	cpi	r24, 0x01	; 1
    5b36:	91 05       	cpc	r25, r1
    5b38:	69 f4       	brne	.+26     	; 0x0x5b54
    5b3a:	25 2f       	mov	r18, r21
    5b3c:	33 27       	eor	r19, r19
    5b3e:	80 91 b1 01 	lds	r24, 0x01B1
    5b42:	90 91 b2 01 	lds	r25, 0x01B2
    5b46:	82 2b       	or	r24, r18
    5b48:	93 2b       	or	r25, r19
    5b4a:	90 93 b2 01 	sts	0x01B2, r25
    5b4e:	80 93 b1 01 	sts	0x01B1, r24
    5b52:	2d c3       	rjmp	.+1626   	; 0x0x61ae
    5b54:	07 97       	sbiw	r24, 0x07	; 7
    5b56:	08 f0       	brcs	.+2      	; 0x0x5b5a
    5b58:	c9 c0       	rjmp	.+402    	; 0x0x5cec
    5b5a:	60 91 b1 01 	lds	r22, 0x01B1
    5b5e:	70 91 b2 01 	lds	r23, 0x01B2
    5b62:	96 2f       	mov	r25, r22
    5b64:	88 27       	eor	r24, r24
    5b66:	25 2f       	mov	r18, r21
    5b68:	33 27       	eor	r19, r19
    5b6a:	82 2b       	or	r24, r18
    5b6c:	93 2b       	or	r25, r19
    5b6e:	90 93 b2 01 	sts	0x01B2, r25
    5b72:	80 93 b1 01 	sts	0x01B1, r24
    5b76:	a7 e0       	ldi	r26, 0x07	; 7
    5b78:	66 0f       	add	r22, r22
    5b7a:	77 1f       	adc	r23, r23
    5b7c:	57 fd       	sbrc	r21, 7
    5b7e:	61 60       	ori	r22, 0x01	; 1
    5b80:	23 e3       	ldi	r18, 0x33	; 51
    5b82:	6c 3c       	cpi	r22, 0xCC	; 204
    5b84:	72 07       	cpc	r23, r18
    5b86:	09 f0       	breq	.+2      	; 0x0x5b8a
    5b88:	ab c0       	rjmp	.+342    	; 0x0x5ce0
    5b8a:	e0 91 02 01 	lds	r30, 0x0102
    5b8e:	f0 91 03 01 	lds	r31, 0x0103
    5b92:	84 e0       	ldi	r24, 0x04	; 4
    5b94:	80 93 91 01 	sts	0x0191, r24
    5b98:	8c e1       	ldi	r24, 0x1C	; 28
    5b9a:	84 83       	std	Z+4, r24	; 0x04
    5b9c:	10 92 8c 01 	sts	0x018C, r1
    5ba0:	10 92 8b 01 	sts	0x018B, r1
    5ba4:	10 92 dc 01 	sts	0x01DC, r1
    5ba8:	10 92 db 01 	sts	0x01DB, r1
    5bac:	80 91 04 01 	lds	r24, 0x0104
    5bb0:	84 30       	cpi	r24, 0x04	; 4
    5bb2:	19 f0       	breq	.+6      	; 0x0x5bba
    5bb4:	85 e0       	ldi	r24, 0x05	; 5
    5bb6:	80 93 04 01 	sts	0x0104, r24
    5bba:	22 e0       	ldi	r18, 0x02	; 2
    5bbc:	20 93 0d 01 	sts	0x010D, r18
    5bc0:	8a 2f       	mov	r24, r26
    5bc2:	87 70       	andi	r24, 0x07	; 7
    5bc4:	88 0f       	add	r24, r24
    5bc6:	88 0f       	add	r24, r24
    5bc8:	88 0f       	add	r24, r24
    5bca:	90 91 dd 01 	lds	r25, 0x01DD
    5bce:	97 7c       	andi	r25, 0xC7	; 199
    5bd0:	98 2b       	or	r25, r24
    5bd2:	90 93 dd 01 	sts	0x01DD, r25
    5bd6:	80 91 04 01 	lds	r24, 0x0104
    5bda:	84 30       	cpi	r24, 0x04	; 4
    5bdc:	09 f0       	breq	.+2      	; 0x0x5be0
    5bde:	7e c0       	rjmp	.+252    	; 0x0x5cdc
    5be0:	10 92 04 01 	sts	0x0104, r1
    5be4:	80 91 0f 01 	lds	r24, 0x010F
    5be8:	88 23       	and	r24, r24
    5bea:	e9 f4       	brne	.+58     	; 0x0x5c26
    5bec:	20 93 0f 01 	sts	0x010F, r18
    5bf0:	10 92 8e 01 	sts	0x018E, r1
    5bf4:	37 9a       	sbi	0x06, 7	; 6
    5bf6:	80 91 07 01 	lds	r24, 0x0107
    5bfa:	81 30       	cpi	r24, 0x01	; 1
    5bfc:	29 f4       	brne	.+10     	; 0x0x5c08
    5bfe:	10 92 07 01 	sts	0x0107, r1
    5c02:	83 e0       	ldi	r24, 0x03	; 3
    5c04:	80 93 0f 01 	sts	0x010F, r24
    5c08:	90 91 07 01 	lds	r25, 0x0107
    5c0c:	99 23       	and	r25, r25
    5c0e:	09 f4       	brne	.+2      	; 0x0x5c12
    5c10:	7c c2       	rjmp	.+1272   	; 0x0x610a
    5c12:	81 e0       	ldi	r24, 0x01	; 1
    5c14:	80 93 0f 01 	sts	0x010F, r24
    5c18:	10 92 8e 01 	sts	0x018E, r1
    5c1c:	37 9a       	sbi	0x06, 7	; 6
    5c1e:	91 30       	cpi	r25, 0x01	; 1
    5c20:	09 f0       	breq	.+2      	; 0x0x5c24
    5c22:	5e c0       	rjmp	.+188    	; 0x0x5ce0
    5c24:	2e c0       	rjmp	.+92     	; 0x0x5c82
    5c26:	80 91 57 01 	lds	r24, 0x0157
    5c2a:	80 ff       	sbrs	r24, 0
    5c2c:	53 c0       	rjmp	.+166    	; 0x0x5cd4
    5c2e:	58 c0       	rjmp	.+176    	; 0x0x5ce0
    5c30:	83 3c       	cpi	r24, 0xC3	; 195
    5c32:	91 05       	cpc	r25, r1
    5c34:	18 f0       	brcs	.+6      	; 0x0x5c3c
    5c36:	86 e0       	ldi	r24, 0x06	; 6
    5c38:	90 e0       	ldi	r25, 0x00	; 0
    5c3a:	19 c0       	rjmp	.+50     	; 0x0x5c6e
    5c3c:	81 36       	cpi	r24, 0x61	; 97
    5c3e:	91 05       	cpc	r25, r1
    5c40:	18 f0       	brcs	.+6      	; 0x0x5c48
    5c42:	85 e0       	ldi	r24, 0x05	; 5
    5c44:	90 e0       	ldi	r25, 0x00	; 0
    5c46:	13 c0       	rjmp	.+38     	; 0x0x5c6e
    5c48:	80 33       	cpi	r24, 0x30	; 48
    5c4a:	91 05       	cpc	r25, r1
    5c4c:	18 f0       	brcs	.+6      	; 0x0x5c54
    5c4e:	84 e0       	ldi	r24, 0x04	; 4
    5c50:	90 e0       	ldi	r25, 0x00	; 0
    5c52:	0d c0       	rjmp	.+26     	; 0x0x5c6e
    5c54:	88 31       	cpi	r24, 0x18	; 24
    5c56:	91 05       	cpc	r25, r1
    5c58:	18 f0       	brcs	.+6      	; 0x0x5c60
    5c5a:	83 e0       	ldi	r24, 0x03	; 3
    5c5c:	90 e0       	ldi	r25, 0x00	; 0
    5c5e:	07 c0       	rjmp	.+14     	; 0x0x5c6e
    5c60:	0c 97       	sbiw	r24, 0x0c	; 12
    5c62:	18 f0       	brcs	.+6      	; 0x0x5c6a
    5c64:	82 e0       	ldi	r24, 0x02	; 2
    5c66:	90 e0       	ldi	r25, 0x00	; 0
    5c68:	02 c0       	rjmp	.+4      	; 0x0x5c6e
    5c6a:	80 e0       	ldi	r24, 0x00	; 0
    5c6c:	90 e0       	ldi	r25, 0x00	; 0
    5c6e:	87 70       	andi	r24, 0x07	; 7
    5c70:	38 7d       	andi	r19, 0xD8	; 216
    5c72:	83 2b       	or	r24, r19
    5c74:	88 6d       	ori	r24, 0xD8	; 216
    5c76:	38 2f       	mov	r19, r24
    5c78:	99 27       	eor	r25, r25
    5c7a:	86 b9       	out	0x06, r24	; 6
    5c7c:	84 2f       	mov	r24, r20
    5c7e:	99 27       	eor	r25, r25
    5c80:	1f c0       	rjmp	.+62     	; 0x0x5cc0
    5c82:	80 91 0f 01 	lds	r24, 0x010F
    5c86:	81 30       	cpi	r24, 0x01	; 1
    5c88:	e9 f4       	brne	.+58     	; 0x0x5cc4
    5c8a:	9f b7       	in	r25, 0x3f	; 63
    5c8c:	f8 94       	cli
    5c8e:	80 91 d3 01 	lds	r24, 0x01D3
    5c92:	8f 3f       	cpi	r24, 0xFF	; 255
    5c94:	99 f4       	brne	.+38     	; 0x0x5cbc
    5c96:	80 91 d9 01 	lds	r24, 0x01D9
    5c9a:	88 30       	cpi	r24, 0x08	; 8
    5c9c:	09 f0       	breq	.+2      	; 0x0x5ca0
    5c9e:	61 c2       	rjmp	.+1218   	; 0x0x6162
    5ca0:	0d c0       	rjmp	.+26     	; 0x0x5cbc
    5ca2:	88 e0       	ldi	r24, 0x08	; 8
    5ca4:	80 93 ca 01 	sts	0x01CA, r24
    5ca8:	07 c0       	rjmp	.+14     	; 0x0x5cb8
    5caa:	e0 91 d9 01 	lds	r30, 0x01D9
    5cae:	ff 27       	eor	r31, r31
    5cb0:	e5 53       	subi	r30, 0x35	; 53
    5cb2:	fe 4f       	sbci	r31, 0xFE	; 254
    5cb4:	88 e0       	ldi	r24, 0x08	; 8
    5cb6:	80 83       	st	Z, r24
    5cb8:	80 93 d9 01 	sts	0x01D9, r24
    5cbc:	89 2f       	mov	r24, r25
    5cbe:	99 27       	eor	r25, r25
    5cc0:	8f bf       	out	0x3f, r24	; 63
    5cc2:	0e c0       	rjmp	.+28     	; 0x0x5ce0
    5cc4:	82 30       	cpi	r24, 0x02	; 2
    5cc6:	61 f4       	brne	.+24     	; 0x0x5ce0
    5cc8:	10 92 07 01 	sts	0x0107, r1
    5ccc:	83 e0       	ldi	r24, 0x03	; 3
    5cce:	80 93 0f 01 	sts	0x010F, r24
    5cd2:	06 c0       	rjmp	.+12     	; 0x0x5ce0
    5cd4:	81 60       	ori	r24, 0x01	; 1
    5cd6:	80 93 57 01 	sts	0x0157, r24
    5cda:	02 c0       	rjmp	.+4      	; 0x0x5ce0
    5cdc:	10 92 52 01 	sts	0x0152, r1
    5ce0:	a1 50       	subi	r26, 0x01	; 1
    5ce2:	af 3f       	cpi	r26, 0xFF	; 255
    5ce4:	09 f4       	brne	.+2      	; 0x0x5ce8
    5ce6:	63 c2       	rjmp	.+1222   	; 0x0x61ae
    5ce8:	55 0f       	add	r21, r21
    5cea:	46 cf       	rjmp	.-372    	; 0x0x5b78
    5cec:	82 e0       	ldi	r24, 0x02	; 2
    5cee:	b7 cc       	rjmp	.-1682   	; 0x0x565e
    5cf0:	e0 91 02 01 	lds	r30, 0x0102
    5cf4:	f0 91 03 01 	lds	r31, 0x0103
    5cf8:	44 81       	ldd	r20, Z+4	; 0x04
    5cfa:	4d 31       	cpi	r20, 0x1D	; 29
    5cfc:	98 f1       	brcs	.+102    	; 0x0x5d64
    5cfe:	82 e0       	ldi	r24, 0x02	; 2
    5d00:	80 93 91 01 	sts	0x0191, r24
    5d04:	10 92 8c 01 	sts	0x018C, r1
    5d08:	10 92 8b 01 	sts	0x018B, r1
    5d0c:	80 91 0d 01 	lds	r24, 0x010D
    5d10:	82 30       	cpi	r24, 0x02	; 2
    5d12:	09 f0       	breq	.+2      	; 0x0x5d16
    5d14:	4c c2       	rjmp	.+1176   	; 0x0x61ae
    5d16:	80 91 04 01 	lds	r24, 0x0104
    5d1a:	84 30       	cpi	r24, 0x04	; 4
    5d1c:	19 f0       	breq	.+6      	; 0x0x5d24
    5d1e:	85 e0       	ldi	r24, 0x05	; 5
    5d20:	80 93 04 01 	sts	0x0104, r24
    5d24:	81 e0       	ldi	r24, 0x01	; 1
    5d26:	80 93 0d 01 	sts	0x010D, r24
    5d2a:	9f b7       	in	r25, 0x3f	; 63
    5d2c:	f8 94       	cli
    5d2e:	80 91 cd 01 	lds	r24, 0x01CD
    5d32:	8f 3f       	cpi	r24, 0xFF	; 255
    5d34:	99 f4       	brne	.+38     	; 0x0x5d5c
    5d36:	80 91 d9 01 	lds	r24, 0x01D9
    5d3a:	82 30       	cpi	r24, 0x02	; 2
    5d3c:	09 f0       	breq	.+2      	; 0x0x5d40
    5d3e:	17 c2       	rjmp	.+1070   	; 0x0x616e
    5d40:	0d c0       	rjmp	.+26     	; 0x0x5d5c
    5d42:	82 e0       	ldi	r24, 0x02	; 2
    5d44:	80 93 ca 01 	sts	0x01CA, r24
    5d48:	07 c0       	rjmp	.+14     	; 0x0x5d58
    5d4a:	e0 91 d9 01 	lds	r30, 0x01D9
    5d4e:	ff 27       	eor	r31, r31
    5d50:	e5 53       	subi	r30, 0x35	; 53
    5d52:	fe 4f       	sbci	r31, 0xFE	; 254
    5d54:	82 e0       	ldi	r24, 0x02	; 2
    5d56:	80 83       	st	Z, r24
    5d58:	80 93 d9 01 	sts	0x01D9, r24
    5d5c:	89 2f       	mov	r24, r25
    5d5e:	99 27       	eor	r25, r25
    5d60:	8f bf       	out	0x3f, r24	; 63
    5d62:	25 c2       	rjmp	.+1098   	; 0x0x61ae
    5d64:	80 91 b1 01 	lds	r24, 0x01B1
    5d68:	90 91 b2 01 	lds	r25, 0x01B2
    5d6c:	98 2f       	mov	r25, r24
    5d6e:	88 27       	eor	r24, r24
    5d70:	25 2f       	mov	r18, r21
    5d72:	33 27       	eor	r19, r19
    5d74:	82 2b       	or	r24, r18
    5d76:	93 2b       	or	r25, r19
    5d78:	90 93 b2 01 	sts	0x01B2, r25
    5d7c:	80 93 b1 01 	sts	0x01B1, r24
    5d80:	66 95       	lsr	r22
    5d82:	66 95       	lsr	r22
    5d84:	66 95       	lsr	r22
    5d86:	67 70       	andi	r22, 0x07	; 7
    5d88:	02 c0       	rjmp	.+4      	; 0x0x5d8e
    5d8a:	96 95       	lsr	r25
    5d8c:	87 95       	ror	r24
    5d8e:	6a 95       	dec	r22
    5d90:	e2 f7       	brpl	.-8      	; 0x0x5d8a
    5d92:	bc 01       	movw	r22, r24
    5d94:	80 91 8b 01 	lds	r24, 0x018B
    5d98:	90 91 8c 01 	lds	r25, 0x018C
    5d9c:	e8 0f       	add	r30, r24
    5d9e:	f9 1f       	adc	r31, r25
    5da0:	60 83       	st	Z, r22
    5da2:	8c 01       	movw	r16, r24
    5da4:	0f 5f       	subi	r16, 0xFF	; 255
    5da6:	1f 4f       	sbci	r17, 0xFF	; 255
    5da8:	10 93 8c 01 	sts	0x018C, r17
    5dac:	00 93 8b 01 	sts	0x018B, r16
    5db0:	49 5f       	subi	r20, 0xF9	; 249
    5db2:	e4 2e       	mov	r14, r20
    5db4:	ff 24       	eor	r15, r15
    5db6:	e0 16       	cp	r14, r16
    5db8:	f1 06       	cpc	r15, r17
    5dba:	50 f0       	brcs	.+20     	; 0x0x5dd0
    5dbc:	80 91 db 01 	lds	r24, 0x01DB
    5dc0:	90 91 dc 01 	lds	r25, 0x01DC
    5dc4:	0e 94 af 01 	call	0x35e	; 0x0x35e
    5dc8:	90 93 dc 01 	sts	0x01DC, r25
    5dcc:	80 93 db 01 	sts	0x01DB, r24
    5dd0:	0e 15       	cp	r16, r14
    5dd2:	1f 05       	cpc	r17, r15
    5dd4:	09 f4       	brne	.+2      	; 0x0x5dd8
    5dd6:	d7 c1       	rjmp	.+942    	; 0x0x6186
    5dd8:	05 32       	cpi	r16, 0x25	; 37
    5dda:	11 05       	cpc	r17, r1
    5ddc:	09 f0       	breq	.+2      	; 0x0x5de0
    5dde:	e7 c1       	rjmp	.+974    	; 0x0x61ae
    5de0:	e0 91 02 01 	lds	r30, 0x0102
    5de4:	f0 91 03 01 	lds	r31, 0x0103
    5de8:	84 a1       	ldd	r24, Z+36	; 0x24
    5dea:	23 a1       	ldd	r18, Z+35	; 0x23
    5dec:	40 e0       	ldi	r20, 0x00	; 0
    5dee:	50 e0       	ldi	r21, 0x00	; 0
    5df0:	99 27       	eor	r25, r25
    5df2:	98 2f       	mov	r25, r24
    5df4:	88 27       	eor	r24, r24
    5df6:	33 27       	eor	r19, r19
    5df8:	82 2b       	or	r24, r18
    5dfa:	93 2b       	or	r25, r19
    5dfc:	20 91 db 01 	lds	r18, 0x01DB
    5e00:	30 91 dc 01 	lds	r19, 0x01DC
    5e04:	82 17       	cp	r24, r18
    5e06:	93 07       	cpc	r25, r19
    5e08:	11 f4       	brne	.+4      	; 0x0x5e0e
    5e0a:	41 e0       	ldi	r20, 0x01	; 1
    5e0c:	50 e0       	ldi	r21, 0x00	; 0
    5e0e:	24 2f       	mov	r18, r20
    5e10:	43 a3       	std	Z+35, r20	; 0x23
    5e12:	85 2f       	mov	r24, r21
    5e14:	99 27       	eor	r25, r25
    5e16:	48 2f       	mov	r20, r24
    5e18:	84 a3       	std	Z+36, r24	; 0x24
    5e1a:	80 91 dd 01 	lds	r24, 0x01DD
    5e1e:	80 ff       	sbrs	r24, 0
    5e20:	10 c1       	rjmp	.+544    	; 0x0x6042
    5e22:	84 2f       	mov	r24, r20
    5e24:	99 27       	eor	r25, r25
    5e26:	98 2f       	mov	r25, r24
    5e28:	88 27       	eor	r24, r24
    5e2a:	33 27       	eor	r19, r19
    5e2c:	82 2b       	or	r24, r18
    5e2e:	93 2b       	or	r25, r19
    5e30:	89 2b       	or	r24, r25
    5e32:	09 f4       	brne	.+2      	; 0x0x5e36
    5e34:	06 c1       	rjmp	.+524    	; 0x0x6042
    5e36:	80 81       	ld	r24, Z
    5e38:	41 81       	ldd	r20, Z+1	; 0x01
    5e3a:	2f b7       	in	r18, 0x3f	; 63
    5e3c:	f8 94       	cli
    5e3e:	33 27       	eor	r19, r19
    5e40:	60 91 08 01 	lds	r22, 0x0108
    5e44:	70 91 09 01 	lds	r23, 0x0109
    5e48:	2f bf       	out	0x3f, r18	; 63
    5e4a:	99 27       	eor	r25, r25
    5e4c:	98 2f       	mov	r25, r24
    5e4e:	88 27       	eor	r24, r24
    5e50:	55 27       	eor	r21, r21
    5e52:	84 2b       	or	r24, r20
    5e54:	95 2b       	or	r25, r21
    5e56:	86 17       	cp	r24, r22
    5e58:	97 07       	cpc	r25, r23
    5e5a:	09 f0       	breq	.+2      	; 0x0x5e5e
    5e5c:	f2 c0       	rjmp	.+484    	; 0x0x6042
    5e5e:	86 e0       	ldi	r24, 0x06	; 6
    5e60:	80 93 91 01 	sts	0x0191, r24
    5e64:	10 92 8c 01 	sts	0x018C, r1
    5e68:	10 92 8b 01 	sts	0x018B, r1
    5e6c:	94 98       	cbi	0x12, 4	; 18
    5e6e:	80 e0       	ldi	r24, 0x00	; 0
    5e70:	97 98       	cbi	0x12, 7	; 18
    5e72:	96 98       	cbi	0x12, 6	; 18
    5e74:	96 9a       	sbi	0x12, 6	; 18
    5e76:	8f 5f       	subi	r24, 0xFF	; 255
    5e78:	87 30       	cpi	r24, 0x07	; 7
    5e7a:	d1 f7       	brne	.-12     	; 0x0x5e70
    5e7c:	97 9a       	sbi	0x12, 7	; 18
    5e7e:	96 98       	cbi	0x12, 6	; 18
    5e80:	96 9a       	sbi	0x12, 6	; 18
    5e82:	94 9a       	sbi	0x12, 4	; 18
    5e84:	91 ee       	ldi	r25, 0xE1	; 225
    5e86:	80 e0       	ldi	r24, 0x00	; 0
    5e88:	97 ff       	sbrs	r25, 7
    5e8a:	02 c0       	rjmp	.+4      	; 0x0x5e90
    5e8c:	97 9a       	sbi	0x12, 7	; 18
    5e8e:	01 c0       	rjmp	.+2      	; 0x0x5e92
    5e90:	97 98       	cbi	0x12, 7	; 18
    5e92:	96 98       	cbi	0x12, 6	; 18
    5e94:	96 9a       	sbi	0x12, 6	; 18
    5e96:	8f 5f       	subi	r24, 0xFF	; 255
    5e98:	88 30       	cpi	r24, 0x08	; 8
    5e9a:	11 f0       	breq	.+4      	; 0x0x5ea0
    5e9c:	99 0f       	add	r25, r25
    5e9e:	f4 cf       	rjmp	.-24     	; 0x0x5e88
    5ea0:	94 9a       	sbi	0x12, 4	; 18
    5ea2:	97 9a       	sbi	0x12, 7	; 18
    5ea4:	96 9a       	sbi	0x12, 6	; 18
    5ea6:	20 91 c8 01 	lds	r18, 0x01C8
    5eaa:	94 98       	cbi	0x12, 4	; 18
    5eac:	92 e1       	ldi	r25, 0x12	; 18
    5eae:	80 e0       	ldi	r24, 0x00	; 0
    5eb0:	97 ff       	sbrs	r25, 7
    5eb2:	02 c0       	rjmp	.+4      	; 0x0x5eb8
    5eb4:	97 9a       	sbi	0x12, 7	; 18
    5eb6:	01 c0       	rjmp	.+2      	; 0x0x5eba
    5eb8:	97 98       	cbi	0x12, 7	; 18
    5eba:	96 98       	cbi	0x12, 6	; 18
    5ebc:	96 9a       	sbi	0x12, 6	; 18
    5ebe:	8f 5f       	subi	r24, 0xFF	; 255
    5ec0:	87 30       	cpi	r24, 0x07	; 7
    5ec2:	11 f0       	breq	.+4      	; 0x0x5ec8
    5ec4:	99 0f       	add	r25, r25
    5ec6:	f4 cf       	rjmp	.-24     	; 0x0x5eb0
    5ec8:	97 9a       	sbi	0x12, 7	; 18
    5eca:	96 98       	cbi	0x12, 6	; 18
    5ecc:	96 9a       	sbi	0x12, 6	; 18
    5ece:	94 9a       	sbi	0x12, 4	; 18
    5ed0:	80 e0       	ldi	r24, 0x00	; 0
    5ed2:	27 ff       	sbrs	r18, 7
    5ed4:	02 c0       	rjmp	.+4      	; 0x0x5eda
    5ed6:	97 9a       	sbi	0x12, 7	; 18
    5ed8:	01 c0       	rjmp	.+2      	; 0x0x5edc
    5eda:	97 98       	cbi	0x12, 7	; 18
    5edc:	96 98       	cbi	0x12, 6	; 18
    5ede:	96 9a       	sbi	0x12, 6	; 18
    5ee0:	8f 5f       	subi	r24, 0xFF	; 255
    5ee2:	88 30       	cpi	r24, 0x08	; 8
    5ee4:	11 f0       	breq	.+4      	; 0x0x5eea
    5ee6:	22 0f       	add	r18, r18
    5ee8:	f4 cf       	rjmp	.-24     	; 0x0x5ed2
    5eea:	94 9a       	sbi	0x12, 4	; 18
    5eec:	97 9a       	sbi	0x12, 7	; 18
    5eee:	96 9a       	sbi	0x12, 6	; 18
    5ef0:	8a ef       	ldi	r24, 0xFA	; 250
    5ef2:	90 e0       	ldi	r25, 0x00	; 0
    5ef4:	01 97       	sbiw	r24, 0x01	; 1
    5ef6:	01 96       	adiw	r24, 0x01	; 1
    5ef8:	01 97       	sbiw	r24, 0x01	; 1
    5efa:	e1 f7       	brne	.-8      	; 0x0x5ef4
    5efc:	20 91 92 01 	lds	r18, 0x0192
    5f00:	94 98       	cbi	0x12, 4	; 18
    5f02:	96 e1       	ldi	r25, 0x16	; 22
    5f04:	80 e0       	ldi	r24, 0x00	; 0
    5f06:	97 ff       	sbrs	r25, 7
    5f08:	02 c0       	rjmp	.+4      	; 0x0x5f0e
    5f0a:	97 9a       	sbi	0x12, 7	; 18
    5f0c:	01 c0       	rjmp	.+2      	; 0x0x5f10
    5f0e:	97 98       	cbi	0x12, 7	; 18
    5f10:	96 98       	cbi	0x12, 6	; 18
    5f12:	96 9a       	sbi	0x12, 6	; 18
    5f14:	8f 5f       	subi	r24, 0xFF	; 255
    5f16:	87 30       	cpi	r24, 0x07	; 7
    5f18:	11 f0       	breq	.+4      	; 0x0x5f1e
    5f1a:	99 0f       	add	r25, r25
    5f1c:	f4 cf       	rjmp	.-24     	; 0x0x5f06
    5f1e:	97 9a       	sbi	0x12, 7	; 18
    5f20:	96 98       	cbi	0x12, 6	; 18
    5f22:	96 9a       	sbi	0x12, 6	; 18
    5f24:	94 9a       	sbi	0x12, 4	; 18
    5f26:	80 e0       	ldi	r24, 0x00	; 0
    5f28:	27 ff       	sbrs	r18, 7
    5f2a:	02 c0       	rjmp	.+4      	; 0x0x5f30
    5f2c:	97 9a       	sbi	0x12, 7	; 18
    5f2e:	01 c0       	rjmp	.+2      	; 0x0x5f32
    5f30:	97 98       	cbi	0x12, 7	; 18
    5f32:	96 98       	cbi	0x12, 6	; 18
    5f34:	96 9a       	sbi	0x12, 6	; 18
    5f36:	8f 5f       	subi	r24, 0xFF	; 255
    5f38:	88 30       	cpi	r24, 0x08	; 8
    5f3a:	11 f0       	breq	.+4      	; 0x0x5f40
    5f3c:	22 0f       	add	r18, r18
    5f3e:	f4 cf       	rjmp	.-24     	; 0x0x5f28
    5f40:	94 9a       	sbi	0x12, 4	; 18
    5f42:	97 9a       	sbi	0x12, 7	; 18
    5f44:	96 9a       	sbi	0x12, 6	; 18
    5f46:	84 e1       	ldi	r24, 0x14	; 20
    5f48:	90 e0       	ldi	r25, 0x00	; 0
    5f4a:	01 97       	sbiw	r24, 0x01	; 1
    5f4c:	01 96       	adiw	r24, 0x01	; 1
    5f4e:	01 97       	sbiw	r24, 0x01	; 1
    5f50:	e1 f7       	brne	.-8      	; 0x0x5f4a
    5f52:	bb 9a       	sbi	0x17, 3	; 23
    5f54:	ba 9a       	sbi	0x17, 2	; 23
    5f56:	8a ea       	ldi	r24, 0xAA	; 170
    5f58:	9a c0       	rjmp	.+308    	; 0x0x608e
    5f5a:	e0 91 8b 01 	lds	r30, 0x018B
    5f5e:	f0 91 8c 01 	lds	r31, 0x018C
    5f62:	31 96       	adiw	r30, 0x01	; 1
    5f64:	f0 93 8c 01 	sts	0x018C, r31
    5f68:	e0 93 8b 01 	sts	0x018B, r30
    5f6c:	e0 31       	cpi	r30, 0x10	; 16
    5f6e:	f1 05       	cpc	r31, r1
    5f70:	08 f4       	brcc	.+2      	; 0x0x5f74
    5f72:	85 c0       	rjmp	.+266    	; 0x0x607e
    5f74:	20 91 96 01 	lds	r18, 0x0196
    5f78:	94 98       	cbi	0x12, 4	; 18
    5f7a:	92 e1       	ldi	r25, 0x12	; 18
    5f7c:	80 e0       	ldi	r24, 0x00	; 0
    5f7e:	97 ff       	sbrs	r25, 7
    5f80:	02 c0       	rjmp	.+4      	; 0x0x5f86
    5f82:	97 9a       	sbi	0x12, 7	; 18
    5f84:	01 c0       	rjmp	.+2      	; 0x0x5f88
    5f86:	97 98       	cbi	0x12, 7	; 18
    5f88:	96 98       	cbi	0x12, 6	; 18
    5f8a:	96 9a       	sbi	0x12, 6	; 18
    5f8c:	8f 5f       	subi	r24, 0xFF	; 255
    5f8e:	87 30       	cpi	r24, 0x07	; 7
    5f90:	11 f0       	breq	.+4      	; 0x0x5f96
    5f92:	99 0f       	add	r25, r25
    5f94:	f4 cf       	rjmp	.-24     	; 0x0x5f7e
    5f96:	97 9a       	sbi	0x12, 7	; 18
    5f98:	96 98       	cbi	0x12, 6	; 18
    5f9a:	96 9a       	sbi	0x12, 6	; 18
    5f9c:	94 9a       	sbi	0x12, 4	; 18
    5f9e:	80 e0       	ldi	r24, 0x00	; 0
    5fa0:	27 ff       	sbrs	r18, 7
    5fa2:	02 c0       	rjmp	.+4      	; 0x0x5fa8
    5fa4:	97 9a       	sbi	0x12, 7	; 18
    5fa6:	01 c0       	rjmp	.+2      	; 0x0x5faa
    5fa8:	97 98       	cbi	0x12, 7	; 18
    5faa:	96 98       	cbi	0x12, 6	; 18
    5fac:	96 9a       	sbi	0x12, 6	; 18
    5fae:	8f 5f       	subi	r24, 0xFF	; 255
    5fb0:	88 30       	cpi	r24, 0x08	; 8
    5fb2:	11 f0       	breq	.+4      	; 0x0x5fb8
    5fb4:	22 0f       	add	r18, r18
    5fb6:	f4 cf       	rjmp	.-24     	; 0x0x5fa0
    5fb8:	94 9a       	sbi	0x12, 4	; 18
    5fba:	97 9a       	sbi	0x12, 7	; 18
    5fbc:	96 9a       	sbi	0x12, 6	; 18
    5fbe:	94 98       	cbi	0x12, 4	; 18
    5fc0:	96 e1       	ldi	r25, 0x16	; 22
    5fc2:	80 e0       	ldi	r24, 0x00	; 0
    5fc4:	97 ff       	sbrs	r25, 7
    5fc6:	02 c0       	rjmp	.+4      	; 0x0x5fcc
    5fc8:	97 9a       	sbi	0x12, 7	; 18
    5fca:	01 c0       	rjmp	.+2      	; 0x0x5fce
    5fcc:	97 98       	cbi	0x12, 7	; 18
    5fce:	96 98       	cbi	0x12, 6	; 18
    5fd0:	96 9a       	sbi	0x12, 6	; 18
    5fd2:	8f 5f       	subi	r24, 0xFF	; 255
    5fd4:	87 30       	cpi	r24, 0x07	; 7
    5fd6:	11 f0       	breq	.+4      	; 0x0x5fdc
    5fd8:	99 0f       	add	r25, r25
    5fda:	f4 cf       	rjmp	.-24     	; 0x0x5fc4
    5fdc:	97 9a       	sbi	0x12, 7	; 18
    5fde:	96 98       	cbi	0x12, 6	; 18
    5fe0:	96 9a       	sbi	0x12, 6	; 18
    5fe2:	94 9a       	sbi	0x12, 4	; 18
    5fe4:	80 e0       	ldi	r24, 0x00	; 0
    5fe6:	97 98       	cbi	0x12, 7	; 18
    5fe8:	96 98       	cbi	0x12, 6	; 18
    5fea:	96 9a       	sbi	0x12, 6	; 18
    5fec:	8f 5f       	subi	r24, 0xFF	; 255
    5fee:	88 30       	cpi	r24, 0x08	; 8
    5ff0:	d1 f7       	brne	.-12     	; 0x0x5fe6
    5ff2:	94 9a       	sbi	0x12, 4	; 18
    5ff4:	97 9a       	sbi	0x12, 7	; 18
    5ff6:	96 9a       	sbi	0x12, 6	; 18
    5ff8:	94 98       	cbi	0x12, 4	; 18
    5ffa:	80 e0       	ldi	r24, 0x00	; 0
    5ffc:	97 98       	cbi	0x12, 7	; 18
    5ffe:	96 98       	cbi	0x12, 6	; 18
    6000:	96 9a       	sbi	0x12, 6	; 18
    6002:	8f 5f       	subi	r24, 0xFF	; 255
    6004:	87 30       	cpi	r24, 0x07	; 7
    6006:	d1 f7       	brne	.-12     	; 0x0x5ffc
    6008:	97 9a       	sbi	0x12, 7	; 18
    600a:	96 98       	cbi	0x12, 6	; 18
    600c:	96 9a       	sbi	0x12, 6	; 18
    600e:	94 9a       	sbi	0x12, 4	; 18
    6010:	91 e1       	ldi	r25, 0x11	; 17
    6012:	80 e0       	ldi	r24, 0x00	; 0
    6014:	97 ff       	sbrs	r25, 7
    6016:	02 c0       	rjmp	.+4      	; 0x0x601c
    6018:	97 9a       	sbi	0x12, 7	; 18
    601a:	01 c0       	rjmp	.+2      	; 0x0x601e
    601c:	97 98       	cbi	0x12, 7	; 18
    601e:	96 98       	cbi	0x12, 6	; 18
    6020:	96 9a       	sbi	0x12, 6	; 18
    6022:	8f 5f       	subi	r24, 0xFF	; 255
    6024:	88 30       	cpi	r24, 0x08	; 8
    6026:	11 f0       	breq	.+4      	; 0x0x602c
    6028:	99 0f       	add	r25, r25
    602a:	f4 cf       	rjmp	.-24     	; 0x0x6014
    602c:	94 9a       	sbi	0x12, 4	; 18
    602e:	97 9a       	sbi	0x12, 7	; 18
    6030:	96 9a       	sbi	0x12, 6	; 18
    6032:	8d e7       	ldi	r24, 0x7D	; 125
    6034:	90 e0       	ldi	r25, 0x00	; 0
    6036:	01 97       	sbiw	r24, 0x01	; 1
    6038:	01 96       	adiw	r24, 0x01	; 1
    603a:	01 97       	sbiw	r24, 0x01	; 1
    603c:	e1 f7       	brne	.-8      	; 0x0x6036
    603e:	bb 98       	cbi	0x17, 3	; 23
    6040:	ba 98       	cbi	0x17, 2	; 23
    6042:	9f b7       	in	r25, 0x3f	; 63
    6044:	f8 94       	cli
    6046:	80 91 d2 01 	lds	r24, 0x01D2
    604a:	8f 3f       	cpi	r24, 0xFF	; 255
    604c:	99 f4       	brne	.+38     	; 0x0x6074
    604e:	80 91 d9 01 	lds	r24, 0x01D9
    6052:	87 30       	cpi	r24, 0x07	; 7
    6054:	09 f0       	breq	.+2      	; 0x0x6058
    6056:	91 c0       	rjmp	.+290    	; 0x0x617a
    6058:	0d c0       	rjmp	.+26     	; 0x0x6074
    605a:	87 e0       	ldi	r24, 0x07	; 7
    605c:	80 93 ca 01 	sts	0x01CA, r24
    6060:	07 c0       	rjmp	.+14     	; 0x0x6070
    6062:	e0 91 d9 01 	lds	r30, 0x01D9
    6066:	ff 27       	eor	r31, r31
    6068:	e5 53       	subi	r30, 0x35	; 53
    606a:	fe 4f       	sbci	r31, 0xFE	; 254
    606c:	87 e0       	ldi	r24, 0x07	; 7
    606e:	80 83       	st	Z, r24
    6070:	80 93 d9 01 	sts	0x01D9, r24
    6074:	89 2f       	mov	r24, r25
    6076:	99 27       	eor	r25, r25
    6078:	8f bf       	out	0x3f, r24	; 63
    607a:	85 e0       	ldi	r24, 0x05	; 5
    607c:	96 c0       	rjmp	.+300    	; 0x0x61aa
    607e:	eb 30       	cpi	r30, 0x0B	; 11
    6080:	f1 05       	cpc	r31, r1
    6082:	08 f4       	brcc	.+2      	; 0x0x6086
    6084:	94 c0       	rjmp	.+296    	; 0x0x61ae
    6086:	e9 57       	subi	r30, 0x79	; 121
    6088:	fd 4f       	sbci	r31, 0xFD	; 253
    608a:	c8 95       	lpm
    608c:	80 2d       	mov	r24, r0
    608e:	80 93 93 01 	sts	0x0193, r24
    6092:	8d c0       	rjmp	.+282    	; 0x0x61ae
    6094:	80 91 ca 01 	lds	r24, 0x01CA
    6098:	8f 3f       	cpi	r24, 0xFF	; 255
    609a:	09 f0       	breq	.+2      	; 0x0x609e
    609c:	14 cc       	rjmp	.-2008   	; 0x0x58c6
    609e:	0f cc       	rjmp	.-2018   	; 0x0x58be
    60a0:	10 92 8c 01 	sts	0x018C, r1
    60a4:	10 92 8b 01 	sts	0x018B, r1
    60a8:	90 e0       	ldi	r25, 0x00	; 0
    60aa:	3b cc       	rjmp	.-1930   	; 0x0x5922
    60ac:	20 93 b3 01 	sts	0x01B3, r18
    60b0:	10 92 ba 01 	sts	0x01BA, r1
    60b4:	3f b7       	in	r19, 0x3f	; 63
    60b6:	f8 94       	cli
    60b8:	90 91 d7 01 	lds	r25, 0x01D7
    60bc:	89 2f       	mov	r24, r25
    60be:	8e 7f       	andi	r24, 0xFE	; 254
    60c0:	80 93 d7 01 	sts	0x01D7, r24
    60c4:	87 b1       	in	r24, 0x07	; 7
    60c6:	20 e0       	ldi	r18, 0x00	; 0
    60c8:	82 95       	swap	r24
    60ca:	86 95       	lsr	r24
    60cc:	86 95       	lsr	r24
    60ce:	83 70       	andi	r24, 0x03	; 3
    60d0:	09 f0       	breq	.+2      	; 0x0x60d4
    60d2:	21 e0       	ldi	r18, 0x01	; 1
    60d4:	81 e0       	ldi	r24, 0x01	; 1
    60d6:	28 27       	eor	r18, r24
    60d8:	22 0f       	add	r18, r18
    60da:	9c 7f       	andi	r25, 0xFC	; 252
    60dc:	92 2b       	or	r25, r18
    60de:	93 78       	andi	r25, 0x83	; 131
    60e0:	90 93 d7 01 	sts	0x01D7, r25
    60e4:	17 b8       	out	0x07, r1	; 7
    60e6:	80 91 97 01 	lds	r24, 0x0197
    60ea:	90 91 98 01 	lds	r25, 0x0198
    60ee:	e1 e0       	ldi	r30, 0x01	; 1
    60f0:	86 38       	cpi	r24, 0x86	; 134
    60f2:	9e 07       	cpc	r25, r30
    60f4:	08 f4       	brcc	.+2      	; 0x0x60f8
    60f6:	b8 cc       	rjmp	.-1680   	; 0x0x5a68
    60f8:	87 e0       	ldi	r24, 0x07	; 7
    60fa:	90 e0       	ldi	r25, 0x00	; 0
    60fc:	d4 cc       	rjmp	.-1624   	; 0x0x5aa6
    60fe:	80 91 ca 01 	lds	r24, 0x01CA
    6102:	8f 3f       	cpi	r24, 0xFF	; 255
    6104:	09 f0       	breq	.+2      	; 0x0x6108
    6106:	ec cc       	rjmp	.-1576   	; 0x0x5ae0
    6108:	e9 cc       	rjmp	.-1582   	; 0x0x5adc
    610a:	20 93 b3 01 	sts	0x01B3, r18
    610e:	10 92 ba 01 	sts	0x01BA, r1
    6112:	4f b7       	in	r20, 0x3f	; 63
    6114:	f8 94       	cli
    6116:	90 91 d7 01 	lds	r25, 0x01D7
    611a:	89 2f       	mov	r24, r25
    611c:	8e 7f       	andi	r24, 0xFE	; 254
    611e:	80 93 d7 01 	sts	0x01D7, r24
    6122:	87 b1       	in	r24, 0x07	; 7
    6124:	20 e0       	ldi	r18, 0x00	; 0
    6126:	82 95       	swap	r24
    6128:	86 95       	lsr	r24
    612a:	86 95       	lsr	r24
    612c:	83 70       	andi	r24, 0x03	; 3
    612e:	09 f0       	breq	.+2      	; 0x0x6132
    6130:	21 e0       	ldi	r18, 0x01	; 1
    6132:	81 e0       	ldi	r24, 0x01	; 1
    6134:	28 27       	eor	r18, r24
    6136:	22 0f       	add	r18, r18
    6138:	9c 7f       	andi	r25, 0xFC	; 252
    613a:	92 2b       	or	r25, r18
    613c:	93 78       	andi	r25, 0x83	; 131
    613e:	90 93 d7 01 	sts	0x01D7, r25
    6142:	b0 e0       	ldi	r27, 0x00	; 0
    6144:	8b 2f       	mov	r24, r27
    6146:	99 27       	eor	r25, r25
    6148:	87 b9       	out	0x07, r24	; 7
    614a:	80 91 97 01 	lds	r24, 0x0197
    614e:	90 91 98 01 	lds	r25, 0x0198
    6152:	f1 e0       	ldi	r31, 0x01	; 1
    6154:	86 38       	cpi	r24, 0x86	; 134
    6156:	9f 07       	cpc	r25, r31
    6158:	08 f4       	brcc	.+2      	; 0x0x615c
    615a:	6a cd       	rjmp	.-1324   	; 0x0x5c30
    615c:	87 e0       	ldi	r24, 0x07	; 7
    615e:	90 e0       	ldi	r25, 0x00	; 0
    6160:	86 cd       	rjmp	.-1268   	; 0x0x5c6e
    6162:	80 91 ca 01 	lds	r24, 0x01CA
    6166:	8f 3f       	cpi	r24, 0xFF	; 255
    6168:	09 f0       	breq	.+2      	; 0x0x616c
    616a:	9f cd       	rjmp	.-1218   	; 0x0x5caa
    616c:	9a cd       	rjmp	.-1228   	; 0x0x5ca2
    616e:	80 91 ca 01 	lds	r24, 0x01CA
    6172:	8f 3f       	cpi	r24, 0xFF	; 255
    6174:	09 f0       	breq	.+2      	; 0x0x6178
    6176:	e9 cd       	rjmp	.-1070   	; 0x0x5d4a
    6178:	e4 cd       	rjmp	.-1080   	; 0x0x5d42
    617a:	80 91 ca 01 	lds	r24, 0x01CA
    617e:	8f 3f       	cpi	r24, 0xFF	; 255
    6180:	09 f0       	breq	.+2      	; 0x0x6184
    6182:	6f cf       	rjmp	.-290    	; 0x0x6062
    6184:	6a cf       	rjmp	.-300    	; 0x0x605a
    6186:	83 e2       	ldi	r24, 0x23	; 35
    6188:	90 e0       	ldi	r25, 0x00	; 0
    618a:	90 93 8c 01 	sts	0x018C, r25
    618e:	80 93 8b 01 	sts	0x018B, r24
    6192:	0d c0       	rjmp	.+26     	; 0x0x61ae
    6194:	90 93 b2 01 	sts	0x01B2, r25
    6198:	80 93 b1 01 	sts	0x01B1, r24
    619c:	e0 91 59 01 	lds	r30, 0x0159
    61a0:	f0 91 5a 01 	lds	r31, 0x015A
    61a4:	81 e0       	ldi	r24, 0x01	; 1
    61a6:	87 a3       	std	Z+39, r24	; 0x27
    61a8:	8e e0       	ldi	r24, 0x0E	; 14
    61aa:	80 93 91 01 	sts	0x0191, r24
    61ae:	28 96       	adiw	r28, 0x08	; 8
    61b0:	f8 94       	cli
    61b2:	de bf       	out	0x3e, r29	; 62
    61b4:	cd bf       	out	0x3d, r28	; 61
    61b6:	df 91       	pop	r29
    61b8:	cf 91       	pop	r28
    61ba:	ff 91       	pop	r31
    61bc:	ef 91       	pop	r30
    61be:	bf 91       	pop	r27
    61c0:	af 91       	pop	r26
    61c2:	9f 91       	pop	r25
    61c4:	8f 91       	pop	r24
    61c6:	7f 91       	pop	r23
    61c8:	6f 91       	pop	r22
    61ca:	5f 91       	pop	r21
    61cc:	4f 91       	pop	r20
    61ce:	3f 91       	pop	r19
    61d0:	2f 91       	pop	r18
    61d2:	1f 91       	pop	r17
    61d4:	0f 91       	pop	r16
    61d6:	ff 90       	pop	r15
    61d8:	ef 90       	pop	r14
    61da:	df 90       	pop	r13
    61dc:	cf 90       	pop	r12
    61de:	bf 90       	pop	r11
    61e0:	af 90       	pop	r10
    61e2:	9f 90       	pop	r9
    61e4:	8f 90       	pop	r8
    61e6:	7f 90       	pop	r7
    61e8:	6f 90       	pop	r6
    61ea:	5f 90       	pop	r5
    61ec:	4f 90       	pop	r4
    61ee:	3f 90       	pop	r3
    61f0:	2f 90       	pop	r2
    61f2:	0f 90       	pop	r0
    61f4:	0f be       	out	0x3f, r0	; 63
    61f6:	0f 90       	pop	r0
    61f8:	1f 90       	pop	r1
    61fa:	18 95       	reti
    61fc:	1f 92       	push	r1
    61fe:	0f 92       	push	r0
    6200:	0f b6       	in	r0, 0x3f	; 63
    6202:	0f 92       	push	r0
    6204:	11 24       	eor	r1, r1
    6206:	2f 92       	push	r2
    6208:	3f 92       	push	r3
    620a:	4f 92       	push	r4
    620c:	5f 92       	push	r5
    620e:	6f 92       	push	r6
    6210:	7f 92       	push	r7
    6212:	8f 92       	push	r8
    6214:	9f 92       	push	r9
    6216:	af 92       	push	r10
    6218:	bf 92       	push	r11
    621a:	cf 92       	push	r12
    621c:	df 92       	push	r13
    621e:	ef 92       	push	r14
    6220:	ff 92       	push	r15
    6222:	0f 93       	push	r16
    6224:	1f 93       	push	r17
    6226:	2f 93       	push	r18
    6228:	3f 93       	push	r19
    622a:	4f 93       	push	r20
    622c:	5f 93       	push	r21
    622e:	6f 93       	push	r22
    6230:	7f 93       	push	r23
    6232:	8f 93       	push	r24
    6234:	9f 93       	push	r25
    6236:	af 93       	push	r26
    6238:	bf 93       	push	r27
    623a:	ef 93       	push	r30
    623c:	ff 93       	push	r31
    623e:	cf 93       	push	r28
    6240:	df 93       	push	r29
    6242:	cd b7       	in	r28, 0x3d	; 61
    6244:	de b7       	in	r29, 0x3e	; 62
    6246:	29 97       	sbiw	r28, 0x09	; 9
    6248:	de bf       	out	0x3e, r29	; 62
    624a:	cd bf       	out	0x3d, r28	; 61
    624c:	44 b1       	in	r20, 0x04	; 4
    624e:	55 b1       	in	r21, 0x05	; 5
    6250:	78 94       	sei
    6252:	8f b7       	in	r24, 0x3f	; 63
    6254:	f8 94       	cli
    6256:	99 27       	eor	r25, r25
    6258:	20 91 d7 01 	lds	r18, 0x01D7
    625c:	32 2f       	mov	r19, r18
    625e:	36 95       	lsr	r19
    6260:	31 70       	andi	r19, 0x01	; 1
    6262:	21 70       	andi	r18, 0x01	; 1
    6264:	8f bf       	out	0x3f, r24	; 63
    6266:	22 23       	and	r18, r18
    6268:	09 f0       	breq	.+2      	; 0x0x626c
    626a:	06 c4       	rjmp	.+2060   	; 0x0x6a78
    626c:	33 98       	cbi	0x06, 3	; 6
    626e:	80 91 b3 01 	lds	r24, 0x01B3
    6272:	81 30       	cpi	r24, 0x01	; 1
    6274:	21 f0       	breq	.+8      	; 0x0x627e
    6276:	82 30       	cpi	r24, 0x02	; 2
    6278:	09 f0       	breq	.+2      	; 0x0x627c
    627a:	5c c4       	rjmp	.+2232   	; 0x0x6b34
    627c:	6f c0       	rjmp	.+222    	; 0x0x635c
    627e:	33 23       	and	r19, r19
    6280:	09 f0       	breq	.+2      	; 0x0x6284
    6282:	4c c0       	rjmp	.+152    	; 0x0x631c
    6284:	80 91 ba 01 	lds	r24, 0x01BA
    6288:	88 23       	and	r24, r24
    628a:	19 f0       	breq	.+6      	; 0x0x6292
    628c:	2f e1       	ldi	r18, 0x1F	; 31
    628e:	70 e0       	ldi	r23, 0x00	; 0
    6290:	02 c0       	rjmp	.+4      	; 0x0x6296
    6292:	78 e0       	ldi	r23, 0x08	; 8
    6294:	20 e0       	ldi	r18, 0x00	; 0
    6296:	62 2f       	mov	r22, r18
    6298:	ef b7       	in	r30, 0x3f	; 63
    629a:	f8 94       	cli
    629c:	80 91 d7 01 	lds	r24, 0x01D7
    62a0:	8e 7f       	andi	r24, 0xFE	; 254
    62a2:	80 93 d7 01 	sts	0x01D7, r24
    62a6:	87 b1       	in	r24, 0x07	; 7
    62a8:	98 2f       	mov	r25, r24
    62aa:	9f 71       	andi	r25, 0x1F	; 31
    62ac:	82 95       	swap	r24
    62ae:	86 95       	lsr	r24
    62b0:	86 95       	lsr	r24
    62b2:	83 70       	andi	r24, 0x03	; 3
    62b4:	19 f0       	breq	.+6      	; 0x0x62bc
    62b6:	80 e0       	ldi	r24, 0x00	; 0
    62b8:	90 e0       	ldi	r25, 0x00	; 0
    62ba:	12 c0       	rjmp	.+36     	; 0x0x62e0
    62bc:	82 2f       	mov	r24, r18
    62be:	88 50       	subi	r24, 0x08	; 8
    62c0:	86 31       	cpi	r24, 0x16	; 22
    62c2:	18 f0       	brcs	.+6      	; 0x0x62ca
    62c4:	81 e0       	ldi	r24, 0x01	; 1
    62c6:	90 e0       	ldi	r25, 0x00	; 0
    62c8:	0b c0       	rjmp	.+22     	; 0x0x62e0
    62ca:	40 e0       	ldi	r20, 0x00	; 0
    62cc:	50 e0       	ldi	r21, 0x00	; 0
    62ce:	33 27       	eor	r19, r19
    62d0:	89 2f       	mov	r24, r25
    62d2:	99 27       	eor	r25, r25
    62d4:	28 17       	cp	r18, r24
    62d6:	39 07       	cpc	r19, r25
    62d8:	11 f4       	brne	.+4      	; 0x0x62de
    62da:	41 e0       	ldi	r20, 0x01	; 1
    62dc:	50 e0       	ldi	r21, 0x00	; 0
    62de:	ca 01       	movw	r24, r20
    62e0:	98 2f       	mov	r25, r24
    62e2:	91 70       	andi	r25, 0x01	; 1
    62e4:	99 0f       	add	r25, r25
    62e6:	80 91 d7 01 	lds	r24, 0x01D7
    62ea:	81 78       	andi	r24, 0x81	; 129
    62ec:	26 2f       	mov	r18, r22
    62ee:	2f 71       	andi	r18, 0x1F	; 31
    62f0:	42 2f       	mov	r20, r18
    62f2:	44 0f       	add	r20, r20
    62f4:	44 0f       	add	r20, r20
    62f6:	89 2b       	or	r24, r25
    62f8:	84 2b       	or	r24, r20
    62fa:	80 93 d7 01 	sts	0x01D7, r24
    62fe:	33 27       	eor	r19, r19
    6300:	27 b9       	out	0x07, r18	; 7
    6302:	78 30       	cpi	r23, 0x08	; 8
    6304:	09 f0       	breq	.+2      	; 0x0x6308
    6306:	99 c0       	rjmp	.+306    	; 0x0x643a
    6308:	80 91 97 01 	lds	r24, 0x0197
    630c:	90 91 98 01 	lds	r25, 0x0198
    6310:	21 e0       	ldi	r18, 0x01	; 1
    6312:	86 38       	cpi	r24, 0x86	; 134
    6314:	92 07       	cpc	r25, r18
    6316:	08 f0       	brcs	.+2      	; 0x0x631a
    6318:	6d c0       	rjmp	.+218    	; 0x0x63f4
    631a:	6f c0       	rjmp	.+222    	; 0x0x63fa
    631c:	50 93 56 01 	sts	0x0156, r21
    6320:	40 93 55 01 	sts	0x0155, r20
    6324:	9f b7       	in	r25, 0x3f	; 63
    6326:	f8 94       	cli
    6328:	80 91 d4 01 	lds	r24, 0x01D4
    632c:	8f 3f       	cpi	r24, 0xFF	; 255
    632e:	99 f4       	brne	.+38     	; 0x0x6356
    6330:	80 91 d9 01 	lds	r24, 0x01D9
    6334:	89 30       	cpi	r24, 0x09	; 9
    6336:	09 f0       	breq	.+2      	; 0x0x633a
    6338:	c6 c3       	rjmp	.+1932   	; 0x0x6ac6
    633a:	0d c0       	rjmp	.+26     	; 0x0x6356
    633c:	89 e0       	ldi	r24, 0x09	; 9
    633e:	80 93 ca 01 	sts	0x01CA, r24
    6342:	07 c0       	rjmp	.+14     	; 0x0x6352
    6344:	e0 91 d9 01 	lds	r30, 0x01D9
    6348:	ff 27       	eor	r31, r31
    634a:	e5 53       	subi	r30, 0x35	; 53
    634c:	fe 4f       	sbci	r31, 0xFE	; 254
    634e:	89 e0       	ldi	r24, 0x09	; 9
    6350:	80 83       	st	Z, r24
    6352:	80 93 d9 01 	sts	0x01D9, r24
    6356:	89 2f       	mov	r24, r25
    6358:	99 27       	eor	r25, r25
    635a:	8c c3       	rjmp	.+1816   	; 0x0x6a74
    635c:	80 91 ba 01 	lds	r24, 0x01BA
    6360:	33 23       	and	r19, r19
    6362:	09 f0       	breq	.+2      	; 0x0x6366
    6364:	73 c0       	rjmp	.+230    	; 0x0x644c
    6366:	88 23       	and	r24, r24
    6368:	19 f0       	breq	.+6      	; 0x0x6370
    636a:	2f e1       	ldi	r18, 0x1F	; 31
    636c:	70 e0       	ldi	r23, 0x00	; 0
    636e:	02 c0       	rjmp	.+4      	; 0x0x6374
    6370:	78 e0       	ldi	r23, 0x08	; 8
    6372:	20 e0       	ldi	r18, 0x00	; 0
    6374:	62 2f       	mov	r22, r18
    6376:	ef b7       	in	r30, 0x3f	; 63
    6378:	f8 94       	cli
    637a:	80 91 d7 01 	lds	r24, 0x01D7
    637e:	8e 7f       	andi	r24, 0xFE	; 254
    6380:	80 93 d7 01 	sts	0x01D7, r24
    6384:	87 b1       	in	r24, 0x07	; 7
    6386:	98 2f       	mov	r25, r24
    6388:	9f 71       	andi	r25, 0x1F	; 31
    638a:	82 95       	swap	r24
    638c:	86 95       	lsr	r24
    638e:	86 95       	lsr	r24
    6390:	83 70       	andi	r24, 0x03	; 3
    6392:	19 f0       	breq	.+6      	; 0x0x639a
    6394:	80 e0       	ldi	r24, 0x00	; 0
    6396:	90 e0       	ldi	r25, 0x00	; 0
    6398:	12 c0       	rjmp	.+36     	; 0x0x63be
    639a:	82 2f       	mov	r24, r18
    639c:	88 50       	subi	r24, 0x08	; 8
    639e:	86 31       	cpi	r24, 0x16	; 22
    63a0:	18 f0       	brcs	.+6      	; 0x0x63a8
    63a2:	81 e0       	ldi	r24, 0x01	; 1
    63a4:	90 e0       	ldi	r25, 0x00	; 0
    63a6:	0b c0       	rjmp	.+22     	; 0x0x63be
    63a8:	40 e0       	ldi	r20, 0x00	; 0
    63aa:	50 e0       	ldi	r21, 0x00	; 0
    63ac:	33 27       	eor	r19, r19
    63ae:	89 2f       	mov	r24, r25
    63b0:	99 27       	eor	r25, r25
    63b2:	28 17       	cp	r18, r24
    63b4:	39 07       	cpc	r19, r25
    63b6:	11 f4       	brne	.+4      	; 0x0x63bc
    63b8:	41 e0       	ldi	r20, 0x01	; 1
    63ba:	50 e0       	ldi	r21, 0x00	; 0
    63bc:	ca 01       	movw	r24, r20
    63be:	98 2f       	mov	r25, r24
    63c0:	91 70       	andi	r25, 0x01	; 1
    63c2:	99 0f       	add	r25, r25
    63c4:	80 91 d7 01 	lds	r24, 0x01D7
    63c8:	81 78       	andi	r24, 0x81	; 129
    63ca:	26 2f       	mov	r18, r22
    63cc:	2f 71       	andi	r18, 0x1F	; 31
    63ce:	42 2f       	mov	r20, r18
    63d0:	44 0f       	add	r20, r20
    63d2:	44 0f       	add	r20, r20
    63d4:	89 2b       	or	r24, r25
    63d6:	84 2b       	or	r24, r20
    63d8:	80 93 d7 01 	sts	0x01D7, r24
    63dc:	33 27       	eor	r19, r19
    63de:	27 b9       	out	0x07, r18	; 7
    63e0:	78 30       	cpi	r23, 0x08	; 8
    63e2:	59 f5       	brne	.+86     	; 0x0x643a
    63e4:	80 91 97 01 	lds	r24, 0x0197
    63e8:	90 91 98 01 	lds	r25, 0x0198
    63ec:	f1 e0       	ldi	r31, 0x01	; 1
    63ee:	86 38       	cpi	r24, 0x86	; 134
    63f0:	9f 07       	cpc	r25, r31
    63f2:	18 f0       	brcs	.+6      	; 0x0x63fa
    63f4:	87 e0       	ldi	r24, 0x07	; 7
    63f6:	90 e0       	ldi	r25, 0x00	; 0
    63f8:	1f c0       	rjmp	.+62     	; 0x0x6438
    63fa:	83 3c       	cpi	r24, 0xC3	; 195
    63fc:	91 05       	cpc	r25, r1
    63fe:	18 f0       	brcs	.+6      	; 0x0x6406
    6400:	86 e0       	ldi	r24, 0x06	; 6
    6402:	90 e0       	ldi	r25, 0x00	; 0
    6404:	19 c0       	rjmp	.+50     	; 0x0x6438
    6406:	81 36       	cpi	r24, 0x61	; 97
    6408:	91 05       	cpc	r25, r1
    640a:	18 f0       	brcs	.+6      	; 0x0x6412
    640c:	85 e0       	ldi	r24, 0x05	; 5
    640e:	90 e0       	ldi	r25, 0x00	; 0
    6410:	13 c0       	rjmp	.+38     	; 0x0x6438
    6412:	80 33       	cpi	r24, 0x30	; 48
    6414:	91 05       	cpc	r25, r1
    6416:	18 f0       	brcs	.+6      	; 0x0x641e
    6418:	84 e0       	ldi	r24, 0x04	; 4
    641a:	90 e0       	ldi	r25, 0x00	; 0
    641c:	0d c0       	rjmp	.+26     	; 0x0x6438
    641e:	88 31       	cpi	r24, 0x18	; 24
    6420:	91 05       	cpc	r25, r1
    6422:	18 f0       	brcs	.+6      	; 0x0x642a
    6424:	83 e0       	ldi	r24, 0x03	; 3
    6426:	90 e0       	ldi	r25, 0x00	; 0
    6428:	07 c0       	rjmp	.+14     	; 0x0x6438
    642a:	0c 97       	sbiw	r24, 0x0c	; 12
    642c:	18 f0       	brcs	.+6      	; 0x0x6434
    642e:	82 e0       	ldi	r24, 0x02	; 2
    6430:	90 e0       	ldi	r25, 0x00	; 0
    6432:	02 c0       	rjmp	.+4      	; 0x0x6438
    6434:	80 e0       	ldi	r24, 0x00	; 0
    6436:	90 e0       	ldi	r25, 0x00	; 0
    6438:	78 2f       	mov	r23, r24
    643a:	77 70       	andi	r23, 0x07	; 7
    643c:	88 7d       	andi	r24, 0xD8	; 216
    643e:	87 2b       	or	r24, r23
    6440:	88 6d       	ori	r24, 0xD8	; 216
    6442:	99 27       	eor	r25, r25
    6444:	86 b9       	out	0x06, r24	; 6
    6446:	8e 2f       	mov	r24, r30
    6448:	99 27       	eor	r25, r25
    644a:	14 c3       	rjmp	.+1576   	; 0x0x6a74
    644c:	10 92 b3 01 	sts	0x01B3, r1
    6450:	88 23       	and	r24, r24
    6452:	09 f0       	breq	.+2      	; 0x0x6456
    6454:	6f c3       	rjmp	.+1758   	; 0x0x6b34
    6456:	2f b7       	in	r18, 0x3f	; 63
    6458:	29 83       	std	Y+1, r18	; 0x01
    645a:	f8 94       	cli
    645c:	60 91 04 01 	lds	r22, 0x0104
    6460:	61 30       	cpi	r22, 0x01	; 1
    6462:	91 f0       	breq	.+36     	; 0x0x6488
    6464:	61 30       	cpi	r22, 0x01	; 1
    6466:	38 f0       	brcs	.+14     	; 0x0x6476
    6468:	62 30       	cpi	r22, 0x02	; 2
    646a:	09 f4       	brne	.+2      	; 0x0x646e
    646c:	43 c0       	rjmp	.+134    	; 0x0x64f4
    646e:	63 30       	cpi	r22, 0x03	; 3
    6470:	09 f0       	breq	.+2      	; 0x0x6474
    6472:	46 c2       	rjmp	.+1164   	; 0x0x6900
    6474:	41 c1       	rjmp	.+642    	; 0x0x66f8
    6476:	e0 91 02 01 	lds	r30, 0x0102
    647a:	f0 91 03 01 	lds	r31, 0x0103
    647e:	46 a3       	std	Z+38, r20	; 0x26
    6480:	85 2f       	mov	r24, r21
    6482:	99 27       	eor	r25, r25
    6484:	85 a3       	std	Z+37, r24	; 0x25
    6486:	3c c2       	rjmp	.+1144   	; 0x0x6900
    6488:	50 93 90 01 	sts	0x0190, r21
    648c:	40 93 8f 01 	sts	0x018F, r20
    6490:	9f b7       	in	r25, 0x3f	; 63
    6492:	f8 94       	cli
    6494:	80 91 d0 01 	lds	r24, 0x01D0
    6498:	8f 3f       	cpi	r24, 0xFF	; 255
    649a:	99 f4       	brne	.+38     	; 0x0x64c2
    649c:	80 91 d9 01 	lds	r24, 0x01D9
    64a0:	85 30       	cpi	r24, 0x05	; 5
    64a2:	09 f0       	breq	.+2      	; 0x0x64a6
    64a4:	16 c3       	rjmp	.+1580   	; 0x0x6ad2
    64a6:	0d c0       	rjmp	.+26     	; 0x0x64c2
    64a8:	85 e0       	ldi	r24, 0x05	; 5
    64aa:	80 93 ca 01 	sts	0x01CA, r24
    64ae:	07 c0       	rjmp	.+14     	; 0x0x64be
    64b0:	e0 91 d9 01 	lds	r30, 0x01D9
    64b4:	ff 27       	eor	r31, r31
    64b6:	e5 53       	subi	r30, 0x35	; 53
    64b8:	fe 4f       	sbci	r31, 0xFE	; 254
    64ba:	85 e0       	ldi	r24, 0x05	; 5
    64bc:	80 83       	st	Z, r24
    64be:	80 93 d9 01 	sts	0x01D9, r24
    64c2:	89 2f       	mov	r24, r25
    64c4:	99 27       	eor	r25, r25
    64c6:	8f bf       	out	0x3f, r24	; 63
    64c8:	9f b7       	in	r25, 0x3f	; 63
    64ca:	f8 94       	cli
    64cc:	80 91 cf 01 	lds	r24, 0x01CF
    64d0:	8f 3f       	cpi	r24, 0xFF	; 255
    64d2:	09 f0       	breq	.+2      	; 0x0x64d6
    64d4:	69 c1       	rjmp	.+722    	; 0x0x67a8
    64d6:	80 91 d9 01 	lds	r24, 0x01D9
    64da:	84 30       	cpi	r24, 0x04	; 4
    64dc:	09 f0       	breq	.+2      	; 0x0x64e0
    64de:	ff c2       	rjmp	.+1534   	; 0x0x6ade
    64e0:	63 c1       	rjmp	.+710    	; 0x0x67a8
    64e2:	84 e0       	ldi	r24, 0x04	; 4
    64e4:	55 c1       	rjmp	.+682    	; 0x0x6790
    64e6:	e0 91 d9 01 	lds	r30, 0x01D9
    64ea:	ff 27       	eor	r31, r31
    64ec:	e5 53       	subi	r30, 0x35	; 53
    64ee:	fe 4f       	sbci	r31, 0xFE	; 254
    64f0:	84 e0       	ldi	r24, 0x04	; 4
    64f2:	57 c1       	rjmp	.+686    	; 0x0x67a2
    64f4:	20 91 d8 01 	lds	r18, 0x01D8
    64f8:	2f 5f       	subi	r18, 0xFF	; 255
    64fa:	20 93 d8 01 	sts	0x01D8, r18
    64fe:	80 91 05 01 	lds	r24, 0x0105
    6502:	90 91 06 01 	lds	r25, 0x0106
    6506:	0c 96       	adiw	r24, 0x0c	; 12
    6508:	84 17       	cp	r24, r20
    650a:	95 07       	cpc	r25, r21
    650c:	40 f4       	brcc	.+16     	; 0x0x651e
    650e:	80 91 95 01 	lds	r24, 0x0195
    6512:	8f 5f       	subi	r24, 0xFF	; 255
    6514:	80 93 95 01 	sts	0x0195, r24
    6518:	88 23       	and	r24, r24
    651a:	39 f4       	brne	.+14     	; 0x0x652a
    651c:	02 c0       	rjmp	.+4      	; 0x0x6522
    651e:	10 92 95 01 	sts	0x0195, r1
    6522:	80 91 94 01 	lds	r24, 0x0194
    6526:	80 ff       	sbrs	r24, 0
    6528:	89 c0       	rjmp	.+274    	; 0x0x663c
    652a:	83 e0       	ldi	r24, 0x03	; 3
    652c:	80 93 0d 01 	sts	0x010D, r24
    6530:	87 e0       	ldi	r24, 0x07	; 7
    6532:	80 93 91 01 	sts	0x0191, r24
    6536:	10 92 8c 01 	sts	0x018C, r1
    653a:	10 92 8b 01 	sts	0x018B, r1
    653e:	10 92 dc 01 	sts	0x01DC, r1
    6542:	10 92 db 01 	sts	0x01DB, r1
    6546:	8a ea       	ldi	r24, 0xAA	; 170
    6548:	80 93 4f 01 	sts	0x014F, r24
    654c:	80 93 93 01 	sts	0x0193, r24
    6550:	94 98       	cbi	0x12, 4	; 18
    6552:	80 e0       	ldi	r24, 0x00	; 0
    6554:	97 98       	cbi	0x12, 7	; 18
    6556:	96 98       	cbi	0x12, 6	; 18
    6558:	96 9a       	sbi	0x12, 6	; 18
    655a:	8f 5f       	subi	r24, 0xFF	; 255
    655c:	87 30       	cpi	r24, 0x07	; 7
    655e:	d1 f7       	brne	.-12     	; 0x0x6554
    6560:	97 9a       	sbi	0x12, 7	; 18
    6562:	96 98       	cbi	0x12, 6	; 18
    6564:	96 9a       	sbi	0x12, 6	; 18
    6566:	94 9a       	sbi	0x12, 4	; 18
    6568:	91 ee       	ldi	r25, 0xE1	; 225
    656a:	80 e0       	ldi	r24, 0x00	; 0
    656c:	97 ff       	sbrs	r25, 7
    656e:	02 c0       	rjmp	.+4      	; 0x0x6574
    6570:	97 9a       	sbi	0x12, 7	; 18
    6572:	01 c0       	rjmp	.+2      	; 0x0x6576
    6574:	97 98       	cbi	0x12, 7	; 18
    6576:	96 98       	cbi	0x12, 6	; 18
    6578:	96 9a       	sbi	0x12, 6	; 18
    657a:	8f 5f       	subi	r24, 0xFF	; 255
    657c:	88 30       	cpi	r24, 0x08	; 8
    657e:	11 f0       	breq	.+4      	; 0x0x6584
    6580:	99 0f       	add	r25, r25
    6582:	f4 cf       	rjmp	.-24     	; 0x0x656c
    6584:	94 9a       	sbi	0x12, 4	; 18
    6586:	97 9a       	sbi	0x12, 7	; 18
    6588:	96 9a       	sbi	0x12, 6	; 18
    658a:	20 91 c8 01 	lds	r18, 0x01C8
    658e:	94 98       	cbi	0x12, 4	; 18
    6590:	92 e1       	ldi	r25, 0x12	; 18
    6592:	80 e0       	ldi	r24, 0x00	; 0
    6594:	97 ff       	sbrs	r25, 7
    6596:	02 c0       	rjmp	.+4      	; 0x0x659c
    6598:	97 9a       	sbi	0x12, 7	; 18
    659a:	01 c0       	rjmp	.+2      	; 0x0x659e
    659c:	97 98       	cbi	0x12, 7	; 18
    659e:	96 98       	cbi	0x12, 6	; 18
    65a0:	96 9a       	sbi	0x12, 6	; 18
    65a2:	8f 5f       	subi	r24, 0xFF	; 255
    65a4:	87 30       	cpi	r24, 0x07	; 7
    65a6:	11 f0       	breq	.+4      	; 0x0x65ac
    65a8:	99 0f       	add	r25, r25
    65aa:	f4 cf       	rjmp	.-24     	; 0x0x6594
    65ac:	97 9a       	sbi	0x12, 7	; 18
    65ae:	96 98       	cbi	0x12, 6	; 18
    65b0:	96 9a       	sbi	0x12, 6	; 18
    65b2:	94 9a       	sbi	0x12, 4	; 18
    65b4:	80 e0       	ldi	r24, 0x00	; 0
    65b6:	27 ff       	sbrs	r18, 7
    65b8:	02 c0       	rjmp	.+4      	; 0x0x65be
    65ba:	97 9a       	sbi	0x12, 7	; 18
    65bc:	01 c0       	rjmp	.+2      	; 0x0x65c0
    65be:	97 98       	cbi	0x12, 7	; 18
    65c0:	96 98       	cbi	0x12, 6	; 18
    65c2:	96 9a       	sbi	0x12, 6	; 18
    65c4:	8f 5f       	subi	r24, 0xFF	; 255
    65c6:	88 30       	cpi	r24, 0x08	; 8
    65c8:	11 f0       	breq	.+4      	; 0x0x65ce
    65ca:	22 0f       	add	r18, r18
    65cc:	f4 cf       	rjmp	.-24     	; 0x0x65b6
    65ce:	94 9a       	sbi	0x12, 4	; 18
    65d0:	97 9a       	sbi	0x12, 7	; 18
    65d2:	96 9a       	sbi	0x12, 6	; 18
    65d4:	8a ef       	ldi	r24, 0xFA	; 250
    65d6:	90 e0       	ldi	r25, 0x00	; 0
    65d8:	01 97       	sbiw	r24, 0x01	; 1
    65da:	01 96       	adiw	r24, 0x01	; 1
    65dc:	01 97       	sbiw	r24, 0x01	; 1
    65de:	e1 f7       	brne	.-8      	; 0x0x65d8
    65e0:	20 91 92 01 	lds	r18, 0x0192
    65e4:	94 98       	cbi	0x12, 4	; 18
    65e6:	96 e1       	ldi	r25, 0x16	; 22
    65e8:	80 e0       	ldi	r24, 0x00	; 0
    65ea:	97 ff       	sbrs	r25, 7
    65ec:	02 c0       	rjmp	.+4      	; 0x0x65f2
    65ee:	97 9a       	sbi	0x12, 7	; 18
    65f0:	01 c0       	rjmp	.+2      	; 0x0x65f4
    65f2:	97 98       	cbi	0x12, 7	; 18
    65f4:	96 98       	cbi	0x12, 6	; 18
    65f6:	96 9a       	sbi	0x12, 6	; 18
    65f8:	8f 5f       	subi	r24, 0xFF	; 255
    65fa:	87 30       	cpi	r24, 0x07	; 7
    65fc:	11 f0       	breq	.+4      	; 0x0x6602
    65fe:	99 0f       	add	r25, r25
    6600:	f4 cf       	rjmp	.-24     	; 0x0x65ea
    6602:	97 9a       	sbi	0x12, 7	; 18
    6604:	96 98       	cbi	0x12, 6	; 18
    6606:	96 9a       	sbi	0x12, 6	; 18
    6608:	94 9a       	sbi	0x12, 4	; 18
    660a:	80 e0       	ldi	r24, 0x00	; 0
    660c:	27 ff       	sbrs	r18, 7
    660e:	02 c0       	rjmp	.+4      	; 0x0x6614
    6610:	97 9a       	sbi	0x12, 7	; 18
    6612:	01 c0       	rjmp	.+2      	; 0x0x6616
    6614:	97 98       	cbi	0x12, 7	; 18
    6616:	96 98       	cbi	0x12, 6	; 18
    6618:	96 9a       	sbi	0x12, 6	; 18
    661a:	8f 5f       	subi	r24, 0xFF	; 255
    661c:	88 30       	cpi	r24, 0x08	; 8
    661e:	11 f0       	breq	.+4      	; 0x0x6624
    6620:	22 0f       	add	r18, r18
    6622:	f4 cf       	rjmp	.-24     	; 0x0x660c
    6624:	94 9a       	sbi	0x12, 4	; 18
    6626:	97 9a       	sbi	0x12, 7	; 18
    6628:	96 9a       	sbi	0x12, 6	; 18
    662a:	84 e1       	ldi	r24, 0x14	; 20
    662c:	90 e0       	ldi	r25, 0x00	; 0
    662e:	01 97       	sbiw	r24, 0x01	; 1
    6630:	01 96       	adiw	r24, 0x01	; 1
    6632:	01 97       	sbiw	r24, 0x01	; 1
    6634:	e1 f7       	brne	.-8      	; 0x0x662e
    6636:	bb 9a       	sbi	0x17, 3	; 23
    6638:	ba 9a       	sbi	0x17, 2	; 23
    663a:	62 c1       	rjmp	.+708    	; 0x0x6900
    663c:	25 30       	cpi	r18, 0x05	; 5
    663e:	09 f0       	breq	.+2      	; 0x0x6642
    6640:	55 c0       	rjmp	.+170    	; 0x0x66ec
    6642:	20 90 87 01 	lds	r2, 0x0187
    6646:	30 90 88 01 	lds	r3, 0x0188
    664a:	40 90 89 01 	lds	r4, 0x0189
    664e:	50 90 8a 01 	lds	r5, 0x018A
    6652:	66 24       	eor	r6, r6
    6654:	77 24       	eor	r7, r7
    6656:	88 24       	eor	r8, r8
    6658:	9e e4       	ldi	r25, 0x4E	; 78
    665a:	a9 2e       	mov	r10, r25
    665c:	83 e8       	ldi	r24, 0x83	; 131
    665e:	b8 2e       	mov	r11, r24
    6660:	cc 24       	eor	r12, r12
    6662:	dd 24       	eor	r13, r13
    6664:	ee 24       	eor	r14, r14
    6666:	ff 24       	eor	r15, r15
    6668:	00 e0       	ldi	r16, 0x00	; 0
    666a:	10 e0       	ldi	r17, 0x00	; 0
    666c:	22 2d       	mov	r18, r2
    666e:	33 2d       	mov	r19, r3
    6670:	44 2d       	mov	r20, r4
    6672:	55 2d       	mov	r21, r5
    6674:	66 2d       	mov	r22, r6
    6676:	77 2d       	mov	r23, r7
    6678:	88 2d       	mov	r24, r8
    667a:	90 e0       	ldi	r25, 0x00	; 0
    667c:	0e 94 c1 35 	call	0x6b82	; 0x0x6b82
    6680:	2a 83       	std	Y+2, r18	; 0x02
    6682:	3b 83       	std	Y+3, r19	; 0x03
    6684:	4c 83       	std	Y+4, r20	; 0x04
    6686:	5d 83       	std	Y+5, r21	; 0x05
    6688:	6e 83       	std	Y+6, r22	; 0x06
    668a:	7f 83       	std	Y+7, r23	; 0x07
    668c:	88 87       	std	Y+8, r24	; 0x08
    668e:	99 87       	std	Y+9, r25	; 0x09
    6690:	82 2e       	mov	r8, r18
    6692:	93 2e       	mov	r9, r19
    6694:	a4 2e       	mov	r10, r20
    6696:	b5 2e       	mov	r11, r21
    6698:	24 01       	movw	r4, r8
    669a:	35 01       	movw	r6, r10
    669c:	00 e2       	ldi	r16, 0x20	; 32
    669e:	0e 94 bf 36 	call	0x6d7e	; 0x0x6d7e
    66a2:	a2 2e       	mov	r10, r18
    66a4:	b3 2e       	mov	r11, r19
    66a6:	c4 2e       	mov	r12, r20
    66a8:	d5 2e       	mov	r13, r21
    66aa:	19 2f       	mov	r17, r25
    66ac:	d3 01       	movw	r26, r6
    66ae:	c2 01       	movw	r24, r4
    66b0:	b6 95       	lsr	r27
    66b2:	a7 95       	ror	r26
    66b4:	97 95       	ror	r25
    66b6:	87 95       	ror	r24
    66b8:	8a 0d       	add	r24, r10
    66ba:	9b 1d       	adc	r25, r11
    66bc:	ac 1d       	adc	r26, r12
    66be:	bd 1d       	adc	r27, r13
    66c0:	b7 ff       	sbrs	r27, 7
    66c2:	04 c0       	rjmp	.+8      	; 0x0x66cc
    66c4:	bf 77       	andi	r27, 0x7F	; 127
    66c6:	01 96       	adiw	r24, 0x01	; 1
    66c8:	a1 1d       	adc	r26, r1
    66ca:	b1 1d       	adc	r27, r1
    66cc:	80 93 87 01 	sts	0x0187, r24
    66d0:	90 93 88 01 	sts	0x0188, r25
    66d4:	a0 93 89 01 	sts	0x0189, r26
    66d8:	b0 93 8a 01 	sts	0x018A, r27
    66dc:	8f 70       	andi	r24, 0x0F	; 15
    66de:	90 70       	andi	r25, 0x00	; 0
    66e0:	01 96       	adiw	r24, 0x01	; 1
    66e2:	90 93 b9 01 	sts	0x01B9, r25
    66e6:	80 93 b8 01 	sts	0x01B8, r24
    66ea:	0a c1       	rjmp	.+532    	; 0x0x6900
    66ec:	82 e0       	ldi	r24, 0x02	; 2
    66ee:	80 93 52 01 	sts	0x0152, r24
    66f2:	80 93 04 01 	sts	0x0104, r24
    66f6:	0b c1       	rjmp	.+534    	; 0x0x690e
    66f8:	80 91 05 01 	lds	r24, 0x0105
    66fc:	90 91 06 01 	lds	r25, 0x0106
    6700:	9c 01       	movw	r18, r24
    6702:	36 95       	lsr	r19
    6704:	27 95       	ror	r18
    6706:	36 95       	lsr	r19
    6708:	27 95       	ror	r18
    670a:	82 1b       	sub	r24, r18
    670c:	93 0b       	sbc	r25, r19
    670e:	84 17       	cp	r24, r20
    6710:	95 07       	cpc	r25, r21
    6712:	08 f0       	brcs	.+2      	; 0x0x6716
    6714:	4d c0       	rjmp	.+154    	; 0x0x67b0
    6716:	9f b7       	in	r25, 0x3f	; 63
    6718:	f8 94       	cli
    671a:	80 91 cf 01 	lds	r24, 0x01CF
    671e:	8f 3f       	cpi	r24, 0xFF	; 255
    6720:	99 f4       	brne	.+38     	; 0x0x6748
    6722:	80 91 d9 01 	lds	r24, 0x01D9
    6726:	84 30       	cpi	r24, 0x04	; 4
    6728:	09 f0       	breq	.+2      	; 0x0x672c
    672a:	df c1       	rjmp	.+958    	; 0x0x6aea
    672c:	0d c0       	rjmp	.+26     	; 0x0x6748
    672e:	84 e0       	ldi	r24, 0x04	; 4
    6730:	80 93 ca 01 	sts	0x01CA, r24
    6734:	07 c0       	rjmp	.+14     	; 0x0x6744
    6736:	e0 91 d9 01 	lds	r30, 0x01D9
    673a:	ff 27       	eor	r31, r31
    673c:	e5 53       	subi	r30, 0x35	; 53
    673e:	fe 4f       	sbci	r31, 0xFE	; 254
    6740:	84 e0       	ldi	r24, 0x04	; 4
    6742:	80 83       	st	Z, r24
    6744:	80 93 d9 01 	sts	0x01D9, r24
    6748:	89 2f       	mov	r24, r25
    674a:	99 27       	eor	r25, r25
    674c:	8f bf       	out	0x3f, r24	; 63
    674e:	80 91 05 01 	lds	r24, 0x0105
    6752:	90 91 06 01 	lds	r25, 0x0106
    6756:	9c 01       	movw	r18, r24
    6758:	e3 e0       	ldi	r30, 0x03	; 3
    675a:	36 95       	lsr	r19
    675c:	27 95       	ror	r18
    675e:	ea 95       	dec	r30
    6760:	e1 f7       	brne	.-8      	; 0x0x675a
    6762:	82 0f       	add	r24, r18
    6764:	93 1f       	adc	r25, r19
    6766:	48 17       	cp	r20, r24
    6768:	59 07       	cpc	r21, r25
    676a:	08 f0       	brcs	.+2      	; 0x0x676e
    676c:	c9 c0       	rjmp	.+402    	; 0x0x6900
    676e:	50 93 90 01 	sts	0x0190, r21
    6772:	40 93 8f 01 	sts	0x018F, r20
    6776:	9f b7       	in	r25, 0x3f	; 63
    6778:	f8 94       	cli
    677a:	80 91 d0 01 	lds	r24, 0x01D0
    677e:	8f 3f       	cpi	r24, 0xFF	; 255
    6780:	99 f4       	brne	.+38     	; 0x0x67a8
    6782:	80 91 d9 01 	lds	r24, 0x01D9
    6786:	85 30       	cpi	r24, 0x05	; 5
    6788:	09 f0       	breq	.+2      	; 0x0x678c
    678a:	b5 c1       	rjmp	.+874    	; 0x0x6af6
    678c:	0d c0       	rjmp	.+26     	; 0x0x67a8
    678e:	85 e0       	ldi	r24, 0x05	; 5
    6790:	80 93 ca 01 	sts	0x01CA, r24
    6794:	07 c0       	rjmp	.+14     	; 0x0x67a4
    6796:	e0 91 d9 01 	lds	r30, 0x01D9
    679a:	ff 27       	eor	r31, r31
    679c:	e5 53       	subi	r30, 0x35	; 53
    679e:	fe 4f       	sbci	r31, 0xFE	; 254
    67a0:	85 e0       	ldi	r24, 0x05	; 5
    67a2:	80 83       	st	Z, r24
    67a4:	80 93 d9 01 	sts	0x01D9, r24
    67a8:	89 2f       	mov	r24, r25
    67aa:	99 27       	eor	r25, r25
    67ac:	8f bf       	out	0x3f, r24	; 63
    67ae:	a8 c0       	rjmp	.+336    	; 0x0x6900
    67b0:	80 91 d8 01 	lds	r24, 0x01D8
    67b4:	8f 5f       	subi	r24, 0xFF	; 255
    67b6:	80 93 d8 01 	sts	0x01D8, r24
    67ba:	81 50       	subi	r24, 0x01	; 1
    67bc:	86 30       	cpi	r24, 0x06	; 6
    67be:	08 f4       	brcc	.+2      	; 0x0x67c2
    67c0:	94 c0       	rjmp	.+296    	; 0x0x68ea
    67c2:	85 e0       	ldi	r24, 0x05	; 5
    67c4:	80 93 04 01 	sts	0x0104, r24
    67c8:	81 e0       	ldi	r24, 0x01	; 1
    67ca:	80 93 0d 01 	sts	0x010D, r24
    67ce:	9f b7       	in	r25, 0x3f	; 63
    67d0:	f8 94       	cli
    67d2:	80 91 cd 01 	lds	r24, 0x01CD
    67d6:	8f 3f       	cpi	r24, 0xFF	; 255
    67d8:	99 f4       	brne	.+38     	; 0x0x6800
    67da:	80 91 d9 01 	lds	r24, 0x01D9
    67de:	82 30       	cpi	r24, 0x02	; 2
    67e0:	09 f0       	breq	.+2      	; 0x0x67e4
    67e2:	8f c1       	rjmp	.+798    	; 0x0x6b02
    67e4:	0d c0       	rjmp	.+26     	; 0x0x6800
    67e6:	82 e0       	ldi	r24, 0x02	; 2
    67e8:	80 93 ca 01 	sts	0x01CA, r24
    67ec:	07 c0       	rjmp	.+14     	; 0x0x67fc
    67ee:	e0 91 d9 01 	lds	r30, 0x01D9
    67f2:	ff 27       	eor	r31, r31
    67f4:	e5 53       	subi	r30, 0x35	; 53
    67f6:	fe 4f       	sbci	r31, 0xFE	; 254
    67f8:	82 e0       	ldi	r24, 0x02	; 2
    67fa:	80 83       	st	Z, r24
    67fc:	80 93 d9 01 	sts	0x01D9, r24
    6800:	89 2f       	mov	r24, r25
    6802:	99 27       	eor	r25, r25
    6804:	8f bf       	out	0x3f, r24	; 63
    6806:	82 e0       	ldi	r24, 0x02	; 2
    6808:	80 93 91 01 	sts	0x0191, r24
    680c:	10 92 8c 01 	sts	0x018C, r1
    6810:	10 92 8b 01 	sts	0x018B, r1
    6814:	20 91 96 01 	lds	r18, 0x0196
    6818:	94 98       	cbi	0x12, 4	; 18
    681a:	92 e1       	ldi	r25, 0x12	; 18
    681c:	80 e0       	ldi	r24, 0x00	; 0
    681e:	97 ff       	sbrs	r25, 7
    6820:	02 c0       	rjmp	.+4      	; 0x0x6826
    6822:	97 9a       	sbi	0x12, 7	; 18
    6824:	01 c0       	rjmp	.+2      	; 0x0x6828
    6826:	97 98       	cbi	0x12, 7	; 18
    6828:	96 98       	cbi	0x12, 6	; 18
    682a:	96 9a       	sbi	0x12, 6	; 18
    682c:	8f 5f       	subi	r24, 0xFF	; 255
    682e:	87 30       	cpi	r24, 0x07	; 7
    6830:	11 f0       	breq	.+4      	; 0x0x6836
    6832:	99 0f       	add	r25, r25
    6834:	f4 cf       	rjmp	.-24     	; 0x0x681e
    6836:	97 9a       	sbi	0x12, 7	; 18
    6838:	96 98       	cbi	0x12, 6	; 18
    683a:	96 9a       	sbi	0x12, 6	; 18
    683c:	94 9a       	sbi	0x12, 4	; 18
    683e:	80 e0       	ldi	r24, 0x00	; 0
    6840:	27 ff       	sbrs	r18, 7
    6842:	02 c0       	rjmp	.+4      	; 0x0x6848
    6844:	97 9a       	sbi	0x12, 7	; 18
    6846:	01 c0       	rjmp	.+2      	; 0x0x684a
    6848:	97 98       	cbi	0x12, 7	; 18
    684a:	96 98       	cbi	0x12, 6	; 18
    684c:	96 9a       	sbi	0x12, 6	; 18
    684e:	8f 5f       	subi	r24, 0xFF	; 255
    6850:	88 30       	cpi	r24, 0x08	; 8
    6852:	11 f0       	breq	.+4      	; 0x0x6858
    6854:	22 0f       	add	r18, r18
    6856:	f4 cf       	rjmp	.-24     	; 0x0x6840
    6858:	94 9a       	sbi	0x12, 4	; 18
    685a:	97 9a       	sbi	0x12, 7	; 18
    685c:	96 9a       	sbi	0x12, 6	; 18
    685e:	94 98       	cbi	0x12, 4	; 18
    6860:	96 e1       	ldi	r25, 0x16	; 22
    6862:	80 e0       	ldi	r24, 0x00	; 0
    6864:	97 ff       	sbrs	r25, 7
    6866:	02 c0       	rjmp	.+4      	; 0x0x686c
    6868:	97 9a       	sbi	0x12, 7	; 18
    686a:	01 c0       	rjmp	.+2      	; 0x0x686e
    686c:	97 98       	cbi	0x12, 7	; 18
    686e:	96 98       	cbi	0x12, 6	; 18
    6870:	96 9a       	sbi	0x12, 6	; 18
    6872:	8f 5f       	subi	r24, 0xFF	; 255
    6874:	87 30       	cpi	r24, 0x07	; 7
    6876:	11 f0       	breq	.+4      	; 0x0x687c
    6878:	99 0f       	add	r25, r25
    687a:	f4 cf       	rjmp	.-24     	; 0x0x6864
    687c:	97 9a       	sbi	0x12, 7	; 18
    687e:	96 98       	cbi	0x12, 6	; 18
    6880:	96 9a       	sbi	0x12, 6	; 18
    6882:	94 9a       	sbi	0x12, 4	; 18
    6884:	80 e0       	ldi	r24, 0x00	; 0
    6886:	97 98       	cbi	0x12, 7	; 18
    6888:	96 98       	cbi	0x12, 6	; 18
    688a:	96 9a       	sbi	0x12, 6	; 18
    688c:	8f 5f       	subi	r24, 0xFF	; 255
    688e:	88 30       	cpi	r24, 0x08	; 8
    6890:	d1 f7       	brne	.-12     	; 0x0x6886
    6892:	94 9a       	sbi	0x12, 4	; 18
    6894:	97 9a       	sbi	0x12, 7	; 18
    6896:	96 9a       	sbi	0x12, 6	; 18
    6898:	94 98       	cbi	0x12, 4	; 18
    689a:	80 e0       	ldi	r24, 0x00	; 0
    689c:	97 98       	cbi	0x12, 7	; 18
    689e:	96 98       	cbi	0x12, 6	; 18
    68a0:	96 9a       	sbi	0x12, 6	; 18
    68a2:	8f 5f       	subi	r24, 0xFF	; 255
    68a4:	87 30       	cpi	r24, 0x07	; 7
    68a6:	d1 f7       	brne	.-12     	; 0x0x689c
    68a8:	97 9a       	sbi	0x12, 7	; 18
    68aa:	96 98       	cbi	0x12, 6	; 18
    68ac:	96 9a       	sbi	0x12, 6	; 18
    68ae:	94 9a       	sbi	0x12, 4	; 18
    68b0:	91 e1       	ldi	r25, 0x11	; 17
    68b2:	80 e0       	ldi	r24, 0x00	; 0
    68b4:	97 ff       	sbrs	r25, 7
    68b6:	02 c0       	rjmp	.+4      	; 0x0x68bc
    68b8:	97 9a       	sbi	0x12, 7	; 18
    68ba:	01 c0       	rjmp	.+2      	; 0x0x68be
    68bc:	97 98       	cbi	0x12, 7	; 18
    68be:	96 98       	cbi	0x12, 6	; 18
    68c0:	96 9a       	sbi	0x12, 6	; 18
    68c2:	8f 5f       	subi	r24, 0xFF	; 255
    68c4:	88 30       	cpi	r24, 0x08	; 8
    68c6:	11 f0       	breq	.+4      	; 0x0x68cc
    68c8:	99 0f       	add	r25, r25
    68ca:	f4 cf       	rjmp	.-24     	; 0x0x68b4
    68cc:	94 9a       	sbi	0x12, 4	; 18
    68ce:	97 9a       	sbi	0x12, 7	; 18
    68d0:	96 9a       	sbi	0x12, 6	; 18
    68d2:	8d e7       	ldi	r24, 0x7D	; 125
    68d4:	90 e0       	ldi	r25, 0x00	; 0
    68d6:	01 97       	sbiw	r24, 0x01	; 1
    68d8:	01 96       	adiw	r24, 0x01	; 1
    68da:	01 97       	sbiw	r24, 0x01	; 1
    68dc:	e1 f7       	brne	.-8      	; 0x0x68d6
    68de:	bb 98       	cbi	0x17, 3	; 23
    68e0:	ba 98       	cbi	0x17, 2	; 23
    68e2:	80 ec       	ldi	r24, 0xC0	; 192
    68e4:	8d b9       	out	0x0d, r24	; 13
    68e6:	b8 98       	cbi	0x17, 0	; 23
    68e8:	0b c0       	rjmp	.+22     	; 0x0x6900
    68ea:	60 93 52 01 	sts	0x0152, r22
    68ee:	80 e5       	ldi	r24, 0x50	; 80
    68f0:	90 e0       	ldi	r25, 0x00	; 0
    68f2:	01 97       	sbiw	r24, 0x01	; 1
    68f4:	01 96       	adiw	r24, 0x01	; 1
    68f6:	01 97       	sbiw	r24, 0x01	; 1
    68f8:	e1 f7       	brne	.-8      	; 0x0x68f2
    68fa:	60 93 04 01 	sts	0x0104, r22
    68fe:	07 c0       	rjmp	.+14     	; 0x0x690e
    6900:	80 91 52 01 	lds	r24, 0x0152
    6904:	80 93 04 01 	sts	0x0104, r24
    6908:	84 30       	cpi	r24, 0x04	; 4
    690a:	09 f4       	brne	.+2      	; 0x0x690e
    690c:	54 c0       	rjmp	.+168    	; 0x0x69b6
    690e:	84 e0       	ldi	r24, 0x04	; 4
    6910:	80 93 52 01 	sts	0x0152, r24
    6914:	82 e0       	ldi	r24, 0x02	; 2
    6916:	80 93 b3 01 	sts	0x01B3, r24
    691a:	10 92 ba 01 	sts	0x01BA, r1
    691e:	3f b7       	in	r19, 0x3f	; 63
    6920:	f8 94       	cli
    6922:	90 91 d7 01 	lds	r25, 0x01D7
    6926:	89 2f       	mov	r24, r25
    6928:	8e 7f       	andi	r24, 0xFE	; 254
    692a:	80 93 d7 01 	sts	0x01D7, r24
    692e:	87 b1       	in	r24, 0x07	; 7
    6930:	20 e0       	ldi	r18, 0x00	; 0
    6932:	82 95       	swap	r24
    6934:	86 95       	lsr	r24
    6936:	86 95       	lsr	r24
    6938:	83 70       	andi	r24, 0x03	; 3
    693a:	09 f0       	breq	.+2      	; 0x0x693e
    693c:	21 e0       	ldi	r18, 0x01	; 1
    693e:	81 e0       	ldi	r24, 0x01	; 1
    6940:	28 27       	eor	r18, r24
    6942:	22 0f       	add	r18, r18
    6944:	90 78       	andi	r25, 0x80	; 128
    6946:	92 2b       	or	r25, r18
    6948:	90 93 d7 01 	sts	0x01D7, r25
    694c:	17 b8       	out	0x07, r1	; 7
    694e:	80 91 97 01 	lds	r24, 0x0197
    6952:	90 91 98 01 	lds	r25, 0x0198
    6956:	e1 e0       	ldi	r30, 0x01	; 1
    6958:	86 38       	cpi	r24, 0x86	; 134
    695a:	9e 07       	cpc	r25, r30
    695c:	18 f0       	brcs	.+6      	; 0x0x6964
    695e:	87 e0       	ldi	r24, 0x07	; 7
    6960:	90 e0       	ldi	r25, 0x00	; 0
    6962:	1f c0       	rjmp	.+62     	; 0x0x69a2
    6964:	83 3c       	cpi	r24, 0xC3	; 195
    6966:	91 05       	cpc	r25, r1
    6968:	18 f0       	brcs	.+6      	; 0x0x6970
    696a:	86 e0       	ldi	r24, 0x06	; 6
    696c:	90 e0       	ldi	r25, 0x00	; 0
    696e:	19 c0       	rjmp	.+50     	; 0x0x69a2
    6970:	81 36       	cpi	r24, 0x61	; 97
    6972:	91 05       	cpc	r25, r1
    6974:	18 f0       	brcs	.+6      	; 0x0x697c
    6976:	85 e0       	ldi	r24, 0x05	; 5
    6978:	90 e0       	ldi	r25, 0x00	; 0
    697a:	13 c0       	rjmp	.+38     	; 0x0x69a2
    697c:	80 33       	cpi	r24, 0x30	; 48
    697e:	91 05       	cpc	r25, r1
    6980:	18 f0       	brcs	.+6      	; 0x0x6988
    6982:	84 e0       	ldi	r24, 0x04	; 4
    6984:	90 e0       	ldi	r25, 0x00	; 0
    6986:	0d c0       	rjmp	.+26     	; 0x0x69a2
    6988:	88 31       	cpi	r24, 0x18	; 24
    698a:	91 05       	cpc	r25, r1
    698c:	18 f0       	brcs	.+6      	; 0x0x6994
    698e:	83 e0       	ldi	r24, 0x03	; 3
    6990:	90 e0       	ldi	r25, 0x00	; 0
    6992:	07 c0       	rjmp	.+14     	; 0x0x69a2
    6994:	0c 97       	sbiw	r24, 0x0c	; 12
    6996:	18 f0       	brcs	.+6      	; 0x0x699e
    6998:	82 e0       	ldi	r24, 0x02	; 2
    699a:	90 e0       	ldi	r25, 0x00	; 0
    699c:	02 c0       	rjmp	.+4      	; 0x0x69a2
    699e:	80 e0       	ldi	r24, 0x00	; 0
    69a0:	90 e0       	ldi	r25, 0x00	; 0
    69a2:	87 70       	andi	r24, 0x07	; 7
    69a4:	18 7d       	andi	r17, 0xD8	; 216
    69a6:	18 2b       	or	r17, r24
    69a8:	18 6d       	ori	r17, 0xD8	; 216
    69aa:	81 2f       	mov	r24, r17
    69ac:	99 27       	eor	r25, r25
    69ae:	86 b9       	out	0x06, r24	; 6
    69b0:	83 2f       	mov	r24, r19
    69b2:	99 27       	eor	r25, r25
    69b4:	5b c0       	rjmp	.+182    	; 0x0x6a6c
    69b6:	80 91 0f 01 	lds	r24, 0x010F
    69ba:	83 30       	cpi	r24, 0x03	; 3
    69bc:	09 f0       	breq	.+2      	; 0x0x69c0
    69be:	57 c0       	rjmp	.+174    	; 0x0x6a6e
    69c0:	80 91 07 01 	lds	r24, 0x0107
    69c4:	88 23       	and	r24, r24
    69c6:	09 f0       	breq	.+2      	; 0x0x69ca
    69c8:	52 c0       	rjmp	.+164    	; 0x0x6a6e
    69ca:	80 91 57 01 	lds	r24, 0x0157
    69ce:	88 23       	and	r24, r24
    69d0:	09 f0       	breq	.+2      	; 0x0x69d4
    69d2:	a4 c0       	rjmp	.+328    	; 0x0x6b1c
    69d4:	9c c0       	rjmp	.+312    	; 0x0x6b0e
    69d6:	90 95       	com	r25
    69d8:	a9 23       	and	r26, r25
    69da:	a0 83       	st	Z, r26
    69dc:	60 93 0e 01 	sts	0x010E, r22
    69e0:	25 c0       	rjmp	.+74     	; 0x0x6a2c
    69e2:	6f 5f       	subi	r22, 0xFF	; 255
    69e4:	7f 4f       	sbci	r23, 0xFF	; 255
    69e6:	61 30       	cpi	r22, 0x01	; 1
    69e8:	71 05       	cpc	r23, r1
    69ea:	11 f4       	brne	.+4      	; 0x0x69f0
    69ec:	60 e0       	ldi	r22, 0x00	; 0
    69ee:	70 e0       	ldi	r23, 0x00	; 0
    69f0:	86 2f       	mov	r24, r22
    69f2:	86 95       	lsr	r24
    69f4:	86 95       	lsr	r24
    69f6:	86 95       	lsr	r24
    69f8:	e8 2f       	mov	r30, r24
    69fa:	ff 27       	eor	r31, r31
    69fc:	e9 5a       	subi	r30, 0xA9	; 169
    69fe:	fe 4f       	sbci	r31, 0xFE	; 254
    6a00:	a0 81       	ld	r26, Z
    6a02:	46 2f       	mov	r20, r22
    6a04:	55 27       	eor	r21, r21
    6a06:	9a 01       	movw	r18, r20
    6a08:	27 70       	andi	r18, 0x07	; 7
    6a0a:	30 70       	andi	r19, 0x00	; 0
    6a0c:	81 e0       	ldi	r24, 0x01	; 1
    6a0e:	90 e0       	ldi	r25, 0x00	; 0
    6a10:	02 c0       	rjmp	.+4      	; 0x0x6a16
    6a12:	88 0f       	add	r24, r24
    6a14:	99 1f       	adc	r25, r25
    6a16:	2a 95       	dec	r18
    6a18:	e2 f7       	brpl	.-8      	; 0x0x6a12
    6a1a:	98 2f       	mov	r25, r24
    6a1c:	8a 2f       	mov	r24, r26
    6a1e:	89 23       	and	r24, r25
    6a20:	d1 f6       	brne	.-76     	; 0x0x69d6
    6a22:	60 17       	cp	r22, r16
    6a24:	71 07       	cpc	r23, r17
    6a26:	e9 f6       	brne	.-70     	; 0x0x69e2
    6a28:	4f ef       	ldi	r20, 0xFF	; 255
    6a2a:	50 e0       	ldi	r21, 0x00	; 0
    6a2c:	40 93 8e 01 	sts	0x018E, r20
    6a30:	81 e0       	ldi	r24, 0x01	; 1
    6a32:	80 93 0f 01 	sts	0x010F, r24
    6a36:	9f b7       	in	r25, 0x3f	; 63
    6a38:	f8 94       	cli
    6a3a:	80 91 d3 01 	lds	r24, 0x01D3
    6a3e:	8f 3f       	cpi	r24, 0xFF	; 255
    6a40:	99 f4       	brne	.+38     	; 0x0x6a68
    6a42:	80 91 d9 01 	lds	r24, 0x01D9
    6a46:	88 30       	cpi	r24, 0x08	; 8
    6a48:	09 f0       	breq	.+2      	; 0x0x6a4c
    6a4a:	6e c0       	rjmp	.+220    	; 0x0x6b28
    6a4c:	0d c0       	rjmp	.+26     	; 0x0x6a68
    6a4e:	88 e0       	ldi	r24, 0x08	; 8
    6a50:	80 93 ca 01 	sts	0x01CA, r24
    6a54:	07 c0       	rjmp	.+14     	; 0x0x6a64
    6a56:	e0 91 d9 01 	lds	r30, 0x01D9
    6a5a:	ff 27       	eor	r31, r31
    6a5c:	e5 53       	subi	r30, 0x35	; 53
    6a5e:	fe 4f       	sbci	r31, 0xFE	; 254
    6a60:	88 e0       	ldi	r24, 0x08	; 8
    6a62:	80 83       	st	Z, r24
    6a64:	80 93 d9 01 	sts	0x01D9, r24
    6a68:	89 2f       	mov	r24, r25
    6a6a:	99 27       	eor	r25, r25
    6a6c:	8f bf       	out	0x3f, r24	; 63
    6a6e:	f9 81       	ldd	r31, Y+1	; 0x01
    6a70:	8f 2f       	mov	r24, r31
    6a72:	99 27       	eor	r25, r25
    6a74:	8f bf       	out	0x3f, r24	; 63
    6a76:	5e c0       	rjmp	.+188    	; 0x0x6b34
    6a78:	8f b7       	in	r24, 0x3f	; 63
    6a7a:	f8 94       	cli
    6a7c:	99 27       	eor	r25, r25
    6a7e:	8f bf       	out	0x3f, r24	; 63
    6a80:	2f b7       	in	r18, 0x3f	; 63
    6a82:	f8 94       	cli
    6a84:	33 27       	eor	r19, r19
    6a86:	86 b1       	in	r24, 0x06	; 6
    6a88:	58 2f       	mov	r21, r24
    6a8a:	57 70       	andi	r21, 0x07	; 7
    6a8c:	48 2f       	mov	r20, r24
    6a8e:	40 72       	andi	r20, 0x20	; 32
    6a90:	98 7d       	andi	r25, 0xD8	; 216
    6a92:	94 2b       	or	r25, r20
    6a94:	95 2b       	or	r25, r21
    6a96:	80 74       	andi	r24, 0x40	; 64
    6a98:	97 7b       	andi	r25, 0xB7	; 183
    6a9a:	98 2b       	or	r25, r24
    6a9c:	90 61       	ori	r25, 0x10	; 16
    6a9e:	9f 77       	andi	r25, 0x7F	; 127
    6aa0:	89 2f       	mov	r24, r25
    6aa2:	99 27       	eor	r25, r25
    6aa4:	86 b9       	out	0x06, r24	; 6
    6aa6:	88 7d       	andi	r24, 0xD8	; 216
    6aa8:	84 2b       	or	r24, r20
    6aaa:	85 2b       	or	r24, r21
    6aac:	87 73       	andi	r24, 0x37	; 55
    6aae:	80 61       	ori	r24, 0x10	; 16
    6ab0:	99 27       	eor	r25, r25
    6ab2:	86 b9       	out	0x06, r24	; 6
    6ab4:	88 7d       	andi	r24, 0xD8	; 216
    6ab6:	84 2b       	or	r24, r20
    6ab8:	85 2b       	or	r24, r21
    6aba:	87 7b       	andi	r24, 0xB7	; 183
    6abc:	80 69       	ori	r24, 0x90	; 144
    6abe:	99 27       	eor	r25, r25
    6ac0:	86 b9       	out	0x06, r24	; 6
    6ac2:	2f bf       	out	0x3f, r18	; 63
    6ac4:	37 c0       	rjmp	.+110    	; 0x0x6b34
    6ac6:	80 91 ca 01 	lds	r24, 0x01CA
    6aca:	8f 3f       	cpi	r24, 0xFF	; 255
    6acc:	09 f0       	breq	.+2      	; 0x0x6ad0
    6ace:	3a cc       	rjmp	.-1932   	; 0x0x6344
    6ad0:	35 cc       	rjmp	.-1942   	; 0x0x633c
    6ad2:	80 91 ca 01 	lds	r24, 0x01CA
    6ad6:	8f 3f       	cpi	r24, 0xFF	; 255
    6ad8:	09 f0       	breq	.+2      	; 0x0x6adc
    6ada:	ea cc       	rjmp	.-1580   	; 0x0x64b0
    6adc:	e5 cc       	rjmp	.-1590   	; 0x0x64a8
    6ade:	80 91 ca 01 	lds	r24, 0x01CA
    6ae2:	8f 3f       	cpi	r24, 0xFF	; 255
    6ae4:	09 f0       	breq	.+2      	; 0x0x6ae8
    6ae6:	ff cc       	rjmp	.-1538   	; 0x0x64e6
    6ae8:	fc cc       	rjmp	.-1544   	; 0x0x64e2
    6aea:	80 91 ca 01 	lds	r24, 0x01CA
    6aee:	8f 3f       	cpi	r24, 0xFF	; 255
    6af0:	09 f0       	breq	.+2      	; 0x0x6af4
    6af2:	21 ce       	rjmp	.-958    	; 0x0x6736
    6af4:	1c ce       	rjmp	.-968    	; 0x0x672e
    6af6:	80 91 ca 01 	lds	r24, 0x01CA
    6afa:	8f 3f       	cpi	r24, 0xFF	; 255
    6afc:	09 f0       	breq	.+2      	; 0x0x6b00
    6afe:	4b ce       	rjmp	.-874    	; 0x0x6796
    6b00:	46 ce       	rjmp	.-884    	; 0x0x678e
    6b02:	80 91 ca 01 	lds	r24, 0x01CA
    6b06:	8f 3f       	cpi	r24, 0xFF	; 255
    6b08:	09 f0       	breq	.+2      	; 0x0x6b0c
    6b0a:	71 ce       	rjmp	.-798    	; 0x0x67ee
    6b0c:	6c ce       	rjmp	.-808    	; 0x0x67e6
    6b0e:	81 e0       	ldi	r24, 0x01	; 1
    6b10:	80 93 07 01 	sts	0x0107, r24
    6b14:	10 92 0f 01 	sts	0x010F, r1
    6b18:	37 98       	cbi	0x06, 7	; 6
    6b1a:	a9 cf       	rjmp	.-174    	; 0x0x6a6e
    6b1c:	80 91 0e 01 	lds	r24, 0x010E
    6b20:	08 2f       	mov	r16, r24
    6b22:	11 27       	eor	r17, r17
    6b24:	b8 01       	movw	r22, r16
    6b26:	5d cf       	rjmp	.-326    	; 0x0x69e2
    6b28:	80 91 ca 01 	lds	r24, 0x01CA
    6b2c:	8f 3f       	cpi	r24, 0xFF	; 255
    6b2e:	09 f0       	breq	.+2      	; 0x0x6b32
    6b30:	92 cf       	rjmp	.-220    	; 0x0x6a56
    6b32:	8d cf       	rjmp	.-230    	; 0x0x6a4e
    6b34:	29 96       	adiw	r28, 0x09	; 9
    6b36:	f8 94       	cli
    6b38:	de bf       	out	0x3e, r29	; 62
    6b3a:	cd bf       	out	0x3d, r28	; 61
    6b3c:	df 91       	pop	r29
    6b3e:	cf 91       	pop	r28
    6b40:	ff 91       	pop	r31
    6b42:	ef 91       	pop	r30
    6b44:	bf 91       	pop	r27
    6b46:	af 91       	pop	r26
    6b48:	9f 91       	pop	r25
    6b4a:	8f 91       	pop	r24
    6b4c:	7f 91       	pop	r23
    6b4e:	6f 91       	pop	r22
    6b50:	5f 91       	pop	r21
    6b52:	4f 91       	pop	r20
    6b54:	3f 91       	pop	r19
    6b56:	2f 91       	pop	r18
    6b58:	1f 91       	pop	r17
    6b5a:	0f 91       	pop	r16
    6b5c:	ff 90       	pop	r15
    6b5e:	ef 90       	pop	r14
    6b60:	df 90       	pop	r13
    6b62:	cf 90       	pop	r12
    6b64:	bf 90       	pop	r11
    6b66:	af 90       	pop	r10
    6b68:	9f 90       	pop	r9
    6b6a:	8f 90       	pop	r8
    6b6c:	7f 90       	pop	r7
    6b6e:	6f 90       	pop	r6
    6b70:	5f 90       	pop	r5
    6b72:	4f 90       	pop	r4
    6b74:	3f 90       	pop	r3
    6b76:	2f 90       	pop	r2
    6b78:	0f 90       	pop	r0
    6b7a:	0f be       	out	0x3f, r0	; 63
    6b7c:	0f 90       	pop	r0
    6b7e:	1f 90       	pop	r1
    6b80:	18 95       	reti
    6b82:	ac e2       	ldi	r26, 0x2C	; 44
    6b84:	b0 e0       	ldi	r27, 0x00	; 0
    6b86:	e7 ec       	ldi	r30, 0xC7	; 199
    6b88:	f5 e3       	ldi	r31, 0x35	; 53
    6b8a:	0c 94 0d 38 	jmp	0x701a	; 0x0x701a
    6b8e:	22 2e       	mov	r2, r18
    6b90:	33 2e       	mov	r3, r19
    6b92:	44 2e       	mov	r4, r20
    6b94:	55 2e       	mov	r5, r21
    6b96:	66 2e       	mov	r6, r22
    6b98:	77 2e       	mov	r7, r23
    6b9a:	88 2e       	mov	r8, r24
    6b9c:	99 2e       	mov	r9, r25
    6b9e:	fe 01       	movw	r30, r28
    6ba0:	31 96       	adiw	r30, 0x01	; 1
    6ba2:	a8 e0       	ldi	r26, 0x08	; 8
    6ba4:	11 92       	st	Z+, r1
    6ba6:	aa 95       	dec	r26
    6ba8:	e9 f7       	brne	.-6      	; 0x0x6ba4
    6baa:	29 82       	std	Y+1, r2	; 0x01
    6bac:	3a 82       	std	Y+2, r3	; 0x02
    6bae:	4b 82       	std	Y+3, r4	; 0x03
    6bb0:	5c 82       	std	Y+4, r5	; 0x04
    6bb2:	6d 82       	std	Y+5, r6	; 0x05
    6bb4:	7e 82       	std	Y+6, r7	; 0x06
    6bb6:	8f 82       	std	Y+7, r8	; 0x07
    6bb8:	98 86       	std	Y+8, r9	; 0x08
    6bba:	fe 01       	movw	r30, r28
    6bbc:	39 96       	adiw	r30, 0x09	; 9
    6bbe:	b8 e0       	ldi	r27, 0x08	; 8
    6bc0:	11 92       	st	Z+, r1
    6bc2:	ba 95       	dec	r27
    6bc4:	e9 f7       	brne	.-6      	; 0x0x6bc0
    6bc6:	a9 86       	std	Y+9, r10	; 0x09
    6bc8:	ba 86       	std	Y+10, r11	; 0x0a
    6bca:	cb 86       	std	Y+11, r12	; 0x0b
    6bcc:	dc 86       	std	Y+12, r13	; 0x0c
    6bce:	ed 86       	std	Y+13, r14	; 0x0d
    6bd0:	fe 86       	std	Y+14, r15	; 0x0e
    6bd2:	0f 87       	std	Y+15, r16	; 0x0f
    6bd4:	18 8b       	std	Y+16, r17	; 0x10
    6bd6:	89 81       	ldd	r24, Y+1	; 0x01
    6bd8:	9a 81       	ldd	r25, Y+2	; 0x02
    6bda:	ab 81       	ldd	r26, Y+3	; 0x03
    6bdc:	bc 81       	ldd	r27, Y+4	; 0x04
    6bde:	89 a7       	std	Y+41, r24	; 0x29
    6be0:	9a a7       	std	Y+42, r25	; 0x2a
    6be2:	ab a7       	std	Y+43, r26	; 0x2b
    6be4:	bc a7       	std	Y+44, r27	; 0x2c
    6be6:	7c 01       	movw	r14, r24
    6be8:	8d 01       	movw	r16, r26
    6bea:	8f ef       	ldi	r24, 0xFF	; 255
    6bec:	9f ef       	ldi	r25, 0xFF	; 255
    6bee:	a0 e0       	ldi	r26, 0x00	; 0
    6bf0:	b0 e0       	ldi	r27, 0x00	; 0
    6bf2:	e8 22       	and	r14, r24
    6bf4:	f9 22       	and	r15, r25
    6bf6:	0a 23       	and	r16, r26
    6bf8:	1b 23       	and	r17, r27
    6bfa:	89 a5       	ldd	r24, Y+41	; 0x29
    6bfc:	9a a5       	ldd	r25, Y+42	; 0x2a
    6bfe:	ab a5       	ldd	r26, Y+43	; 0x2b
    6c00:	bc a5       	ldd	r27, Y+44	; 0x2c
    6c02:	1d 01       	movw	r2, r26
    6c04:	44 24       	eor	r4, r4
    6c06:	55 24       	eor	r5, r5
    6c08:	89 85       	ldd	r24, Y+9	; 0x09
    6c0a:	9a 85       	ldd	r25, Y+10	; 0x0a
    6c0c:	ab 85       	ldd	r26, Y+11	; 0x0b
    6c0e:	bc 85       	ldd	r27, Y+12	; 0x0c
    6c10:	8d a3       	std	Y+37, r24	; 0x25
    6c12:	9e a3       	std	Y+38, r25	; 0x26
    6c14:	af a3       	std	Y+39, r26	; 0x27
    6c16:	b8 a7       	std	Y+40, r27	; 0x28
    6c18:	5c 01       	movw	r10, r24
    6c1a:	6d 01       	movw	r12, r26
    6c1c:	8f ef       	ldi	r24, 0xFF	; 255
    6c1e:	9f ef       	ldi	r25, 0xFF	; 255
    6c20:	a0 e0       	ldi	r26, 0x00	; 0
    6c22:	b0 e0       	ldi	r27, 0x00	; 0
    6c24:	a8 22       	and	r10, r24
    6c26:	b9 22       	and	r11, r25
    6c28:	ca 22       	and	r12, r26
    6c2a:	db 22       	and	r13, r27
    6c2c:	8d a1       	ldd	r24, Y+37	; 0x25
    6c2e:	9e a1       	ldd	r25, Y+38	; 0x26
    6c30:	af a1       	ldd	r26, Y+39	; 0x27
    6c32:	b8 a5       	ldd	r27, Y+40	; 0x28
    6c34:	3d 01       	movw	r6, r26
    6c36:	88 24       	eor	r8, r8
    6c38:	99 24       	eor	r9, r9
    6c3a:	c8 01       	movw	r24, r16
    6c3c:	b7 01       	movw	r22, r14
    6c3e:	a6 01       	movw	r20, r12
    6c40:	95 01       	movw	r18, r10
    6c42:	0e 94 cc 37 	call	0x6f98	; 0x0x6f98
    6c46:	69 a3       	std	Y+33, r22	; 0x21
    6c48:	7a a3       	std	Y+34, r23	; 0x22
    6c4a:	8b a3       	std	Y+35, r24	; 0x23
    6c4c:	9c a3       	std	Y+36, r25	; 0x24
    6c4e:	c8 01       	movw	r24, r16
    6c50:	b7 01       	movw	r22, r14
    6c52:	a4 01       	movw	r20, r8
    6c54:	93 01       	movw	r18, r6
    6c56:	0e 94 cc 37 	call	0x6f98	; 0x0x6f98
    6c5a:	7b 01       	movw	r14, r22
    6c5c:	8c 01       	movw	r16, r24
    6c5e:	c2 01       	movw	r24, r4
    6c60:	b1 01       	movw	r22, r2
    6c62:	a6 01       	movw	r20, r12
    6c64:	95 01       	movw	r18, r10
    6c66:	0e 94 cc 37 	call	0x6f98	; 0x0x6f98
    6c6a:	5b 01       	movw	r10, r22
    6c6c:	6c 01       	movw	r12, r24
    6c6e:	c2 01       	movw	r24, r4
    6c70:	b1 01       	movw	r22, r2
    6c72:	a4 01       	movw	r20, r8
    6c74:	93 01       	movw	r18, r6
    6c76:	0e 94 cc 37 	call	0x6f98	; 0x0x6f98
    6c7a:	3b 01       	movw	r6, r22
    6c7c:	4c 01       	movw	r8, r24
    6c7e:	ea 0c       	add	r14, r10
    6c80:	fb 1c       	adc	r15, r11
    6c82:	0c 1d       	adc	r16, r12
    6c84:	1d 1d       	adc	r17, r13
    6c86:	89 a1       	ldd	r24, Y+33	; 0x21
    6c88:	9a a1       	ldd	r25, Y+34	; 0x22
    6c8a:	ab a1       	ldd	r26, Y+35	; 0x23
    6c8c:	bc a1       	ldd	r27, Y+36	; 0x24
    6c8e:	9d 01       	movw	r18, r26
    6c90:	44 27       	eor	r20, r20
    6c92:	55 27       	eor	r21, r21
    6c94:	2e 0d       	add	r18, r14
    6c96:	3f 1d       	adc	r19, r15
    6c98:	40 1f       	adc	r20, r16
    6c9a:	51 1f       	adc	r21, r17
    6c9c:	2a 15       	cp	r18, r10
    6c9e:	3b 05       	cpc	r19, r11
    6ca0:	4c 05       	cpc	r20, r12
    6ca2:	5d 05       	cpc	r21, r13
    6ca4:	40 f4       	brcc	.+16     	; 0x0x6cb6
    6ca6:	80 e0       	ldi	r24, 0x00	; 0
    6ca8:	90 e0       	ldi	r25, 0x00	; 0
    6caa:	a1 e0       	ldi	r26, 0x01	; 1
    6cac:	b0 e0       	ldi	r27, 0x00	; 0
    6cae:	68 0e       	add	r6, r24
    6cb0:	79 1e       	adc	r7, r25
    6cb2:	8a 1e       	adc	r8, r26
    6cb4:	9b 1e       	adc	r9, r27
    6cb6:	ca 01       	movw	r24, r20
    6cb8:	aa 27       	eor	r26, r26
    6cba:	bb 27       	eor	r27, r27
    6cbc:	86 0d       	add	r24, r6
    6cbe:	97 1d       	adc	r25, r7
    6cc0:	a8 1d       	adc	r26, r8
    6cc2:	b9 1d       	adc	r27, r9
    6cc4:	8d 8f       	std	Y+29, r24	; 0x1d
    6cc6:	9e 8f       	std	Y+30, r25	; 0x1e
    6cc8:	af 8f       	std	Y+31, r26	; 0x1f
    6cca:	b8 a3       	std	Y+32, r27	; 0x20
    6ccc:	a9 01       	movw	r20, r18
    6cce:	33 27       	eor	r19, r19
    6cd0:	22 27       	eor	r18, r18
    6cd2:	89 a1       	ldd	r24, Y+33	; 0x21
    6cd4:	9a a1       	ldd	r25, Y+34	; 0x22
    6cd6:	ab a1       	ldd	r26, Y+35	; 0x23
    6cd8:	bc a1       	ldd	r27, Y+36	; 0x24
    6cda:	a0 70       	andi	r26, 0x00	; 0
    6cdc:	b0 70       	andi	r27, 0x00	; 0
    6cde:	28 0f       	add	r18, r24
    6ce0:	39 1f       	adc	r19, r25
    6ce2:	4a 1f       	adc	r20, r26
    6ce4:	5b 1f       	adc	r21, r27
    6ce6:	29 8f       	std	Y+25, r18	; 0x19
    6ce8:	3a 8f       	std	Y+26, r19	; 0x1a
    6cea:	4b 8f       	std	Y+27, r20	; 0x1b
    6cec:	5c 8f       	std	Y+28, r21	; 0x1c
    6cee:	a9 8c       	ldd	r10, Y+25	; 0x19
    6cf0:	ba 8c       	ldd	r11, Y+26	; 0x1a
    6cf2:	cb 8c       	ldd	r12, Y+27	; 0x1b
    6cf4:	dc 8c       	ldd	r13, Y+28	; 0x1c
    6cf6:	ed 8c       	ldd	r14, Y+29	; 0x1d
    6cf8:	fe 8c       	ldd	r15, Y+30	; 0x1e
    6cfa:	0f 8d       	ldd	r16, Y+31	; 0x1f
    6cfc:	18 a1       	ldd	r17, Y+32	; 0x20
    6cfe:	fe 01       	movw	r30, r28
    6d00:	71 96       	adiw	r30, 0x11	; 17
    6d02:	98 e0       	ldi	r25, 0x08	; 8
    6d04:	11 92       	st	Z+, r1
    6d06:	9a 95       	dec	r25
    6d08:	e9 f7       	brne	.-6      	; 0x0x6d04
    6d0a:	ed 8a       	std	Y+21, r14	; 0x15
    6d0c:	fe 8a       	std	Y+22, r15	; 0x16
    6d0e:	0f 8b       	std	Y+23, r16	; 0x17
    6d10:	18 8f       	std	Y+24, r17	; 0x18
    6d12:	2d 81       	ldd	r18, Y+5	; 0x05
    6d14:	3e 81       	ldd	r19, Y+6	; 0x06
    6d16:	4f 81       	ldd	r20, Y+7	; 0x07
    6d18:	58 85       	ldd	r21, Y+8	; 0x08
    6d1a:	6d a1       	ldd	r22, Y+37	; 0x25
    6d1c:	7e a1       	ldd	r23, Y+38	; 0x26
    6d1e:	8f a1       	ldd	r24, Y+39	; 0x27
    6d20:	98 a5       	ldd	r25, Y+40	; 0x28
    6d22:	0e 94 cc 37 	call	0x6f98	; 0x0x6f98
    6d26:	3b 01       	movw	r6, r22
    6d28:	4c 01       	movw	r8, r24
    6d2a:	2d 85       	ldd	r18, Y+13	; 0x0d
    6d2c:	3e 85       	ldd	r19, Y+14	; 0x0e
    6d2e:	4f 85       	ldd	r20, Y+15	; 0x0f
    6d30:	58 89       	ldd	r21, Y+16	; 0x10
    6d32:	69 a5       	ldd	r22, Y+41	; 0x29
    6d34:	7a a5       	ldd	r23, Y+42	; 0x2a
    6d36:	8b a5       	ldd	r24, Y+43	; 0x2b
    6d38:	9c a5       	ldd	r25, Y+44	; 0x2c
    6d3a:	0e 94 cc 37 	call	0x6f98	; 0x0x6f98
    6d3e:	2d 89       	ldd	r18, Y+21	; 0x15
    6d40:	3e 89       	ldd	r19, Y+22	; 0x16
    6d42:	4f 89       	ldd	r20, Y+23	; 0x17
    6d44:	58 8d       	ldd	r21, Y+24	; 0x18
    6d46:	26 0f       	add	r18, r22
    6d48:	37 1f       	adc	r19, r23
    6d4a:	48 1f       	adc	r20, r24
    6d4c:	59 1f       	adc	r21, r25
    6d4e:	26 0d       	add	r18, r6
    6d50:	37 1d       	adc	r19, r7
    6d52:	48 1d       	adc	r20, r8
    6d54:	59 1d       	adc	r21, r9
    6d56:	2d 8b       	std	Y+21, r18	; 0x15
    6d58:	3e 8b       	std	Y+22, r19	; 0x16
    6d5a:	4f 8b       	std	Y+23, r20	; 0x17
    6d5c:	58 8f       	std	Y+24, r21	; 0x18
    6d5e:	6d 88       	ldd	r6, Y+21	; 0x15
    6d60:	7e 88       	ldd	r7, Y+22	; 0x16
    6d62:	8f 88       	ldd	r8, Y+23	; 0x17
    6d64:	98 8c       	ldd	r9, Y+24	; 0x18
    6d66:	2a 2d       	mov	r18, r10
    6d68:	3b 2d       	mov	r19, r11
    6d6a:	4c 2d       	mov	r20, r12
    6d6c:	5d 2d       	mov	r21, r13
    6d6e:	66 2d       	mov	r22, r6
    6d70:	77 2d       	mov	r23, r7
    6d72:	88 2d       	mov	r24, r8
    6d74:	99 2d       	mov	r25, r9
    6d76:	e2 e1       	ldi	r30, 0x12	; 18
    6d78:	ac 96       	adiw	r28, 0x2c	; 44
    6d7a:	0c 94 29 38 	jmp	0x7052	; 0x0x7052
    6d7e:	a0 e1       	ldi	r26, 0x10	; 16
    6d80:	b0 e0       	ldi	r27, 0x00	; 0
    6d82:	e5 ec       	ldi	r30, 0xC5	; 197
    6d84:	f6 e3       	ldi	r31, 0x36	; 54
    6d86:	0c 94 0d 38 	jmp	0x701a	; 0x0x701a
    6d8a:	22 2e       	mov	r2, r18
    6d8c:	33 2e       	mov	r3, r19
    6d8e:	44 2e       	mov	r4, r20
    6d90:	55 2e       	mov	r5, r21
    6d92:	66 2e       	mov	r6, r22
    6d94:	77 2e       	mov	r7, r23
    6d96:	88 2e       	mov	r8, r24
    6d98:	99 2e       	mov	r9, r25
    6d9a:	00 23       	and	r16, r16
    6d9c:	09 f4       	brne	.+2      	; 0x0x6da0
    6d9e:	66 c0       	rjmp	.+204    	; 0x0x6e6c
    6da0:	88 e0       	ldi	r24, 0x08	; 8
    6da2:	fe 01       	movw	r30, r28
    6da4:	31 96       	adiw	r30, 0x01	; 1
    6da6:	11 92       	st	Z+, r1
    6da8:	8a 95       	dec	r24
    6daa:	e9 f7       	brne	.-6      	; 0x0x6da6
    6dac:	29 83       	std	Y+1, r18	; 0x01
    6dae:	3a 83       	std	Y+2, r19	; 0x02
    6db0:	4b 83       	std	Y+3, r20	; 0x03
    6db2:	5c 83       	std	Y+4, r21	; 0x04
    6db4:	6d 83       	std	Y+5, r22	; 0x05
    6db6:	7e 83       	std	Y+6, r23	; 0x06
    6db8:	8f 82       	std	Y+7, r8	; 0x07
    6dba:	98 87       	std	Y+8, r25	; 0x08
    6dbc:	e0 e2       	ldi	r30, 0x20	; 32
    6dbe:	e0 1b       	sub	r30, r16
    6dc0:	1e 16       	cp	r1, r30
    6dc2:	cc f5       	brge	.+114    	; 0x0x6e36
    6dc4:	2d 81       	ldd	r18, Y+5	; 0x05
    6dc6:	3e 81       	ldd	r19, Y+6	; 0x06
    6dc8:	4f 81       	ldd	r20, Y+7	; 0x07
    6dca:	58 85       	ldd	r21, Y+8	; 0x08
    6dcc:	60 2f       	mov	r22, r16
    6dce:	77 27       	eor	r23, r23
    6dd0:	67 fd       	sbrc	r22, 7
    6dd2:	70 95       	com	r23
    6dd4:	da 01       	movw	r26, r20
    6dd6:	c9 01       	movw	r24, r18
    6dd8:	06 2e       	mov	r0, r22
    6dda:	04 c0       	rjmp	.+8      	; 0x0x6de4
    6ddc:	b6 95       	lsr	r27
    6dde:	a7 95       	ror	r26
    6de0:	97 95       	ror	r25
    6de2:	87 95       	ror	r24
    6de4:	0a 94       	dec	r0
    6de6:	d2 f7       	brpl	.-12     	; 0x0x6ddc
    6de8:	8d 87       	std	Y+13, r24	; 0x0d
    6dea:	9e 87       	std	Y+14, r25	; 0x0e
    6dec:	af 87       	std	Y+15, r26	; 0x0f
    6dee:	b8 8b       	std	Y+16, r27	; 0x10
    6df0:	04 c0       	rjmp	.+8      	; 0x0x6dfa
    6df2:	22 0f       	add	r18, r18
    6df4:	33 1f       	adc	r19, r19
    6df6:	44 1f       	adc	r20, r20
    6df8:	55 1f       	adc	r21, r21
    6dfa:	ea 95       	dec	r30
    6dfc:	d2 f7       	brpl	.-12     	; 0x0x6df2
    6dfe:	89 81       	ldd	r24, Y+1	; 0x01
    6e00:	9a 81       	ldd	r25, Y+2	; 0x02
    6e02:	ab 81       	ldd	r26, Y+3	; 0x03
    6e04:	bc 81       	ldd	r27, Y+4	; 0x04
    6e06:	04 c0       	rjmp	.+8      	; 0x0x6e10
    6e08:	b6 95       	lsr	r27
    6e0a:	a7 95       	ror	r26
    6e0c:	97 95       	ror	r25
    6e0e:	87 95       	ror	r24
    6e10:	6a 95       	dec	r22
    6e12:	d2 f7       	brpl	.-12     	; 0x0x6e08
    6e14:	28 2b       	or	r18, r24
    6e16:	39 2b       	or	r19, r25
    6e18:	4a 2b       	or	r20, r26
    6e1a:	5b 2b       	or	r21, r27
    6e1c:	29 87       	std	Y+9, r18	; 0x09
    6e1e:	3a 87       	std	Y+10, r19	; 0x0a
    6e20:	4b 87       	std	Y+11, r20	; 0x0b
    6e22:	5c 87       	std	Y+12, r21	; 0x0c
    6e24:	29 84       	ldd	r2, Y+9	; 0x09
    6e26:	3a 84       	ldd	r3, Y+10	; 0x0a
    6e28:	4b 84       	ldd	r4, Y+11	; 0x0b
    6e2a:	5c 84       	ldd	r5, Y+12	; 0x0c
    6e2c:	6d 84       	ldd	r6, Y+13	; 0x0d
    6e2e:	7e 84       	ldd	r7, Y+14	; 0x0e
    6e30:	8f 84       	ldd	r8, Y+15	; 0x0f
    6e32:	98 88       	ldd	r9, Y+16	; 0x10
    6e34:	1b c0       	rjmp	.+54     	; 0x0x6e6c
    6e36:	1d 86       	std	Y+13, r1	; 0x0d
    6e38:	1e 86       	std	Y+14, r1	; 0x0e
    6e3a:	1f 86       	std	Y+15, r1	; 0x0f
    6e3c:	18 8a       	std	Y+16, r1	; 0x10
    6e3e:	2e 2f       	mov	r18, r30
    6e40:	33 27       	eor	r19, r19
    6e42:	27 fd       	sbrc	r18, 7
    6e44:	30 95       	com	r19
    6e46:	30 95       	com	r19
    6e48:	21 95       	neg	r18
    6e4a:	3f 4f       	sbci	r19, 0xFF	; 255
    6e4c:	8d 81       	ldd	r24, Y+5	; 0x05
    6e4e:	9e 81       	ldd	r25, Y+6	; 0x06
    6e50:	af 81       	ldd	r26, Y+7	; 0x07
    6e52:	b8 85       	ldd	r27, Y+8	; 0x08
    6e54:	04 c0       	rjmp	.+8      	; 0x0x6e5e
    6e56:	b6 95       	lsr	r27
    6e58:	a7 95       	ror	r26
    6e5a:	97 95       	ror	r25
    6e5c:	87 95       	ror	r24
    6e5e:	2a 95       	dec	r18
    6e60:	d2 f7       	brpl	.-12     	; 0x0x6e56
    6e62:	89 87       	std	Y+9, r24	; 0x09
    6e64:	9a 87       	std	Y+10, r25	; 0x0a
    6e66:	ab 87       	std	Y+11, r26	; 0x0b
    6e68:	bc 87       	std	Y+12, r27	; 0x0c
    6e6a:	dc cf       	rjmp	.-72     	; 0x0x6e24
    6e6c:	22 2d       	mov	r18, r2
    6e6e:	33 2d       	mov	r19, r3
    6e70:	44 2d       	mov	r20, r4
    6e72:	55 2d       	mov	r21, r5
    6e74:	66 2d       	mov	r22, r6
    6e76:	77 2d       	mov	r23, r7
    6e78:	88 2d       	mov	r24, r8
    6e7a:	99 2d       	mov	r25, r9
    6e7c:	e2 e1       	ldi	r30, 0x12	; 18
    6e7e:	60 96       	adiw	r28, 0x10	; 16
    6e80:	0c 94 29 38 	jmp	0x7052	; 0x0x7052
    6e84:	a0 e1       	ldi	r26, 0x10	; 16
    6e86:	b0 e0       	ldi	r27, 0x00	; 0
    6e88:	e8 e4       	ldi	r30, 0x48	; 72
    6e8a:	f7 e3       	ldi	r31, 0x37	; 55
    6e8c:	0c 94 0d 38 	jmp	0x701a	; 0x0x701a
    6e90:	22 2e       	mov	r2, r18
    6e92:	33 2e       	mov	r3, r19
    6e94:	44 2e       	mov	r4, r20
    6e96:	55 2e       	mov	r5, r21
    6e98:	66 2e       	mov	r6, r22
    6e9a:	77 2e       	mov	r7, r23
    6e9c:	88 2e       	mov	r8, r24
    6e9e:	99 2e       	mov	r9, r25
    6ea0:	00 23       	and	r16, r16
    6ea2:	09 f4       	brne	.+2      	; 0x0x6ea6
    6ea4:	66 c0       	rjmp	.+204    	; 0x0x6f72
    6ea6:	88 e0       	ldi	r24, 0x08	; 8
    6ea8:	fe 01       	movw	r30, r28
    6eaa:	31 96       	adiw	r30, 0x01	; 1
    6eac:	11 92       	st	Z+, r1
    6eae:	8a 95       	dec	r24
    6eb0:	e9 f7       	brne	.-6      	; 0x0x6eac
    6eb2:	29 83       	std	Y+1, r18	; 0x01
    6eb4:	3a 83       	std	Y+2, r19	; 0x02
    6eb6:	4b 83       	std	Y+3, r20	; 0x03
    6eb8:	5c 83       	std	Y+4, r21	; 0x04
    6eba:	6d 83       	std	Y+5, r22	; 0x05
    6ebc:	7e 83       	std	Y+6, r23	; 0x06
    6ebe:	8f 82       	std	Y+7, r8	; 0x07
    6ec0:	98 87       	std	Y+8, r25	; 0x08
    6ec2:	e0 e2       	ldi	r30, 0x20	; 32
    6ec4:	e0 1b       	sub	r30, r16
    6ec6:	1e 16       	cp	r1, r30
    6ec8:	cc f5       	brge	.+114    	; 0x0x6f3c
    6eca:	29 81       	ldd	r18, Y+1	; 0x01
    6ecc:	3a 81       	ldd	r19, Y+2	; 0x02
    6ece:	4b 81       	ldd	r20, Y+3	; 0x03
    6ed0:	5c 81       	ldd	r21, Y+4	; 0x04
    6ed2:	60 2f       	mov	r22, r16
    6ed4:	77 27       	eor	r23, r23
    6ed6:	67 fd       	sbrc	r22, 7
    6ed8:	70 95       	com	r23
    6eda:	da 01       	movw	r26, r20
    6edc:	c9 01       	movw	r24, r18
    6ede:	06 2e       	mov	r0, r22
    6ee0:	04 c0       	rjmp	.+8      	; 0x0x6eea
    6ee2:	88 0f       	add	r24, r24
    6ee4:	99 1f       	adc	r25, r25
    6ee6:	aa 1f       	adc	r26, r26
    6ee8:	bb 1f       	adc	r27, r27
    6eea:	0a 94       	dec	r0
    6eec:	d2 f7       	brpl	.-12     	; 0x0x6ee2
    6eee:	89 87       	std	Y+9, r24	; 0x09
    6ef0:	9a 87       	std	Y+10, r25	; 0x0a
    6ef2:	ab 87       	std	Y+11, r26	; 0x0b
    6ef4:	bc 87       	std	Y+12, r27	; 0x0c
    6ef6:	04 c0       	rjmp	.+8      	; 0x0x6f00
    6ef8:	56 95       	lsr	r21
    6efa:	47 95       	ror	r20
    6efc:	37 95       	ror	r19
    6efe:	27 95       	ror	r18
    6f00:	ea 95       	dec	r30
    6f02:	d2 f7       	brpl	.-12     	; 0x0x6ef8
    6f04:	8d 81       	ldd	r24, Y+5	; 0x05
    6f06:	9e 81       	ldd	r25, Y+6	; 0x06
    6f08:	af 81       	ldd	r26, Y+7	; 0x07
    6f0a:	b8 85       	ldd	r27, Y+8	; 0x08
    6f0c:	04 c0       	rjmp	.+8      	; 0x0x6f16
    6f0e:	88 0f       	add	r24, r24
    6f10:	99 1f       	adc	r25, r25
    6f12:	aa 1f       	adc	r26, r26
    6f14:	bb 1f       	adc	r27, r27
    6f16:	6a 95       	dec	r22
    6f18:	d2 f7       	brpl	.-12     	; 0x0x6f0e
    6f1a:	28 2b       	or	r18, r24
    6f1c:	39 2b       	or	r19, r25
    6f1e:	4a 2b       	or	r20, r26
    6f20:	5b 2b       	or	r21, r27
    6f22:	2d 87       	std	Y+13, r18	; 0x0d
    6f24:	3e 87       	std	Y+14, r19	; 0x0e
    6f26:	4f 87       	std	Y+15, r20	; 0x0f
    6f28:	58 8b       	std	Y+16, r21	; 0x10
    6f2a:	29 84       	ldd	r2, Y+9	; 0x09
    6f2c:	3a 84       	ldd	r3, Y+10	; 0x0a
    6f2e:	4b 84       	ldd	r4, Y+11	; 0x0b
    6f30:	5c 84       	ldd	r5, Y+12	; 0x0c
    6f32:	6d 84       	ldd	r6, Y+13	; 0x0d
    6f34:	7e 84       	ldd	r7, Y+14	; 0x0e
    6f36:	8f 84       	ldd	r8, Y+15	; 0x0f
    6f38:	98 88       	ldd	r9, Y+16	; 0x10
    6f3a:	1b c0       	rjmp	.+54     	; 0x0x6f72
    6f3c:	19 86       	std	Y+9, r1	; 0x09
    6f3e:	1a 86       	std	Y+10, r1	; 0x0a
    6f40:	1b 86       	std	Y+11, r1	; 0x0b
    6f42:	1c 86       	std	Y+12, r1	; 0x0c
    6f44:	2e 2f       	mov	r18, r30
    6f46:	33 27       	eor	r19, r19
    6f48:	27 fd       	sbrc	r18, 7
    6f4a:	30 95       	com	r19
    6f4c:	30 95       	com	r19
    6f4e:	21 95       	neg	r18
    6f50:	3f 4f       	sbci	r19, 0xFF	; 255
    6f52:	89 81       	ldd	r24, Y+1	; 0x01
    6f54:	9a 81       	ldd	r25, Y+2	; 0x02
    6f56:	ab 81       	ldd	r26, Y+3	; 0x03
    6f58:	bc 81       	ldd	r27, Y+4	; 0x04
    6f5a:	04 c0       	rjmp	.+8      	; 0x0x6f64
    6f5c:	88 0f       	add	r24, r24
    6f5e:	99 1f       	adc	r25, r25
    6f60:	aa 1f       	adc	r26, r26
    6f62:	bb 1f       	adc	r27, r27
    6f64:	2a 95       	dec	r18
    6f66:	d2 f7       	brpl	.-12     	; 0x0x6f5c
    6f68:	8d 87       	std	Y+13, r24	; 0x0d
    6f6a:	9e 87       	std	Y+14, r25	; 0x0e
    6f6c:	af 87       	std	Y+15, r26	; 0x0f
    6f6e:	b8 8b       	std	Y+16, r27	; 0x10
    6f70:	dc cf       	rjmp	.-72     	; 0x0x6f2a
    6f72:	22 2d       	mov	r18, r2
    6f74:	33 2d       	mov	r19, r3
    6f76:	44 2d       	mov	r20, r4
    6f78:	55 2d       	mov	r21, r5
    6f7a:	66 2d       	mov	r22, r6
    6f7c:	77 2d       	mov	r23, r7
    6f7e:	88 2d       	mov	r24, r8
    6f80:	99 2d       	mov	r25, r9
    6f82:	e2 e1       	ldi	r30, 0x12	; 18
    6f84:	60 96       	adiw	r28, 0x10	; 16
    6f86:	0c 94 29 38 	jmp	0x7052	; 0x0x7052
    6f8a:	dc 01       	movw	r26, r24
    6f8c:	01 c0       	rjmp	.+2      	; 0x0x6f90
    6f8e:	6d 93       	st	X+, r22
    6f90:	41 50       	subi	r20, 0x01	; 1
    6f92:	50 40       	sbci	r21, 0x00	; 0
    6f94:	e0 f7       	brcc	.-8      	; 0x0x6f8e
    6f96:	08 95       	ret
    6f98:	62 9f       	mul	r22, r18
    6f9a:	d0 01       	movw	r26, r0
    6f9c:	73 9f       	mul	r23, r19
    6f9e:	f0 01       	movw	r30, r0
    6fa0:	82 9f       	mul	r24, r18
    6fa2:	e0 0d       	add	r30, r0
    6fa4:	f1 1d       	adc	r31, r1
    6fa6:	64 9f       	mul	r22, r20
    6fa8:	e0 0d       	add	r30, r0
    6faa:	f1 1d       	adc	r31, r1
    6fac:	92 9f       	mul	r25, r18
    6fae:	f0 0d       	add	r31, r0
    6fb0:	83 9f       	mul	r24, r19
    6fb2:	f0 0d       	add	r31, r0
    6fb4:	74 9f       	mul	r23, r20
    6fb6:	f0 0d       	add	r31, r0
    6fb8:	65 9f       	mul	r22, r21
    6fba:	f0 0d       	add	r31, r0
    6fbc:	99 27       	eor	r25, r25
    6fbe:	72 9f       	mul	r23, r18
    6fc0:	b0 0d       	add	r27, r0
    6fc2:	e1 1d       	adc	r30, r1
    6fc4:	f9 1f       	adc	r31, r25
    6fc6:	63 9f       	mul	r22, r19
    6fc8:	b0 0d       	add	r27, r0
    6fca:	e1 1d       	adc	r30, r1
    6fcc:	f9 1f       	adc	r31, r25
    6fce:	bd 01       	movw	r22, r26
    6fd0:	cf 01       	movw	r24, r30
    6fd2:	11 24       	eor	r1, r1
    6fd4:	08 95       	ret
    6fd6:	a1 e2       	ldi	r26, 0x21	; 33
    6fd8:	1a 2e       	mov	r1, r26
    6fda:	aa 1b       	sub	r26, r26
    6fdc:	bb 1b       	sub	r27, r27
    6fde:	fd 01       	movw	r30, r26
    6fe0:	0d c0       	rjmp	.+26     	; 0x0x6ffc
    6fe2:	aa 1f       	adc	r26, r26
    6fe4:	bb 1f       	adc	r27, r27
    6fe6:	ee 1f       	adc	r30, r30
    6fe8:	ff 1f       	adc	r31, r31
    6fea:	a2 17       	cp	r26, r18
    6fec:	b3 07       	cpc	r27, r19
    6fee:	e4 07       	cpc	r30, r20
    6ff0:	f5 07       	cpc	r31, r21
    6ff2:	20 f0       	brcs	.+8      	; 0x0x6ffc
    6ff4:	a2 1b       	sub	r26, r18
    6ff6:	b3 0b       	sbc	r27, r19
    6ff8:	e4 0b       	sbc	r30, r20
    6ffa:	f5 0b       	sbc	r31, r21
    6ffc:	66 1f       	adc	r22, r22
    6ffe:	77 1f       	adc	r23, r23
    7000:	88 1f       	adc	r24, r24
    7002:	99 1f       	adc	r25, r25
    7004:	1a 94       	dec	r1
    7006:	69 f7       	brne	.-38     	; 0x0x6fe2
    7008:	60 95       	com	r22
    700a:	70 95       	com	r23
    700c:	80 95       	com	r24
    700e:	90 95       	com	r25
    7010:	9b 01       	movw	r18, r22
    7012:	ac 01       	movw	r20, r24
    7014:	bd 01       	movw	r22, r26
    7016:	cf 01       	movw	r24, r30
    7018:	08 95       	ret
    701a:	2f 92       	push	r2
    701c:	3f 92       	push	r3
    701e:	4f 92       	push	r4
    7020:	5f 92       	push	r5
    7022:	6f 92       	push	r6
    7024:	7f 92       	push	r7
    7026:	8f 92       	push	r8
    7028:	9f 92       	push	r9
    702a:	af 92       	push	r10
    702c:	bf 92       	push	r11
    702e:	cf 92       	push	r12
    7030:	df 92       	push	r13
    7032:	ef 92       	push	r14
    7034:	ff 92       	push	r15
    7036:	0f 93       	push	r16
    7038:	1f 93       	push	r17
    703a:	cf 93       	push	r28
    703c:	df 93       	push	r29
    703e:	cd b7       	in	r28, 0x3d	; 61
    7040:	de b7       	in	r29, 0x3e	; 62
    7042:	ca 1b       	sub	r28, r26
    7044:	db 0b       	sbc	r29, r27
    7046:	0f b6       	in	r0, 0x3f	; 63
    7048:	f8 94       	cli
    704a:	de bf       	out	0x3e, r29	; 62
    704c:	0f be       	out	0x3f, r0	; 63
    704e:	cd bf       	out	0x3d, r28	; 61
    7050:	09 94       	ijmp
    7052:	2a 88       	ldd	r2, Y+18	; 0x12
    7054:	39 88       	ldd	r3, Y+17	; 0x11
    7056:	48 88       	ldd	r4, Y+16	; 0x10
    7058:	5f 84       	ldd	r5, Y+15	; 0x0f
    705a:	6e 84       	ldd	r6, Y+14	; 0x0e
    705c:	7d 84       	ldd	r7, Y+13	; 0x0d
    705e:	8c 84       	ldd	r8, Y+12	; 0x0c
    7060:	9b 84       	ldd	r9, Y+11	; 0x0b
    7062:	aa 84       	ldd	r10, Y+10	; 0x0a
    7064:	b9 84       	ldd	r11, Y+9	; 0x09
    7066:	c8 84       	ldd	r12, Y+8	; 0x08
    7068:	df 80       	ldd	r13, Y+7	; 0x07
    706a:	ee 80       	ldd	r14, Y+6	; 0x06
    706c:	fd 80       	ldd	r15, Y+5	; 0x05
    706e:	0c 81       	ldd	r16, Y+4	; 0x04
    7070:	1b 81       	ldd	r17, Y+3	; 0x03
    7072:	aa 81       	ldd	r26, Y+2	; 0x02
    7074:	b9 81       	ldd	r27, Y+1	; 0x01
    7076:	ce 0f       	add	r28, r30
    7078:	d1 1d       	adc	r29, r1
    707a:	0f b6       	in	r0, 0x3f	; 63
    707c:	f8 94       	cli
    707e:	de bf       	out	0x3e, r29	; 62
    7080:	0f be       	out	0x3f, r0	; 63
    7082:	cd bf       	out	0x3d, r28	; 61
    7084:	ed 01       	movw	r28, r26
    7086:	08 95       	ret
    7088:	ff cf       	rjmp	.-2      	; 0x0x7088
    708a:	01 00       	.word	0x0001	; ????
    708c:	5b 01       	movw	r10, r22
    708e:	04 20       	and	r0, r4
    7090:	01 01       	movw	r0, r2
    7092:	01 00       	.word	0x0001	; ????
    7094:	01 00       	.word	0x0001	; ????
